

Microchip Technology PIC LITE Macro Assembler V1.45 build -152302408 
                                                                                               Tue Oct 30 09:55:45 2018

Microchip Technology Omniscient Code Generator v1.45 (Free mode) build 201711160504
     1                           	processor	16F18877
     2                           	opt	pw 120
     3                           	opt	lm
     4                           	psect	idataBANK1,global,class=CODE,delta=2
     5                           	psect	cinit,global,class=CODE,merge=1,delta=2
     6                           	psect	bssBANK0,global,class=BANK0,space=1,delta=1
     7                           	psect	bssBANK1,global,class=BANK1,space=1,delta=1
     8                           	psect	dataBANK1,global,class=BANK1,space=1,delta=1
     9                           	psect	inittext,global,class=CODE,delta=2
    10                           	psect	clrtext,global,class=CODE,delta=2
    11                           	psect	cstackCOMMON,global,class=COMMON,space=1,delta=1
    12                           	psect	cstackBANK0,global,class=BANK0,space=1,delta=1
    13                           	psect	maintext,global,class=CODE,merge=1,split=1,delta=2
    14                           	psect	text1,local,class=CODE,merge=1,delta=2
    15                           	psect	text2,local,class=CODE,merge=1,delta=2,group=2
    16                           	psect	text3,local,class=CODE,merge=1,delta=2,group=2
    17                           	psect	text4,local,class=CODE,merge=1,delta=2
    18                           	psect	text5,local,class=CODE,merge=1,delta=2,group=2
    19                           	psect	text6,local,class=CODE,merge=1,delta=2,group=2
    20                           	psect	text7,local,class=CODE,merge=1,delta=2,group=2
    21                           	psect	text8,local,class=CODE,merge=1,delta=2,group=2
    22                           	psect	text9,local,class=CODE,merge=1,delta=2,group=2
    23                           	psect	text10,local,class=CODE,merge=1,delta=2,group=2
    24                           	psect	intentry,global,class=CODE,delta=2
    25                           	dabs	1,0x7E,2
    26  0000                     
    27                           ; Version 1.45
    28                           ; Generated 16/11/2017 GMT
    29                           ; 
    30                           ; Copyright © 2017, Microchip Technology Inc. and its subsidiaries ("Microchip")
    31                           ; All rights reserved.
    32                           ; 
    33                           ; This software is developed by Microchip Technology Inc. and its subsidiaries ("Microch
      +                          ip").
    34                           ; 
    35                           ; Redistribution and use in source and binary forms, with or without modification, are
    36                           ; permitted provided that the following conditions are met:
    37                           ; 
    38                           ;     1. Redistributions of source code must retain the above copyright notice, this lis
      +                          t of
    39                           ;        conditions and the following disclaimer.
    40                           ; 
    41                           ;     2. Redistributions in binary form must reproduce the above copyright notice, this 
      +                          list
    42                           ;        of conditions and the following disclaimer in the documentation and/or other
    43                           ;        materials provided with the distribution.
    44                           ; 
    45                           ;     3. Microchip's name may not be used to endorse or promote products derived from th
      +                          is
    46                           ;        software without specific prior written permission.
    47                           ; 
    48                           ; THIS SOFTWARE IS PROVIDED BY MICROCHIP "AS IS" AND ANY EXPRESS OR IMPLIED WARRANTIES,
    49                           ; INCLUDING, BUT NOT LIMITED TO, THE IMPLIED WARRANTIES OF MERCHANTABILITY AND FITNESS F
      +                          OR
    50                           ; PURPOSE ARE DISCLAIMED.  IN NO EVENT SHALL MICROCHIP BE LIABLE FOR ANY DIRECT, INDIREC
      +                          T,
    51                           ; INCIDENTAL, SPECIAL, EXEMPLARY, OR CONSEQUENTIAL DAMAGES (INCLUDING BUT NOT LIMITED TO
    52                           ; PROCUREMENT OF SUBSTITUTE GOODS OR SERVICES; LOSS OF USE, DATA OR PROFITS; OR BUSINESS
    53                           ; INTERRUPTION) HOWSOEVER CAUSED AND ON ANY THEORY OF LIABILITY, WHETHER IN CONTRACT, ST
      +                          RICT
    54                           ; LIABILITY, OR TORT (INCLUDING NEGLIGENCE OR OTHERWISE) ARISING IN ANY WAY OUT OF THE U
      +                          SE OF
    55                           ; THIS SOFTWARE, EVEN IF ADVISED OF THE POSSIBILITY OF SUCH DAMAGE.
    56                           ; 
    57                           ; 
    58                           ; Code-generator required, PIC16F18877 Definitions
    59                           ; 
    60                           ; SFR Addresses
    61  0000                     	;# 
    62  0001                     	;# 
    63  0002                     	;# 
    64  0003                     	;# 
    65  0004                     	;# 
    66  0005                     	;# 
    67  0006                     	;# 
    68  0007                     	;# 
    69  0008                     	;# 
    70  0009                     	;# 
    71  000A                     	;# 
    72  000B                     	;# 
    73  000C                     	;# 
    74  000D                     	;# 
    75  000E                     	;# 
    76  000F                     	;# 
    77  0010                     	;# 
    78  0011                     	;# 
    79  0012                     	;# 
    80  0013                     	;# 
    81  0014                     	;# 
    82  0015                     	;# 
    83  0016                     	;# 
    84  0017                     	;# 
    85  0018                     	;# 
    86  0019                     	;# 
    87  001A                     	;# 
    88  001C                     	;# 
    89  001C                     	;# 
    90  001D                     	;# 
    91  001D                     	;# 
    92  001E                     	;# 
    93  001F                     	;# 
    94  008C                     	;# 
    95  008C                     	;# 
    96  008D                     	;# 
    97  008E                     	;# 
    98  008E                     	;# 
    99  008F                     	;# 
   100  0090                     	;# 
   101  0090                     	;# 
   102  0091                     	;# 
   103  0093                     	;# 
   104  0094                     	;# 
   105  0095                     	;# 
   106  0096                     	;# 
   107  0097                     	;# 
   108  0098                     	;# 
   109  0099                     	;# 
   110  009A                     	;# 
   111  009B                     	;# 
   112  009C                     	;# 
   113  009D                     	;# 
   114  009E                     	;# 
   115  010C                     	;# 
   116  010D                     	;# 
   117  010E                     	;# 
   118  010E                     	;# 
   119  010F                     	;# 
   120  0110                     	;# 
   121  0110                     	;# 
   122  0111                     	;# 
   123  0112                     	;# 
   124  0112                     	;# 
   125  0113                     	;# 
   126  0114                     	;# 
   127  0114                     	;# 
   128  0115                     	;# 
   129  0116                     	;# 
   130  0116                     	;# 
   131  0117                     	;# 
   132  0119                     	;# 
   133  0119                     	;# 
   134  0119                     	;# 
   135  011A                     	;# 
   136  011A                     	;# 
   137  011A                     	;# 
   138  011B                     	;# 
   139  011B                     	;# 
   140  011B                     	;# 
   141  011B                     	;# 
   142  011B                     	;# 
   143  011C                     	;# 
   144  011C                     	;# 
   145  011C                     	;# 
   146  011D                     	;# 
   147  011D                     	;# 
   148  011D                     	;# 
   149  011E                     	;# 
   150  011E                     	;# 
   151  011E                     	;# 
   152  011F                     	;# 
   153  011F                     	;# 
   154  011F                     	;# 
   155  011F                     	;# 
   156  011F                     	;# 
   157  018C                     	;# 
   158  018D                     	;# 
   159  018E                     	;# 
   160  018F                     	;# 
   161  0190                     	;# 
   162  0191                     	;# 
   163  0192                     	;# 
   164  0196                     	;# 
   165  0197                     	;# 
   166  0198                     	;# 
   167  0199                     	;# 
   168  019A                     	;# 
   169  019B                     	;# 
   170  019C                     	;# 
   171  020C                     	;# 
   172  020C                     	;# 
   173  020D                     	;# 
   174  020E                     	;# 
   175  020F                     	;# 
   176  020F                     	;# 
   177  0210                     	;# 
   178  0210                     	;# 
   179  0211                     	;# 
   180  0211                     	;# 
   181  0212                     	;# 
   182  0212                     	;# 
   183  0213                     	;# 
   184  0214                     	;# 
   185  0215                     	;# 
   186  0215                     	;# 
   187  0216                     	;# 
   188  0216                     	;# 
   189  0217                     	;# 
   190  0217                     	;# 
   191  0218                     	;# 
   192  0218                     	;# 
   193  0219                     	;# 
   194  021A                     	;# 
   195  021B                     	;# 
   196  021B                     	;# 
   197  021C                     	;# 
   198  021C                     	;# 
   199  021D                     	;# 
   200  021D                     	;# 
   201  021E                     	;# 
   202  021F                     	;# 
   203  028C                     	;# 
   204  028C                     	;# 
   205  028D                     	;# 
   206  028D                     	;# 
   207  028E                     	;# 
   208  028F                     	;# 
   209  0290                     	;# 
   210  0290                     	;# 
   211  0291                     	;# 
   212  0292                     	;# 
   213  0292                     	;# 
   214  0293                     	;# 
   215  0293                     	;# 
   216  0294                     	;# 
   217  0295                     	;# 
   218  0296                     	;# 
   219  0296                     	;# 
   220  0297                     	;# 
   221  0298                     	;# 
   222  0298                     	;# 
   223  0299                     	;# 
   224  0299                     	;# 
   225  029A                     	;# 
   226  029B                     	;# 
   227  029C                     	;# 
   228  029C                     	;# 
   229  029D                     	;# 
   230  030C                     	;# 
   231  030C                     	;# 
   232  030D                     	;# 
   233  030E                     	;# 
   234  030F                     	;# 
   235  0310                     	;# 
   236  0310                     	;# 
   237  0311                     	;# 
   238  0312                     	;# 
   239  0313                     	;# 
   240  0314                     	;# 
   241  0314                     	;# 
   242  0315                     	;# 
   243  0316                     	;# 
   244  0317                     	;# 
   245  0318                     	;# 
   246  0318                     	;# 
   247  0319                     	;# 
   248  031A                     	;# 
   249  031B                     	;# 
   250  031C                     	;# 
   251  031C                     	;# 
   252  031D                     	;# 
   253  031E                     	;# 
   254  031F                     	;# 
   255  038C                     	;# 
   256  038D                     	;# 
   257  038E                     	;# 
   258  0390                     	;# 
   259  0391                     	;# 
   260  0392                     	;# 
   261  040C                     	;# 
   262  040D                     	;# 
   263  040E                     	;# 
   264  040F                     	;# 
   265  0410                     	;# 
   266  0411                     	;# 
   267  0416                     	;# 
   268  0416                     	;# 
   269  0417                     	;# 
   270  0418                     	;# 
   271  0418                     	;# 
   272  0419                     	;# 
   273  041A                     	;# 
   274  041A                     	;# 
   275  041B                     	;# 
   276  041C                     	;# 
   277  041C                     	;# 
   278  041D                     	;# 
   279  041E                     	;# 
   280  041F                     	;# 
   281  048C                     	;# 
   282  048C                     	;# 
   283  048D                     	;# 
   284  048E                     	;# 
   285  048F                     	;# 
   286  048F                     	;# 
   287  0490                     	;# 
   288  0491                     	;# 
   289  0492                     	;# 
   290  0492                     	;# 
   291  0493                     	;# 
   292  0494                     	;# 
   293  0495                     	;# 
   294  0495                     	;# 
   295  0496                     	;# 
   296  0497                     	;# 
   297  0498                     	;# 
   298  0499                     	;# 
   299  049A                     	;# 
   300  049B                     	;# 
   301  049C                     	;# 
   302  049D                     	;# 
   303  050C                     	;# 
   304  050C                     	;# 
   305  050D                     	;# 
   306  050E                     	;# 
   307  050F                     	;# 
   308  050F                     	;# 
   309  0510                     	;# 
   310  0511                     	;# 
   311  0512                     	;# 
   312  0512                     	;# 
   313  0513                     	;# 
   314  0514                     	;# 
   315  0515                     	;# 
   316  0515                     	;# 
   317  0516                     	;# 
   318  0517                     	;# 
   319  0518                     	;# 
   320  0519                     	;# 
   321  051A                     	;# 
   322  051B                     	;# 
   323  051C                     	;# 
   324  051D                     	;# 
   325  058C                     	;# 
   326  058C                     	;# 
   327  058D                     	;# 
   328  058E                     	;# 
   329  058F                     	;# 
   330  058F                     	;# 
   331  0590                     	;# 
   332  0591                     	;# 
   333  0592                     	;# 
   334  0593                     	;# 
   335  060C                     	;# 
   336  060D                     	;# 
   337  060E                     	;# 
   338  060F                     	;# 
   339  0610                     	;# 
   340  0611                     	;# 
   341  0612                     	;# 
   342  0613                     	;# 
   343  0614                     	;# 
   344  0616                     	;# 
   345  0617                     	;# 
   346  0618                     	;# 
   347  0619                     	;# 
   348  061A                     	;# 
   349  061B                     	;# 
   350  061C                     	;# 
   351  061D                     	;# 
   352  061E                     	;# 
   353  068C                     	;# 
   354  068D                     	;# 
   355  068E                     	;# 
   356  068F                     	;# 
   357  0690                     	;# 
   358  0691                     	;# 
   359  0692                     	;# 
   360  0693                     	;# 
   361  0694                     	;# 
   362  070C                     	;# 
   363  070D                     	;# 
   364  070E                     	;# 
   365  070F                     	;# 
   366  0710                     	;# 
   367  0711                     	;# 
   368  0712                     	;# 
   369  0713                     	;# 
   370  0714                     	;# 
   371  0716                     	;# 
   372  0717                     	;# 
   373  0718                     	;# 
   374  0719                     	;# 
   375  071A                     	;# 
   376  071B                     	;# 
   377  071C                     	;# 
   378  071D                     	;# 
   379  071E                     	;# 
   380  0796                     	;# 
   381  0797                     	;# 
   382  0798                     	;# 
   383  0799                     	;# 
   384  079A                     	;# 
   385  079B                     	;# 
   386  080C                     	;# 
   387  080D                     	;# 
   388  080E                     	;# 
   389  080F                     	;# 
   390  0810                     	;# 
   391  0811                     	;# 
   392  0812                     	;# 
   393  0813                     	;# 
   394  0814                     	;# 
   395  081A                     	;# 
   396  081B                     	;# 
   397  081C                     	;# 
   398  081D                     	;# 
   399  081E                     	;# 
   400  081F                     	;# 
   401  088C                     	;# 
   402  088D                     	;# 
   403  088E                     	;# 
   404  088F                     	;# 
   405  0890                     	;# 
   406  0891                     	;# 
   407  0892                     	;# 
   408  0893                     	;# 
   409  0895                     	;# 
   410  0896                     	;# 
   411  0897                     	;# 
   412  0898                     	;# 
   413  0899                     	;# 
   414  089A                     	;# 
   415  089B                     	;# 
   416  090C                     	;# 
   417  090E                     	;# 
   418  090F                     	;# 
   419  091F                     	;# 
   420  098F                     	;# 
   421  098F                     	;# 
   422  0990                     	;# 
   423  0991                     	;# 
   424  0992                     	;# 
   425  0993                     	;# 
   426  0994                     	;# 
   427  0995                     	;# 
   428  0996                     	;# 
   429  0997                     	;# 
   430  1E0F                     	;# 
   431  1E10                     	;# 
   432  1E11                     	;# 
   433  1E12                     	;# 
   434  1E13                     	;# 
   435  1E14                     	;# 
   436  1E15                     	;# 
   437  1E16                     	;# 
   438  1E17                     	;# 
   439  1E18                     	;# 
   440  1E19                     	;# 
   441  1E1A                     	;# 
   442  1E1B                     	;# 
   443  1E1C                     	;# 
   444  1E1D                     	;# 
   445  1E1E                     	;# 
   446  1E1F                     	;# 
   447  1E20                     	;# 
   448  1E21                     	;# 
   449  1E22                     	;# 
   450  1E23                     	;# 
   451  1E24                     	;# 
   452  1E25                     	;# 
   453  1E26                     	;# 
   454  1E27                     	;# 
   455  1E28                     	;# 
   456  1E29                     	;# 
   457  1E2A                     	;# 
   458  1E2B                     	;# 
   459  1E2C                     	;# 
   460  1E2D                     	;# 
   461  1E2E                     	;# 
   462  1E2F                     	;# 
   463  1E30                     	;# 
   464  1E31                     	;# 
   465  1E32                     	;# 
   466  1E33                     	;# 
   467  1E34                     	;# 
   468  1E35                     	;# 
   469  1E36                     	;# 
   470  1E37                     	;# 
   471  1E8F                     	;# 
   472  1E90                     	;# 
   473  1E91                     	;# 
   474  1E92                     	;# 
   475  1E93                     	;# 
   476  1E94                     	;# 
   477  1E95                     	;# 
   478  1E96                     	;# 
   479  1E97                     	;# 
   480  1E9C                     	;# 
   481  1E9D                     	;# 
   482  1E9E                     	;# 
   483  1EA1                     	;# 
   484  1EA2                     	;# 
   485  1EA3                     	;# 
   486  1EA4                     	;# 
   487  1EA5                     	;# 
   488  1EA9                     	;# 
   489  1EAA                     	;# 
   490  1EAB                     	;# 
   491  1EAC                     	;# 
   492  1EB1                     	;# 
   493  1EB2                     	;# 
   494  1EB3                     	;# 
   495  1EB8                     	;# 
   496  1EB9                     	;# 
   497  1EBA                     	;# 
   498  1EBB                     	;# 
   499  1EBC                     	;# 
   500  1EBD                     	;# 
   501  1EBE                     	;# 
   502  1EC3                     	;# 
   503  1EC5                     	;# 
   504  1EC6                     	;# 
   505  1EC7                     	;# 
   506  1EC8                     	;# 
   507  1EC9                     	;# 
   508  1ECA                     	;# 
   509  1ECB                     	;# 
   510  1ECC                     	;# 
   511  1F10                     	;# 
   512  1F11                     	;# 
   513  1F12                     	;# 
   514  1F13                     	;# 
   515  1F14                     	;# 
   516  1F15                     	;# 
   517  1F16                     	;# 
   518  1F17                     	;# 
   519  1F18                     	;# 
   520  1F19                     	;# 
   521  1F1A                     	;# 
   522  1F1B                     	;# 
   523  1F1C                     	;# 
   524  1F1D                     	;# 
   525  1F1E                     	;# 
   526  1F1F                     	;# 
   527  1F20                     	;# 
   528  1F21                     	;# 
   529  1F22                     	;# 
   530  1F23                     	;# 
   531  1F24                     	;# 
   532  1F25                     	;# 
   533  1F26                     	;# 
   534  1F27                     	;# 
   535  1F28                     	;# 
   536  1F29                     	;# 
   537  1F2A                     	;# 
   538  1F2B                     	;# 
   539  1F2C                     	;# 
   540  1F2D                     	;# 
   541  1F2E                     	;# 
   542  1F2F                     	;# 
   543  1F30                     	;# 
   544  1F31                     	;# 
   545  1F32                     	;# 
   546  1F38                     	;# 
   547  1F39                     	;# 
   548  1F3A                     	;# 
   549  1F3B                     	;# 
   550  1F3C                     	;# 
   551  1F3D                     	;# 
   552  1F3E                     	;# 
   553  1F3F                     	;# 
   554  1F40                     	;# 
   555  1F41                     	;# 
   556  1F43                     	;# 
   557  1F44                     	;# 
   558  1F45                     	;# 
   559  1F46                     	;# 
   560  1F47                     	;# 
   561  1F48                     	;# 
   562  1F49                     	;# 
   563  1F4A                     	;# 
   564  1F4B                     	;# 
   565  1F4C                     	;# 
   566  1F4E                     	;# 
   567  1F4F                     	;# 
   568  1F50                     	;# 
   569  1F51                     	;# 
   570  1F52                     	;# 
   571  1F53                     	;# 
   572  1F54                     	;# 
   573  1F55                     	;# 
   574  1F56                     	;# 
   575  1F57                     	;# 
   576  1F59                     	;# 
   577  1F5A                     	;# 
   578  1F5B                     	;# 
   579  1F5C                     	;# 
   580  1F5D                     	;# 
   581  1F61                     	;# 
   582  1F62                     	;# 
   583  1F64                     	;# 
   584  1F65                     	;# 
   585  1F66                     	;# 
   586  1F67                     	;# 
   587  1F68                     	;# 
   588  1F69                     	;# 
   589  1F6A                     	;# 
   590  1F6B                     	;# 
   591  1F6C                     	;# 
   592  1F6D                     	;# 
   593  1FE4                     	;# 
   594  1FE5                     	;# 
   595  1FE6                     	;# 
   596  1FE7                     	;# 
   597  1FE8                     	;# 
   598  1FE9                     	;# 
   599  1FEA                     	;# 
   600  1FEB                     	;# 
   601  1FED                     	;# 
   602  1FEE                     	;# 
   603  1FEF                     	;# 
   604                           
   605                           	psect	idataBANK1
   606  07DF                     __pidataBANK1:	
   607                           
   608                           ;initializer for _ki
   609  07DF  3400               	retlw	0
   610  07E0  3470               	retlw	112
   611  07E1  3442               	retlw	66
   612                           
   613                           ;initializer for _kd
   614                           ;main.c: 29: double tiempo1=0,tiempo2=0,tiempo3=0;
   615                           ;main.c: 30: double distancia1=0,distancia2=0,distancia3=0;
   616                           ;main.c: 31: int calibracion=1;
   617                           ;main.c: 33: int error=0, errorant=0;
   618  07E2  34E7               	retlw	231
   619  07E3  347B               	retlw	123
   620  07E4  343E               	retlw	62
   621                           
   622                           ;initializer for _kp
   623                           ;main.c: 29: double tiempo1=0,tiempo2=0,tiempo3=0;
   624                           ;main.c: 30: double distancia1=0,distancia2=0,distancia3=0;
   625                           ;main.c: 31: int calibracion=1;
   626                           ;main.c: 33: int error=0, errorant=0;
   627  07E5  345A               	retlw	90
   628  07E6  34E4               	retlw	228
   629  07E7  343E               	retlw	62
   630                           
   631                           ;initializer for _velocidad
   632  07E8  34BC               	retlw	188
   633  07E9  3402               	retlw	2
   634                           
   635                           ;initializer for _calibracion
   636  07EA  3401               	retlw	1
   637  07EB  3400               	retlw	0
   638  000B                     _INTCONbits	set	11
   639  0011                     _TRISAbits	set	17
   640  000C                     _PORTA	set	12
   641  0012                     _TRISBbits	set	18
   642  0012                     _TRISB	set	18
   643  000D                     _PORTB	set	13
   644  000C                     _PORTAbits	set	12
   645  0016                     _LATAbits	set	22
   646  020C                     _TMR1	set	524
   647  0211                     _T1CLKbits	set	529
   648  021E                     _CCPTMRS0bits	set	542
   649  020E                     _T1CONbits	set	526
   650  028D                     _PR2	set	653
   651  028E                     _T2CONbits	set	654
   652  0290                     _T2CLKCON	set	656
   653  0310                     _CCPR2	set	784
   654  030C                     _CCPR1	set	780
   655  0312                     _CCP2CONbits	set	786
   656  030E                     _CCP1CONbits	set	782
   657  071A                     _PIE4bits	set	1818
   658  0710                     _PIR4bits	set	1808
   659  0893                     _OSCFRQbits	set	2195
   660  1F1B                     _RB3PPS	set	7963
   661  1F1A                     _RB2PPS	set	7962
   662  1F19                     _RB1PPS	set	7961
   663  1F18                     _RB0PPS	set	7960
   664  1F43                     _ANSELB	set	8003
   665  1F38                     _ANSELA	set	7992
   666                           
   667                           ; #config settings
   668  0000                     
   669                           	psect	cinit
   670  0012                     start_initialization:	
   671  0012                     __initialization:	
   672                           
   673                           ; Initialize objects allocated to BANK1
   674  0012  30DF               	movlw	low __pidataBANK1
   675  0013  0084               	movwf	4
   676  0014  3087               	movlw	(high __pidataBANK1)| (0+128)
   677  0015  0085               	movwf	5
   678  0016  30B4               	movlw	low __pdataBANK1
   679  0017  0086               	movwf	6
   680  0018  3000               	movlw	high __pdataBANK1
   681  0019  0087               	movwf	7
   682  001A  300D               	movlw	13
   683  001B  3187  27F5  3180   	fcall	init_ram
   684                           
   685                           ; Clear objects allocated to BANK0
   686  001E  01EE               	clrf	__pbssBANK0& (0+127)
   687  001F  01EF               	clrf	(__pbssBANK0+1)& (0+127)
   688                           
   689                           ; Clear objects allocated to BANK1
   690  0020  30A0               	movlw	low __pbssBANK1
   691  0021  0084               	movwf	4
   692  0022  3000               	movlw	high __pbssBANK1
   693  0023  0085               	movwf	5
   694  0024  3014               	movlw	20
   695  0025  318A  22DF         	fcall	clear_ram0
   696  0027                     end_of_initialization:	
   697                           ;End of C runtime variable initialization code
   698                           
   699  0027                     __end_of__initialization:	
   700  0027  107E               	bcf	int$flags,0	;clear compiler interrupt flag (level 1)
   701  0028  0140               	movlb	0
   702  0029  318B  2B49         	ljmp	_main	;jump to C main() function
   703                           
   704                           	psect	bssBANK0
   705  006E                     __pbssBANK0:	
   706  006E                     _error:	
   707  006E                     	ds	2
   708                           
   709                           	psect	bssBANK1
   710  00A0                     __pbssBANK1:	
   711  00A0                     _distancia3:	
   712  00A0                     	ds	3
   713  00A3                     _distancia2:	
   714  00A3                     	ds	3
   715  00A6                     _errorant:	
   716  00A6                     	ds	2
   717  00A8                     _distancia1:	
   718  00A8                     	ds	3
   719  00AB                     _tiempo3:	
   720  00AB                     	ds	3
   721  00AE                     _tiempo2:	
   722  00AE                     	ds	3
   723  00B1                     _tiempo1:	
   724  00B1                     	ds	3
   725                           
   726                           	psect	dataBANK1
   727  00B4                     __pdataBANK1:	
   728  00B4                     _ki:	
   729  00B4                     	ds	3
   730  00B7                     _kd:	
   731  00B7                     	ds	3
   732  00BA                     _kp:	
   733  00BA                     	ds	3
   734  00BD                     _velocidad:	
   735  00BD                     	ds	2
   736  00BF                     _calibracion:	
   737  00BF                     	ds	2
   738                           
   739                           	psect	inittext
   740  07F5                     init_ram:	
   741  07F5  00FE               	movwf	126
   742  07F6                     initloop:	
   743  07F6  0012               	moviw fsr0++
   744  07F7  001E               	movwi fsr1++
   745  07F8  0BFE               	decfsz	126,f
   746  07F9  2FF6               	goto	initloop
   747  07FA  3400               	retlw	0
   748                           
   749                           	psect	clrtext
   750  0ADF                     clear_ram0:	
   751                           ;	Called with FSR0 containing the base address, and
   752                           ;	WREG with the size to clear
   753                           
   754  0ADF  0064               	clrwdt	;clear the watchdog before getting into this loop
   755  0AE0                     clrloop0:	
   756  0AE0  0180               	clrf	0	;clear RAM location pointed to by FSR
   757  0AE1  3101               	addfsr 0,1
   758  0AE2  0B89               	decfsz	9,f	;Have we reached the end of clearing yet?
   759  0AE3  2AE0               	goto	clrloop0	;have we reached the end yet?
   760  0AE4  3400               	retlw	0	;all done for this memory range, return
   761                           
   762                           	psect	cstackCOMMON
   763  0070                     __pcstackCOMMON:	
   764  0070                     ?_geterror:	
   765  0070                     ?_formula:	
   766                           ; 1 bytes @ 0x0
   767                           
   768  0070                     ?_interrupcion:	
   769                           ; 1 bytes @ 0x0
   770                           
   771  0070                     ??_interrupcion:	
   772                           ; 1 bytes @ 0x0
   773                           
   774                           
   775                           ; 1 bytes @ 0x0
   776  0070                     	ds	1
   777  0071                     ?___ftpack:	
   778  0071                     ___ftpack@arg:	
   779                           ; 3 bytes @ 0x1
   780                           
   781                           
   782                           ; 3 bytes @ 0x1
   783  0071                     	ds	3
   784  0074                     ___ftpack@exp:	
   785                           
   786                           ; 1 bytes @ 0x4
   787  0074                     	ds	1
   788  0075                     ___ftpack@sign:	
   789                           
   790                           ; 1 bytes @ 0x5
   791  0075                     	ds	1
   792  0076                     ??___ftpack:	
   793                           
   794                           ; 1 bytes @ 0x6
   795  0076                     	ds	3
   796  0079                     ??___ftmul:	
   797  0079                     ?___lwtoft:	
   798                           ; 1 bytes @ 0x9
   799                           
   800  0079                     ___lwtoft@c:	
   801                           ; 3 bytes @ 0x9
   802                           
   803                           
   804                           ; 2 bytes @ 0x9
   805  0079                     	ds	3
   806  007C                     ??___lwtoft:	
   807                           
   808                           ; 1 bytes @ 0xC
   809  007C                     	ds	1
   810  007D                     ??___ftneg:	
   811                           
   812                           	psect	cstackBANK0
   813  0020                     __pcstackBANK0:	
   814                           ; 1 bytes @ 0xD
   815                           
   816  0020                     ?___ftmul:	
   817  0020                     ___ftmul@f1:	
   818                           ; 3 bytes @ 0x0
   819                           
   820                           
   821                           ; 3 bytes @ 0x0
   822  0020                     	ds	3
   823  0023                     ___ftmul@f2:	
   824                           
   825                           ; 3 bytes @ 0x3
   826  0023                     	ds	3
   827  0026                     ___ftmul@exp:	
   828                           
   829                           ; 1 bytes @ 0x6
   830  0026                     	ds	1
   831  0027                     ___ftmul@f3_as_product:	
   832                           
   833                           ; 3 bytes @ 0x7
   834  0027                     	ds	3
   835  002A                     ___ftmul@cntr:	
   836                           
   837                           ; 1 bytes @ 0xA
   838  002A                     	ds	1
   839  002B                     ___ftmul@sign:	
   840                           
   841                           ; 1 bytes @ 0xB
   842  002B                     	ds	1
   843  002C                     ?___ftadd:	
   844  002C                     ___ftadd@f1:	
   845                           ; 3 bytes @ 0xC
   846                           
   847                           
   848                           ; 3 bytes @ 0xC
   849  002C                     	ds	3
   850  002F                     ___ftadd@f2:	
   851                           
   852                           ; 3 bytes @ 0xF
   853  002F                     	ds	3
   854  0032                     ??___ftadd:	
   855                           
   856                           ; 1 bytes @ 0x12
   857  0032                     	ds	4
   858  0036                     ___ftadd@sign:	
   859                           
   860                           ; 1 bytes @ 0x16
   861  0036                     	ds	1
   862  0037                     ___ftadd@exp2:	
   863                           
   864                           ; 1 bytes @ 0x17
   865  0037                     	ds	1
   866  0038                     ___ftadd@exp1:	
   867                           
   868                           ; 1 bytes @ 0x18
   869  0038                     	ds	1
   870  0039                     ?___ftdiv:	
   871  0039                     ___ftdiv@f2:	
   872                           ; 3 bytes @ 0x19
   873                           
   874                           
   875                           ; 3 bytes @ 0x19
   876  0039                     	ds	3
   877  003C                     ___ftdiv@f1:	
   878                           
   879                           ; 3 bytes @ 0x1C
   880  003C                     	ds	3
   881  003F                     ??___ftdiv:	
   882                           
   883                           ; 1 bytes @ 0x1F
   884  003F                     	ds	4
   885  0043                     ___ftdiv@cntr:	
   886                           
   887                           ; 1 bytes @ 0x23
   888  0043                     	ds	1
   889  0044                     ___ftdiv@f3:	
   890                           
   891                           ; 3 bytes @ 0x24
   892  0044                     	ds	3
   893  0047                     ___ftdiv@exp:	
   894                           
   895                           ; 1 bytes @ 0x27
   896  0047                     	ds	1
   897  0048                     ___ftdiv@sign:	
   898                           
   899                           ; 1 bytes @ 0x28
   900  0048                     	ds	1
   901  0049                     ?___fttol:	
   902  0049                     ___fttol@f1:	
   903                           ; 4 bytes @ 0x29
   904                           
   905                           
   906                           ; 3 bytes @ 0x29
   907  0049                     	ds	4
   908  004D                     ??___fttol:	
   909                           
   910                           ; 1 bytes @ 0x2D
   911  004D                     	ds	4
   912  0051                     ___fttol@sign1:	
   913                           
   914                           ; 1 bytes @ 0x31
   915  0051                     	ds	1
   916  0052                     ___fttol@lval:	
   917                           
   918                           ; 4 bytes @ 0x32
   919  0052                     	ds	4
   920  0056                     ___fttol@exp1:	
   921                           
   922                           ; 1 bytes @ 0x36
   923  0056                     	ds	1
   924  0057                     ?___awtoft:	
   925  0057                     ___awtoft@c:	
   926                           ; 3 bytes @ 0x37
   927                           
   928                           
   929                           ; 2 bytes @ 0x37
   930  0057                     	ds	3
   931  005A                     ??___awtoft:	
   932                           
   933                           ; 1 bytes @ 0x3A
   934  005A                     	ds	2
   935  005C                     ___awtoft@sign:	
   936                           
   937                           ; 1 bytes @ 0x3C
   938  005C                     	ds	1
   939  005D                     ??_geterror:	
   940  005D                     ?___ftneg:	
   941                           ; 1 bytes @ 0x3D
   942                           
   943  005D                     ___ftneg@f1:	
   944                           ; 3 bytes @ 0x3D
   945                           
   946                           
   947                           ; 3 bytes @ 0x3D
   948  005D                     	ds	2
   949  005F                     _geterror$1012:	
   950                           
   951                           ; 3 bytes @ 0x3F
   952  005F                     	ds	1
   953  0060                     ??_formula:	
   954                           
   955                           ; 1 bytes @ 0x40
   956  0060                     	ds	2
   957  0062                     _geterror$1013:	
   958  0062                     _formula$1015:	
   959                           ; 3 bytes @ 0x42
   960                           
   961                           
   962                           ; 3 bytes @ 0x42
   963  0062                     	ds	3
   964  0065                     _formula$1014:	
   965                           
   966                           ; 3 bytes @ 0x45
   967  0065                     	ds	3
   968  0068                     ?_main:	
   969  0068                     main@argc:	
   970                           ; 2 bytes @ 0x48
   971                           
   972                           
   973                           ; 2 bytes @ 0x48
   974  0068                     	ds	2
   975  006A                     main@argv:	
   976                           
   977                           ; 2 bytes @ 0x4A
   978  006A                     	ds	2
   979  006C                     ??_main:	
   980                           
   981                           ; 1 bytes @ 0x4C
   982  006C                     	ds	2
   983                           
   984                           	psect	maintext
   985  0B49                     __pmaintext:	
   986 ;;
   987 ;;Main: autosize = 0, tempsize = 2, incstack = 0, save=0
   988 ;;
   989 ;; *************** function _main *****************
   990 ;; Defined at:
   991 ;;		line 127 in file "main.c"
   992 ;; Parameters:    Size  Location     Type
   993 ;;  argc            2   72[BANK0 ] int 
   994 ;;  argv            2   74[BANK0 ] PTR PTR unsigned char 
   995 ;; Auto vars:     Size  Location     Type
   996 ;;		None
   997 ;; Return value:  Size  Location     Type
   998 ;;                  2   72[BANK0 ] int 
   999 ;; Registers used:
  1000 ;;		wreg, status,2, status,0, pclath, cstack
  1001 ;; Tracked objects:
  1002 ;;		On entry : B3F/0
  1003 ;;		On exit  : 0/0
  1004 ;;		Unchanged: 0/0
  1005 ;; Data sizes:     COMMON   BANK0   BANK1   BANK2   BANK3   BANK4   BANK5   BANK6   BANK7   BANK8   BANK9  BANK10  BANK1
      +1  BANK12  BANK13  BANK14  BANK15  BANK16  BANK17  BANK18  BANK19  BANK20  BANK21  BANK22  BANK23  BANK24  BANK25  BANK2
      +6  BANK27  BANK28  BANK29  BANK30  BANK31  BANK32  BANK33  BANK34  BANK35  BANK36  BANK37  BANK38  BANK39  BANK40  BANK4
      +1  BANK42  BANK43  BANK44  BANK45  BANK46  BANK47  BANK48  BANK49  BANK50
  1006 ;;      Params:         0       4       0       0       0       0       0       0       0       0       0       0       
      +0       0       0       0       0       0       0       0       0       0       0       0       0       0       0       
      +0       0       0       0       0       0       0       0       0       0       0       0       0       0       0       
      +0       0       0       0       0       0       0       0       0       0
  1007 ;;      Locals:         0       0       0       0       0       0       0       0       0       0       0       0       
      +0       0       0       0       0       0       0       0       0       0       0       0       0       0       0       
      +0       0       0       0       0       0       0       0       0       0       0       0       0       0       0       
      +0       0       0       0       0       0       0       0       0       0
  1008 ;;      Temps:          0       2       0       0       0       0       0       0       0       0       0       0       
      +0       0       0       0       0       0       0       0       0       0       0       0       0       0       0       
      +0       0       0       0       0       0       0       0       0       0       0       0       0       0       0       
      +0       0       0       0       0       0       0       0       0       0
  1009 ;;      Totals:         0       6       0       0       0       0       0       0       0       0       0       0       
      +0       0       0       0       0       0       0       0       0       0       0       0       0       0       0       
      +0       0       0       0       0       0       0       0       0       0       0       0       0       0       0       
      +0       0       0       0       0       0       0       0       0       0
  1010 ;;Total ram usage:        6 bytes
  1011 ;; Hardware stack levels required when called:    4
  1012 ;; This function calls:
  1013 ;;		_formula
  1014 ;;		_geterror
  1015 ;; This function is called by:
  1016 ;;		Startup code after reset
  1017 ;; This function uses a non-reentrant model
  1018 ;;
  1019                           
  1020                           
  1021                           ;psect for function _main
  1022  0B49                     _main:	
  1023                           
  1024                           ;main.c: 128: OSCFRQbits.HFFRQ=0b110;
  1025                           
  1026                           ;incstack = 0
  1027                           ; Regs used in _main: [wreg+status,2+status,0+pclath+cstack]
  1028  0B49  0151               	movlb	17	; select bank17
  1029  0B4A  0813               	movf	19,w	;volatile
  1030  0B4B  39F8               	andlw	-8
  1031  0B4C  3806               	iorlw	6
  1032  0B4D  0093               	movwf	19	;volatile
  1033                           
  1034                           ;main.c: 130: PORTA=0;
  1035  0B4E  0140               	movlb	0	; select bank0
  1036  0B4F  018C               	clrf	12	;volatile
  1037                           
  1038                           ;main.c: 131: ANSELA=0;
  1039  0B50  017E               	movlb	62	; select bank62
  1040  0B51  01B8               	clrf	56	;volatile
  1041                           
  1042                           ;main.c: 132: TRISAbits.TRISA0=0;
  1043  0B52  0140               	movlb	0	; select bank0
  1044  0B53  1011               	bcf	17,0	;volatile
  1045                           
  1046                           ;main.c: 133: TRISAbits.TRISA1=1;
  1047  0B54  1491               	bsf	17,1	;volatile
  1048                           
  1049                           ;main.c: 135: TRISAbits.TRISA2=0;
  1050  0B55  1111               	bcf	17,2	;volatile
  1051                           
  1052                           ;main.c: 136: TRISAbits.TRISA3=1;
  1053  0B56  1591               	bsf	17,3	;volatile
  1054                           
  1055                           ;main.c: 138: TRISAbits.TRISA4=0;
  1056  0B57  1211               	bcf	17,4	;volatile
  1057                           
  1058                           ;main.c: 139: TRISAbits.TRISA5=1;
  1059  0B58  1691               	bsf	17,5	;volatile
  1060                           
  1061                           ;main.c: 141: PORTB=0;
  1062  0B59  018D               	clrf	13	;volatile
  1063                           
  1064                           ;main.c: 142: ANSELB=0b11111111;
  1065  0B5A  30FF               	movlw	255
  1066  0B5B  017E               	movlb	62	; select bank62
  1067  0B5C  00C3               	movwf	67	;volatile
  1068                           
  1069                           ;main.c: 143: TRISB=0b11111111;
  1070  0B5D  30FF               	movlw	255
  1071  0B5E  0140               	movlb	0	; select bank0
  1072  0B5F  0092               	movwf	18	;volatile
  1073                           
  1074                           ;main.c: 145: T2CLKCON=0b0001;
  1075  0B60  3001               	movlw	1
  1076  0B61  0145               	movlb	5	; select bank5
  1077  0B62  0090               	movwf	16	;volatile
  1078                           
  1079                           ;main.c: 146: T2CONbits.ON=1;
  1080  0B63  178E               	bsf	14,7	;volatile
  1081                           
  1082                           ;main.c: 147: T2CONbits.OUTPS=0;
  1083  0B64  30F0               	movlw	-16
  1084  0B65  058E               	andwf	14,f	;volatile
  1085                           
  1086                           ;main.c: 148: T2CONbits.CKPS=0b100;
  1087  0B66  080E               	movf	14,w	;volatile
  1088  0B67  398F               	andlw	-113
  1089  0B68  3840               	iorlw	64
  1090  0B69  008E               	movwf	14	;volatile
  1091                           
  1092                           ;main.c: 149: PR2=255;
  1093  0B6A  30FF               	movlw	255
  1094  0B6B  008D               	movwf	13	;volatile
  1095                           
  1096                           ;main.c: 151: RB0PPS=0x09;
  1097  0B6C  3009               	movlw	9
  1098  0B6D  017E               	movlb	62	; select bank62
  1099  0B6E  0098               	movwf	24	;volatile
  1100                           
  1101                           ;main.c: 152: RB1PPS=0x09;
  1102  0B6F  3009               	movlw	9
  1103  0B70  0099               	movwf	25	;volatile
  1104                           
  1105                           ;main.c: 155: CCP1CONbits.EN=1;
  1106  0B71  0146               	movlb	6	; select bank6
  1107  0B72  178E               	bsf	14,7	;volatile
  1108                           
  1109                           ;main.c: 156: CCP1CONbits.FMT=0;
  1110  0B73  120E               	bcf	14,4	;volatile
  1111                           
  1112                           ;main.c: 157: CCP1CONbits.MODE=0b1111;
  1113  0B74  300F               	movlw	15
  1114  0B75  048E               	iorwf	14,f	;volatile
  1115                           
  1116                           ;main.c: 158: CCPTMRS0bits.C1TSEL=0b01;
  1117  0B76  0144               	movlb	4	; select bank4
  1118  0B77  081E               	movf	30,w	;volatile
  1119  0B78  39FC               	andlw	-4
  1120  0B79  3801               	iorlw	1
  1121  0B7A  009E               	movwf	30	;volatile
  1122                           
  1123                           ;main.c: 160: RB2PPS=0x0A;
  1124  0B7B  300A               	movlw	10
  1125  0B7C  017E               	movlb	62	; select bank62
  1126  0B7D  009A               	movwf	26	;volatile
  1127                           
  1128                           ;main.c: 161: RB3PPS=0x0A;
  1129  0B7E  300A               	movlw	10
  1130  0B7F  009B               	movwf	27	;volatile
  1131                           
  1132                           ;main.c: 164: CCP2CONbits.EN=1;
  1133  0B80  0146               	movlb	6	; select bank6
  1134  0B81  1792               	bsf	18,7	;volatile
  1135                           
  1136                           ;main.c: 165: CCP2CONbits.FMT=0;
  1137  0B82  1212               	bcf	18,4	;volatile
  1138                           
  1139                           ;main.c: 166: CCP2CONbits.MODE=0b1111;
  1140  0B83  300F               	movlw	15
  1141  0B84  0492               	iorwf	18,f	;volatile
  1142                           
  1143                           ;main.c: 167: CCPTMRS0bits.C2TSEL=0b01;
  1144  0B85  0144               	movlb	4	; select bank4
  1145  0B86  081E               	movf	30,w	;volatile
  1146  0B87  39F3               	andlw	-13
  1147  0B88  3804               	iorlw	4
  1148  0B89  009E               	movwf	30	;volatile
  1149                           
  1150                           ;main.c: 170: PIR4bits.TMR1IF=0;
  1151  0B8A  014E               	movlb	14	; select bank14
  1152  0B8B  1010               	bcf	16,0	;volatile
  1153                           
  1154                           ;main.c: 171: PIE4bits.TMR1IE=1;
  1155  0B8C  141A               	bsf	26,0	;volatile
  1156                           
  1157                           ;main.c: 172: INTCONbits.GIE=1;
  1158  0B8D  178B               	bsf	11,7	;volatile
  1159                           
  1160                           ;main.c: 173: INTCONbits.PEIE=1;
  1161  0B8E  170B               	bsf	11,6	;volatile
  1162                           
  1163                           ;main.c: 174: PIE4bits.TMR1IE=1;
  1164  0B8F  141A               	bsf	26,0	;volatile
  1165                           
  1166                           ;main.c: 176: T1CONbits.CKPS=0b10;
  1167  0B90  0144               	movlb	4	; select bank4
  1168  0B91  080E               	movf	14,w	;volatile
  1169  0B92  39CF               	andlw	-49
  1170  0B93  3820               	iorlw	32
  1171  0B94  008E               	movwf	14	;volatile
  1172                           
  1173                           ;main.c: 177: T1CLKbits.CS=0b0001;
  1174  0B95  0811               	movf	17,w	;volatile
  1175  0B96  39F0               	andlw	-16
  1176  0B97  3801               	iorlw	1
  1177  0B98  0091               	movwf	17	;volatile
  1178                           
  1179                           ;main.c: 178: T1CONbits.nSYNC=1;
  1180  0B99  150E               	bsf	14,2	;volatile
  1181                           
  1182                           ;main.c: 181: TRISBbits.TRISB0=0;
  1183  0B9A  0140               	movlb	0	; select bank0
  1184  0B9B  1012               	bcf	18,0	;volatile
  1185                           
  1186                           ;main.c: 182: TRISBbits.TRISB2=0;
  1187  0B9C  1112               	bcf	18,2	;volatile
  1188                           
  1189                           ;main.c: 183: CCPR1=200;
  1190  0B9D  3000               	movlw	0
  1191  0B9E  0146               	movlb	6	; select bank6
  1192  0B9F  008D               	movwf	13	;volatile
  1193  0BA0  30C8               	movlw	200
  1194  0BA1  008C               	movwf	12	;volatile
  1195                           
  1196                           ;main.c: 184: CCPR2=200;
  1197  0BA2  3000               	movlw	0
  1198  0BA3  0091               	movwf	17	;volatile
  1199  0BA4  30C8               	movlw	200
  1200  0BA5  0090               	movwf	16	;volatile
  1201                           
  1202                           ;main.c: 185: _delay((unsigned long)((1000)*(32000000/4000.0)));
  1203  0BA6  3029               	movlw	41
  1204  0BA7  0140               	movlb	0	; select bank0
  1205  0BA8  00ED               	movwf	??_main+1
  1206  0BA9  3096               	movlw	150
  1207  0BAA  00EC               	movwf	??_main
  1208  0BAB  307F               	movlw	127
  1209  0BAC                     u1577:	
  1210  0BAC  0B89               	decfsz	9,f
  1211  0BAD  2BAC               	goto	u1577
  1212  0BAE  0BEC               	decfsz	??_main,f
  1213  0BAF  2BAC               	goto	u1577
  1214  0BB0  0BED               	decfsz	??_main+1,f
  1215  0BB1  2BAC               	goto	u1577
  1216  0BB2                     l1403:	
  1217                           ;main.c: 186: while(1){
  1218                           
  1219                           
  1220                           ;main.c: 187: geterror();
  1221  0BB2  318D  25A5  318B   	fcall	_geterror
  1222                           
  1223                           ;main.c: 188: formula();
  1224  0BB5  3180  202B  318B   	fcall	_formula
  1225                           
  1226                           ;main.c: 189: errorant=error;
  1227  0BB8  0140               	movlb	0	; select bank0
  1228  0BB9  086F               	movf	_error+1,w
  1229  0BBA  0141               	movlb	1	; select bank1
  1230  0BBB  00A7               	movwf	(_errorant+1)^(0+128)
  1231  0BBC  0140               	movlb	0	; select bank0
  1232  0BBD  086E               	movf	_error,w
  1233  0BBE  0141               	movlb	1	; select bank1
  1234  0BBF  00A6               	movwf	_errorant^(0+128)
  1235  0BC0  2BB2               	goto	l1403
  1236  0BC1                     __end_of_main:	
  1237                           ;main.c: 191: }
  1238                           ;main.c: 192: return (0);
  1239                           ;	Return value of _main is never used
  1240                           
  1241                           
  1242                           	psect	text1
  1243  0DA5                     __ptext1:	
  1244 ;; *************** function _geterror *****************
  1245 ;; Defined at:
  1246 ;;		line 37 in file "main.c"
  1247 ;; Parameters:    Size  Location     Type
  1248 ;;		None
  1249 ;; Auto vars:     Size  Location     Type
  1250 ;;		None
  1251 ;; Return value:  Size  Location     Type
  1252 ;;                  1    wreg      void 
  1253 ;; Registers used:
  1254 ;;		wreg, status,2, status,0, pclath, cstack
  1255 ;; Tracked objects:
  1256 ;;		On entry : 0/0
  1257 ;;		On exit  : 0/0
  1258 ;;		Unchanged: 0/0
  1259 ;; Data sizes:     COMMON   BANK0   BANK1   BANK2   BANK3   BANK4   BANK5   BANK6   BANK7   BANK8   BANK9  BANK10  BANK1
      +1  BANK12  BANK13  BANK14  BANK15  BANK16  BANK17  BANK18  BANK19  BANK20  BANK21  BANK22  BANK23  BANK24  BANK25  BANK2
      +6  BANK27  BANK28  BANK29  BANK30  BANK31  BANK32  BANK33  BANK34  BANK35  BANK36  BANK37  BANK38  BANK39  BANK40  BANK4
      +1  BANK42  BANK43  BANK44  BANK45  BANK46  BANK47  BANK48  BANK49  BANK50
  1260 ;;      Params:         0       0       0       0       0       0       0       0       0       0       0       0       
      +0       0       0       0       0       0       0       0       0       0       0       0       0       0       0       
      +0       0       0       0       0       0       0       0       0       0       0       0       0       0       0       
      +0       0       0       0       0       0       0       0       0       0
  1261 ;;      Locals:         0       6       0       0       0       0       0       0       0       0       0       0       
      +0       0       0       0       0       0       0       0       0       0       0       0       0       0       0       
      +0       0       0       0       0       0       0       0       0       0       0       0       0       0       0       
      +0       0       0       0       0       0       0       0       0       0
  1262 ;;      Temps:          0       2       0       0       0       0       0       0       0       0       0       0       
      +0       0       0       0       0       0       0       0       0       0       0       0       0       0       0       
      +0       0       0       0       0       0       0       0       0       0       0       0       0       0       0       
      +0       0       0       0       0       0       0       0       0       0
  1263 ;;      Totals:         0       8       0       0       0       0       0       0       0       0       0       0       
      +0       0       0       0       0       0       0       0       0       0       0       0       0       0       0       
      +0       0       0       0       0       0       0       0       0       0       0       0       0       0       0       
      +0       0       0       0       0       0       0       0       0       0
  1264 ;;Total ram usage:        8 bytes
  1265 ;; Hardware stack levels used:    1
  1266 ;; Hardware stack levels required when called:    3
  1267 ;; This function calls:
  1268 ;;		___awtoft
  1269 ;;		___ftadd
  1270 ;;		___ftdiv
  1271 ;;		___ftmul
  1272 ;;		___fttol
  1273 ;;		___lwtoft
  1274 ;; This function is called by:
  1275 ;;		_main
  1276 ;; This function uses a non-reentrant model
  1277 ;;
  1278                           
  1279                           
  1280                           ;psect for function _geterror
  1281  0DA5                     _geterror:	
  1282                           
  1283                           ;main.c: 39: TMR1=0;
  1284                           
  1285                           ;incstack = 0
  1286                           ; Regs used in _geterror: [wreg+status,2+status,0+pclath+cstack]
  1287  0DA5  0144               	movlb	4	; select bank4
  1288  0DA6  018C               	clrf	12	;volatile
  1289  0DA7  018D               	clrf	13	;volatile
  1290                           
  1291                           ;main.c: 40: LATAbits.LATA0=1;
  1292  0DA8  0140               	movlb	0	; select bank0
  1293  0DA9  1416               	bsf	22,0	;volatile
  1294                           
  1295                           ;main.c: 41: _delay((unsigned long)((10)*(32000000/4000000.0)));
  1296  0DAA  301A               	movlw	26
  1297  0DAB                     u1587:	
  1298  0DAB  0B89               	decfsz	9,f
  1299  0DAC  2DAB               	goto	u1587
  1300  0DAD  3200               	nop2
  1301                           
  1302                           ;main.c: 42: LATAbits.LATA0=0;
  1303  0DAE  0140               	movlb	0	; select bank0
  1304  0DAF  1016               	bcf	22,0	;volatile
  1305  0DB0                     l87:	
  1306                           ;main.c: 43: while(PORTAbits.RA1==0);
  1307                           
  1308  0DB0  1C8C               	btfss	12,1	;volatile
  1309  0DB1  2DB0               	goto	l87
  1310                           
  1311                           ;main.c: 44: T1CONbits.ON=1;
  1312  0DB2  0144               	movlb	4	; select bank4
  1313  0DB3  140E               	bsf	14,0	;volatile
  1314  0DB4                     l90:	
  1315                           ;main.c: 45: while(PORTAbits.RA1);
  1316                           
  1317  0DB4  0140               	movlb	0	; select bank0
  1318  0DB5  188C               	btfsc	12,1	;volatile
  1319  0DB6  2DB4               	goto	l90
  1320                           
  1321                           ;main.c: 46: T1CONbits.ON=0;
  1322  0DB7  0144               	movlb	4	; select bank4
  1323  0DB8  100E               	bcf	14,0	;volatile
  1324                           
  1325                           ;main.c: 47: tiempo1=((((double)TMR1))/2000000);
  1326  0DB9  3024               	movlw	36
  1327  0DBA  0140               	movlb	0	; select bank0
  1328  0DBB  00B9               	movwf	___ftdiv@f2
  1329  0DBC  30F4               	movlw	244
  1330  0DBD  00BA               	movwf	___ftdiv@f2+1
  1331  0DBE  3049               	movlw	73
  1332  0DBF  00BB               	movwf	___ftdiv@f2+2
  1333  0DC0  0144               	movlb	4	; select bank4
  1334  0DC1  080D               	movf	13,w	;volatile
  1335  0DC2  00FA               	movwf	___lwtoft@c+1
  1336  0DC3  080C               	movf	12,w	;volatile
  1337  0DC4  00F9               	movwf	___lwtoft@c
  1338  0DC5  3187  27CC  318D   	fcall	___lwtoft
  1339  0DC8  0879               	movf	?___lwtoft,w
  1340  0DC9  0140               	movlb	0	; select bank0
  1341  0DCA  00BC               	movwf	___ftdiv@f1
  1342  0DCB  087A               	movf	?___lwtoft+1,w
  1343  0DCC  00BD               	movwf	___ftdiv@f1+1
  1344  0DCD  087B               	movf	?___lwtoft+2,w
  1345  0DCE  00BE               	movwf	___ftdiv@f1+2
  1346  0DCF  318C  2448  318D   	fcall	___ftdiv
  1347  0DD2  0140               	movlb	0	; select bank0
  1348  0DD3  0839               	movf	?___ftdiv,w
  1349  0DD4  0141               	movlb	1	; select bank1
  1350  0DD5  00B1               	movwf	_tiempo1^(0+128)
  1351  0DD6  0140               	movlb	0	; select bank0
  1352  0DD7  083A               	movf	?___ftdiv+1,w
  1353  0DD8  0141               	movlb	1	; select bank1
  1354  0DD9  00B2               	movwf	(_tiempo1+1)^(0+128)
  1355  0DDA  0140               	movlb	0	; select bank0
  1356  0DDB  083B               	movf	?___ftdiv+2,w
  1357  0DDC  0141               	movlb	1	; select bank1
  1358  0DDD  00B3               	movwf	(_tiempo1+2)^(0+128)
  1359                           
  1360                           ;main.c: 48: distancia1=(int)((34000*tiempo1)/2)-calibracion;
  1361  0DDE  093F               	comf	_calibracion^(0+128),w
  1362  0DDF  0140               	movlb	0	; select bank0
  1363  0DE0  00DD               	movwf	??_geterror
  1364  0DE1  0141               	movlb	1	; select bank1
  1365  0DE2  0940               	comf	(_calibracion+1)^(0+128),w
  1366  0DE3  0140               	movlb	0	; select bank0
  1367  0DE4  00DE               	movwf	??_geterror+1
  1368  0DE5  0ADD               	incf	??_geterror,f
  1369  0DE6  1903               	skipnz
  1370  0DE7  0ADE               	incf	??_geterror+1,f
  1371  0DE8  0141               	movlb	1	; select bank1
  1372  0DE9  0831               	movf	_tiempo1^(0+128),w
  1373  0DEA  0140               	movlb	0	; select bank0
  1374  0DEB  00A3               	movwf	___ftmul@f2
  1375  0DEC  0141               	movlb	1	; select bank1
  1376  0DED  0832               	movf	(_tiempo1+1)^(0+128),w
  1377  0DEE  0140               	movlb	0	; select bank0
  1378  0DEF  00A4               	movwf	___ftmul@f2+1
  1379  0DF0  0141               	movlb	1	; select bank1
  1380  0DF1  0833               	movf	(_tiempo1+2)^(0+128),w
  1381  0DF2  0140               	movlb	0	; select bank0
  1382  0DF3  00A5               	movwf	___ftmul@f2+2
  1383  0DF4  30D0               	movlw	208
  1384  0DF5  00A0               	movwf	___ftmul@f1
  1385  0DF6  3004               	movlw	4
  1386  0DF7  00A1               	movwf	___ftmul@f1+1
  1387  0DF8  3047               	movlw	71
  1388  0DF9  00A2               	movwf	___ftmul@f1+2
  1389  0DFA  318C  24F1  318D   	fcall	___ftmul
  1390  0DFD  0140               	movlb	0	; select bank0
  1391  0DFE  0820               	movf	?___ftmul,w
  1392  0DFF  00BC               	movwf	___ftdiv@f1
  1393  0E00  0821               	movf	?___ftmul+1,w
  1394  0E01  00BD               	movwf	___ftdiv@f1+1
  1395  0E02  0822               	movf	?___ftmul+2,w
  1396  0E03  00BE               	movwf	___ftdiv@f1+2
  1397  0E04  3000               	movlw	0
  1398  0E05  00B9               	movwf	___ftdiv@f2
  1399  0E06  3000               	movlw	0
  1400  0E07  00BA               	movwf	___ftdiv@f2+1
  1401  0E08  3040               	movlw	64
  1402  0E09  00BB               	movwf	___ftdiv@f2+2
  1403  0E0A  318C  2448  318D   	fcall	___ftdiv
  1404  0E0D  0140               	movlb	0	; select bank0
  1405  0E0E  0839               	movf	?___ftdiv,w
  1406  0E0F  00C9               	movwf	___fttol@f1
  1407  0E10  083A               	movf	?___ftdiv+1,w
  1408  0E11  00CA               	movwf	___fttol@f1+1
  1409  0E12  083B               	movf	?___ftdiv+2,w
  1410  0E13  00CB               	movwf	___fttol@f1+2
  1411  0E14  318B  23C1  318D   	fcall	___fttol
  1412  0E17  0140               	movlb	0	; select bank0
  1413  0E18  085D               	movf	??_geterror,w
  1414  0E19  0749               	addwf	?___fttol,w
  1415  0E1A  00D7               	movwf	___awtoft@c
  1416  0E1B  085E               	movf	??_geterror+1,w
  1417  0E1C  3D4A               	addwfc	?___fttol+1,w
  1418  0E1D  00D8               	movwf	___awtoft@c+1
  1419  0E1E  3187  27AA  318D   	fcall	___awtoft
  1420  0E21  0140               	movlb	0	; select bank0
  1421  0E22  0857               	movf	?___awtoft,w
  1422  0E23  0141               	movlb	1	; select bank1
  1423  0E24  00A8               	movwf	_distancia1^(0+128)
  1424  0E25  0140               	movlb	0	; select bank0
  1425  0E26  0858               	movf	?___awtoft+1,w
  1426  0E27  0141               	movlb	1	; select bank1
  1427  0E28  00A9               	movwf	(_distancia1+1)^(0+128)
  1428  0E29  0140               	movlb	0	; select bank0
  1429  0E2A  0859               	movf	?___awtoft+2,w
  1430  0E2B  0141               	movlb	1	; select bank1
  1431  0E2C  00AA               	movwf	(_distancia1+2)^(0+128)
  1432                           
  1433                           ;main.c: 50: TMR1=0;
  1434  0E2D  0144               	movlb	4	; select bank4
  1435  0E2E  018C               	clrf	12	;volatile
  1436  0E2F  018D               	clrf	13	;volatile
  1437                           
  1438                           ;main.c: 51: LATAbits.LATA2=1;
  1439  0E30  0140               	movlb	0	; select bank0
  1440  0E31  1516               	bsf	22,2	;volatile
  1441                           
  1442                           ;main.c: 52: _delay((unsigned long)((10)*(32000000/4000000.0)));
  1443  0E32  301A               	movlw	26
  1444  0E33                     u1597:	
  1445  0E33  0B89               	decfsz	9,f
  1446  0E34  2E33               	goto	u1597
  1447  0E35  3200               	nop2
  1448                           
  1449                           ;main.c: 53: LATAbits.LATA2=0;
  1450  0E36  0140               	movlb	0	; select bank0
  1451  0E37  1116               	bcf	22,2	;volatile
  1452  0E38                     l93:	
  1453                           ;main.c: 54: while(PORTAbits.RA3==0);
  1454                           
  1455  0E38  1D8C               	btfss	12,3	;volatile
  1456  0E39  2E38               	goto	l93
  1457                           
  1458                           ;main.c: 55: T1CONbits.ON=1;
  1459  0E3A  0144               	movlb	4	; select bank4
  1460  0E3B  140E               	bsf	14,0	;volatile
  1461  0E3C                     l96:	
  1462                           ;main.c: 56: while(PORTAbits.RA3);
  1463                           
  1464  0E3C  0140               	movlb	0	; select bank0
  1465  0E3D  198C               	btfsc	12,3	;volatile
  1466  0E3E  2E3C               	goto	l96
  1467                           
  1468                           ;main.c: 57: T1CONbits.ON=0;
  1469  0E3F  0144               	movlb	4	; select bank4
  1470  0E40  100E               	bcf	14,0	;volatile
  1471                           
  1472                           ;main.c: 58: tiempo2=((((double)TMR1))/2000000);
  1473  0E41  3024               	movlw	36
  1474  0E42  0140               	movlb	0	; select bank0
  1475  0E43  00B9               	movwf	___ftdiv@f2
  1476  0E44  30F4               	movlw	244
  1477  0E45  00BA               	movwf	___ftdiv@f2+1
  1478  0E46  3049               	movlw	73
  1479  0E47  00BB               	movwf	___ftdiv@f2+2
  1480  0E48  0144               	movlb	4	; select bank4
  1481  0E49  080D               	movf	13,w	;volatile
  1482  0E4A  00FA               	movwf	___lwtoft@c+1
  1483  0E4B  080C               	movf	12,w	;volatile
  1484  0E4C  00F9               	movwf	___lwtoft@c
  1485  0E4D  3187  27CC  318D   	fcall	___lwtoft
  1486  0E50  0879               	movf	?___lwtoft,w
  1487  0E51  0140               	movlb	0	; select bank0
  1488  0E52  00BC               	movwf	___ftdiv@f1
  1489  0E53  087A               	movf	?___lwtoft+1,w
  1490  0E54  00BD               	movwf	___ftdiv@f1+1
  1491  0E55  087B               	movf	?___lwtoft+2,w
  1492  0E56  00BE               	movwf	___ftdiv@f1+2
  1493  0E57  318C  2448  318D   	fcall	___ftdiv
  1494  0E5A  0140               	movlb	0	; select bank0
  1495  0E5B  0839               	movf	?___ftdiv,w
  1496  0E5C  0141               	movlb	1	; select bank1
  1497  0E5D  00AE               	movwf	_tiempo2^(0+128)
  1498  0E5E  0140               	movlb	0	; select bank0
  1499  0E5F  083A               	movf	?___ftdiv+1,w
  1500  0E60  0141               	movlb	1	; select bank1
  1501  0E61  00AF               	movwf	(_tiempo2+1)^(0+128)
  1502  0E62  0140               	movlb	0	; select bank0
  1503  0E63  083B               	movf	?___ftdiv+2,w
  1504  0E64  0141               	movlb	1	; select bank1
  1505  0E65  00B0               	movwf	(_tiempo2+2)^(0+128)
  1506                           
  1507                           ;main.c: 59: distancia2=(int)((34000*tiempo2)/2)-calibracion;
  1508  0E66  093F               	comf	_calibracion^(0+128),w
  1509  0E67  0140               	movlb	0	; select bank0
  1510  0E68  00DD               	movwf	??_geterror
  1511  0E69  0141               	movlb	1	; select bank1
  1512  0E6A  0940               	comf	(_calibracion+1)^(0+128),w
  1513  0E6B  0140               	movlb	0	; select bank0
  1514  0E6C  00DE               	movwf	??_geterror+1
  1515  0E6D  0ADD               	incf	??_geterror,f
  1516  0E6E  1903               	skipnz
  1517  0E6F  0ADE               	incf	??_geterror+1,f
  1518  0E70  0141               	movlb	1	; select bank1
  1519  0E71  082E               	movf	_tiempo2^(0+128),w
  1520  0E72  0140               	movlb	0	; select bank0
  1521  0E73  00A3               	movwf	___ftmul@f2
  1522  0E74  0141               	movlb	1	; select bank1
  1523  0E75  082F               	movf	(_tiempo2+1)^(0+128),w
  1524  0E76  0140               	movlb	0	; select bank0
  1525  0E77  00A4               	movwf	___ftmul@f2+1
  1526  0E78  0141               	movlb	1	; select bank1
  1527  0E79  0830               	movf	(_tiempo2+2)^(0+128),w
  1528  0E7A  0140               	movlb	0	; select bank0
  1529  0E7B  00A5               	movwf	___ftmul@f2+2
  1530  0E7C  30D0               	movlw	208
  1531  0E7D  00A0               	movwf	___ftmul@f1
  1532  0E7E  3004               	movlw	4
  1533  0E7F  00A1               	movwf	___ftmul@f1+1
  1534  0E80  3047               	movlw	71
  1535  0E81  00A2               	movwf	___ftmul@f1+2
  1536  0E82  318C  24F1  318D   	fcall	___ftmul
  1537  0E85  0140               	movlb	0	; select bank0
  1538  0E86  0820               	movf	?___ftmul,w
  1539  0E87  00BC               	movwf	___ftdiv@f1
  1540  0E88  0821               	movf	?___ftmul+1,w
  1541  0E89  00BD               	movwf	___ftdiv@f1+1
  1542  0E8A  0822               	movf	?___ftmul+2,w
  1543  0E8B  00BE               	movwf	___ftdiv@f1+2
  1544  0E8C  3000               	movlw	0
  1545  0E8D  00B9               	movwf	___ftdiv@f2
  1546  0E8E  3000               	movlw	0
  1547  0E8F  00BA               	movwf	___ftdiv@f2+1
  1548  0E90  3040               	movlw	64
  1549  0E91  00BB               	movwf	___ftdiv@f2+2
  1550  0E92  318C  2448  318D   	fcall	___ftdiv
  1551  0E95  0140               	movlb	0	; select bank0
  1552  0E96  0839               	movf	?___ftdiv,w
  1553  0E97  00C9               	movwf	___fttol@f1
  1554  0E98  083A               	movf	?___ftdiv+1,w
  1555  0E99  00CA               	movwf	___fttol@f1+1
  1556  0E9A  083B               	movf	?___ftdiv+2,w
  1557  0E9B  00CB               	movwf	___fttol@f1+2
  1558  0E9C  318B  23C1  318D   	fcall	___fttol
  1559  0E9F  0140               	movlb	0	; select bank0
  1560  0EA0  085D               	movf	??_geterror,w
  1561  0EA1  0749               	addwf	?___fttol,w
  1562  0EA2  00D7               	movwf	___awtoft@c
  1563  0EA3  085E               	movf	??_geterror+1,w
  1564  0EA4  3D4A               	addwfc	?___fttol+1,w
  1565  0EA5  00D8               	movwf	___awtoft@c+1
  1566  0EA6  3187  27AA  318D   	fcall	___awtoft
  1567  0EA9  0140               	movlb	0	; select bank0
  1568  0EAA  0857               	movf	?___awtoft,w
  1569  0EAB  0141               	movlb	1	; select bank1
  1570  0EAC  00A3               	movwf	_distancia2^(0+128)
  1571  0EAD  0140               	movlb	0	; select bank0
  1572  0EAE  0858               	movf	?___awtoft+1,w
  1573  0EAF  0141               	movlb	1	; select bank1
  1574  0EB0  00A4               	movwf	(_distancia2+1)^(0+128)
  1575  0EB1  0140               	movlb	0	; select bank0
  1576  0EB2  0859               	movf	?___awtoft+2,w
  1577  0EB3  0141               	movlb	1	; select bank1
  1578  0EB4  00A5               	movwf	(_distancia2+2)^(0+128)
  1579                           
  1580                           ;main.c: 61: TMR1=0;
  1581  0EB5  0144               	movlb	4	; select bank4
  1582  0EB6  018C               	clrf	12	;volatile
  1583  0EB7  018D               	clrf	13	;volatile
  1584                           
  1585                           ;main.c: 62: LATAbits.LATA4=1;
  1586  0EB8  0140               	movlb	0	; select bank0
  1587  0EB9  1616               	bsf	22,4	;volatile
  1588                           
  1589                           ;main.c: 63: _delay((unsigned long)((10)*(32000000/4000000.0)));
  1590  0EBA  301A               	movlw	26
  1591  0EBB                     u1607:	
  1592  0EBB  0B89               	decfsz	9,f
  1593  0EBC  2EBB               	goto	u1607
  1594  0EBD  3200               	nop2
  1595                           
  1596                           ;main.c: 64: LATAbits.LATA4=0;
  1597  0EBE  0140               	movlb	0	; select bank0
  1598  0EBF  1216               	bcf	22,4	;volatile
  1599  0EC0                     l99:	
  1600                           ;main.c: 65: while(PORTAbits.RA5==0);
  1601                           
  1602  0EC0  1E8C               	btfss	12,5	;volatile
  1603  0EC1  2EC0               	goto	l99
  1604                           
  1605                           ;main.c: 66: T1CONbits.ON=1;
  1606  0EC2  0144               	movlb	4	; select bank4
  1607  0EC3  140E               	bsf	14,0	;volatile
  1608  0EC4                     l102:	
  1609                           ;main.c: 67: while(PORTAbits.RA5);
  1610                           
  1611  0EC4  0140               	movlb	0	; select bank0
  1612  0EC5  1A8C               	btfsc	12,5	;volatile
  1613  0EC6  2EC4               	goto	l102
  1614                           
  1615                           ;main.c: 68: T1CONbits.ON=0;
  1616  0EC7  0144               	movlb	4	; select bank4
  1617  0EC8  100E               	bcf	14,0	;volatile
  1618                           
  1619                           ;main.c: 69: tiempo3=((((double)TMR1))/2000000);
  1620  0EC9  3024               	movlw	36
  1621  0ECA  0140               	movlb	0	; select bank0
  1622  0ECB  00B9               	movwf	___ftdiv@f2
  1623  0ECC  30F4               	movlw	244
  1624  0ECD  00BA               	movwf	___ftdiv@f2+1
  1625  0ECE  3049               	movlw	73
  1626  0ECF  00BB               	movwf	___ftdiv@f2+2
  1627  0ED0  0144               	movlb	4	; select bank4
  1628  0ED1  080D               	movf	13,w	;volatile
  1629  0ED2  00FA               	movwf	___lwtoft@c+1
  1630  0ED3  080C               	movf	12,w	;volatile
  1631  0ED4  00F9               	movwf	___lwtoft@c
  1632  0ED5  3187  27CC  318D   	fcall	___lwtoft
  1633  0ED8  0879               	movf	?___lwtoft,w
  1634  0ED9  0140               	movlb	0	; select bank0
  1635  0EDA  00BC               	movwf	___ftdiv@f1
  1636  0EDB  087A               	movf	?___lwtoft+1,w
  1637  0EDC  00BD               	movwf	___ftdiv@f1+1
  1638  0EDD  087B               	movf	?___lwtoft+2,w
  1639  0EDE  00BE               	movwf	___ftdiv@f1+2
  1640  0EDF  318C  2448  318D   	fcall	___ftdiv
  1641  0EE2  0140               	movlb	0	; select bank0
  1642  0EE3  0839               	movf	?___ftdiv,w
  1643  0EE4  0141               	movlb	1	; select bank1
  1644  0EE5  00AB               	movwf	_tiempo3^(0+128)
  1645  0EE6  0140               	movlb	0	; select bank0
  1646  0EE7  083A               	movf	?___ftdiv+1,w
  1647  0EE8  0141               	movlb	1	; select bank1
  1648  0EE9  00AC               	movwf	(_tiempo3+1)^(0+128)
  1649  0EEA  0140               	movlb	0	; select bank0
  1650  0EEB  083B               	movf	?___ftdiv+2,w
  1651  0EEC  0141               	movlb	1	; select bank1
  1652  0EED  00AD               	movwf	(_tiempo3+2)^(0+128)
  1653                           
  1654                           ;main.c: 70: distancia3=(int)((34000*tiempo3)/2)-calibracion;
  1655  0EEE  093F               	comf	_calibracion^(0+128),w
  1656  0EEF  0140               	movlb	0	; select bank0
  1657  0EF0  00DD               	movwf	??_geterror
  1658  0EF1  0141               	movlb	1	; select bank1
  1659  0EF2  0940               	comf	(_calibracion+1)^(0+128),w
  1660  0EF3  0140               	movlb	0	; select bank0
  1661  0EF4  00DE               	movwf	??_geterror+1
  1662  0EF5  0ADD               	incf	??_geterror,f
  1663  0EF6  1903               	skipnz
  1664  0EF7  0ADE               	incf	??_geterror+1,f
  1665  0EF8  0141               	movlb	1	; select bank1
  1666  0EF9  082B               	movf	_tiempo3^(0+128),w
  1667  0EFA  0140               	movlb	0	; select bank0
  1668  0EFB  00A3               	movwf	___ftmul@f2
  1669  0EFC  0141               	movlb	1	; select bank1
  1670  0EFD  082C               	movf	(_tiempo3+1)^(0+128),w
  1671  0EFE  0140               	movlb	0	; select bank0
  1672  0EFF  00A4               	movwf	___ftmul@f2+1
  1673  0F00  0141               	movlb	1	; select bank1
  1674  0F01  082D               	movf	(_tiempo3+2)^(0+128),w
  1675  0F02  0140               	movlb	0	; select bank0
  1676  0F03  00A5               	movwf	___ftmul@f2+2
  1677  0F04  30D0               	movlw	208
  1678  0F05  00A0               	movwf	___ftmul@f1
  1679  0F06  3004               	movlw	4
  1680  0F07  00A1               	movwf	___ftmul@f1+1
  1681  0F08  3047               	movlw	71
  1682  0F09  00A2               	movwf	___ftmul@f1+2
  1683  0F0A  318C  24F1  318D   	fcall	___ftmul
  1684  0F0D  0140               	movlb	0	; select bank0
  1685  0F0E  0820               	movf	?___ftmul,w
  1686  0F0F  00BC               	movwf	___ftdiv@f1
  1687  0F10  0821               	movf	?___ftmul+1,w
  1688  0F11  00BD               	movwf	___ftdiv@f1+1
  1689  0F12  0822               	movf	?___ftmul+2,w
  1690  0F13  00BE               	movwf	___ftdiv@f1+2
  1691  0F14  3000               	movlw	0
  1692  0F15  00B9               	movwf	___ftdiv@f2
  1693  0F16  3000               	movlw	0
  1694  0F17  00BA               	movwf	___ftdiv@f2+1
  1695  0F18  3040               	movlw	64
  1696  0F19  00BB               	movwf	___ftdiv@f2+2
  1697  0F1A  318C  2448  318D   	fcall	___ftdiv
  1698  0F1D  0140               	movlb	0	; select bank0
  1699  0F1E  0839               	movf	?___ftdiv,w
  1700  0F1F  00C9               	movwf	___fttol@f1
  1701  0F20  083A               	movf	?___ftdiv+1,w
  1702  0F21  00CA               	movwf	___fttol@f1+1
  1703  0F22  083B               	movf	?___ftdiv+2,w
  1704  0F23  00CB               	movwf	___fttol@f1+2
  1705  0F24  318B  23C1  318D   	fcall	___fttol
  1706  0F27  0140               	movlb	0	; select bank0
  1707  0F28  085D               	movf	??_geterror,w
  1708  0F29  0749               	addwf	?___fttol,w
  1709  0F2A  00D7               	movwf	___awtoft@c
  1710  0F2B  085E               	movf	??_geterror+1,w
  1711  0F2C  3D4A               	addwfc	?___fttol+1,w
  1712  0F2D  00D8               	movwf	___awtoft@c+1
  1713  0F2E  3187  27AA  318D   	fcall	___awtoft
  1714  0F31  0140               	movlb	0	; select bank0
  1715  0F32  0857               	movf	?___awtoft,w
  1716  0F33  0141               	movlb	1	; select bank1
  1717  0F34  00A0               	movwf	_distancia3^(0+128)
  1718  0F35  0140               	movlb	0	; select bank0
  1719  0F36  0858               	movf	?___awtoft+1,w
  1720  0F37  0141               	movlb	1	; select bank1
  1721  0F38  00A1               	movwf	(_distancia3+1)^(0+128)
  1722  0F39  0140               	movlb	0	; select bank0
  1723  0F3A  0859               	movf	?___awtoft+2,w
  1724  0F3B  0141               	movlb	1	; select bank1
  1725  0F3C  00A2               	movwf	(_distancia3+2)^(0+128)
  1726                           
  1727                           ;main.c: 73: error=(0*distancia1+1000*distancia2+2000*distancia3)/(distancia1+distancia2
      +                          +distancia3);
  1728  0F3D  0828               	movf	_distancia1^(0+128),w
  1729  0F3E  0140               	movlb	0	; select bank0
  1730  0F3F  00A3               	movwf	___ftmul@f2
  1731  0F40  0141               	movlb	1	; select bank1
  1732  0F41  0829               	movf	(_distancia1+1)^(0+128),w
  1733  0F42  0140               	movlb	0	; select bank0
  1734  0F43  00A4               	movwf	___ftmul@f2+1
  1735  0F44  0141               	movlb	1	; select bank1
  1736  0F45  082A               	movf	(_distancia1+2)^(0+128),w
  1737  0F46  0140               	movlb	0	; select bank0
  1738  0F47  00A5               	movwf	___ftmul@f2+2
  1739  0F48  3000               	movlw	0
  1740  0F49  00A0               	movwf	___ftmul@f1
  1741  0F4A  3000               	movlw	0
  1742  0F4B  00A1               	movwf	___ftmul@f1+1
  1743  0F4C  3000               	movlw	0
  1744  0F4D  00A2               	movwf	___ftmul@f1+2
  1745  0F4E  318C  24F1  318D   	fcall	___ftmul
  1746  0F51  0140               	movlb	0	; select bank0
  1747  0F52  0820               	movf	?___ftmul,w
  1748  0F53  00AF               	movwf	___ftadd@f2
  1749  0F54  0821               	movf	?___ftmul+1,w
  1750  0F55  00B0               	movwf	___ftadd@f2+1
  1751  0F56  0822               	movf	?___ftmul+2,w
  1752  0F57  00B1               	movwf	___ftadd@f2+2
  1753  0F58  0141               	movlb	1	; select bank1
  1754  0F59  0823               	movf	_distancia2^(0+128),w
  1755  0F5A  0140               	movlb	0	; select bank0
  1756  0F5B  00A3               	movwf	___ftmul@f2
  1757  0F5C  0141               	movlb	1	; select bank1
  1758  0F5D  0824               	movf	(_distancia2+1)^(0+128),w
  1759  0F5E  0140               	movlb	0	; select bank0
  1760  0F5F  00A4               	movwf	___ftmul@f2+1
  1761  0F60  0141               	movlb	1	; select bank1
  1762  0F61  0825               	movf	(_distancia2+2)^(0+128),w
  1763  0F62  0140               	movlb	0	; select bank0
  1764  0F63  00A5               	movwf	___ftmul@f2+2
  1765  0F64  3000               	movlw	0
  1766  0F65  00A0               	movwf	___ftmul@f1
  1767  0F66  307A               	movlw	122
  1768  0F67  00A1               	movwf	___ftmul@f1+1
  1769  0F68  3044               	movlw	68
  1770  0F69  00A2               	movwf	___ftmul@f1+2
  1771  0F6A  318C  24F1  318D   	fcall	___ftmul
  1772  0F6D  0140               	movlb	0	; select bank0
  1773  0F6E  0820               	movf	?___ftmul,w
  1774  0F6F  00AC               	movwf	___ftadd@f1
  1775  0F70  0821               	movf	?___ftmul+1,w
  1776  0F71  00AD               	movwf	___ftadd@f1+1
  1777  0F72  0822               	movf	?___ftmul+2,w
  1778  0F73  00AE               	movwf	___ftadd@f1+2
  1779  0F74  3186  26B4  318D   	fcall	___ftadd
  1780  0F77  0140               	movlb	0	; select bank0
  1781  0F78  082C               	movf	?___ftadd,w
  1782  0F79  00DF               	movwf	_geterror$1012
  1783  0F7A  082D               	movf	?___ftadd+1,w
  1784  0F7B  00E0               	movwf	_geterror$1012+1
  1785  0F7C  082E               	movf	?___ftadd+2,w
  1786  0F7D  00E1               	movwf	_geterror$1012+2
  1787                           
  1788                           ;main.c: 73: error=(0*distancia1+1000*distancia2+2000*distancia3)/(distancia1+distancia2
      +                          +distancia3);
  1789  0F7E  0141               	movlb	1	; select bank1
  1790  0F7F  0828               	movf	_distancia1^(0+128),w
  1791  0F80  0140               	movlb	0	; select bank0
  1792  0F81  00AF               	movwf	___ftadd@f2
  1793  0F82  0141               	movlb	1	; select bank1
  1794  0F83  0829               	movf	(_distancia1+1)^(0+128),w
  1795  0F84  0140               	movlb	0	; select bank0
  1796  0F85  00B0               	movwf	___ftadd@f2+1
  1797  0F86  0141               	movlb	1	; select bank1
  1798  0F87  082A               	movf	(_distancia1+2)^(0+128),w
  1799  0F88  0140               	movlb	0	; select bank0
  1800  0F89  00B1               	movwf	___ftadd@f2+2
  1801  0F8A  0141               	movlb	1	; select bank1
  1802  0F8B  0823               	movf	_distancia2^(0+128),w
  1803  0F8C  0140               	movlb	0	; select bank0
  1804  0F8D  00AC               	movwf	___ftadd@f1
  1805  0F8E  0141               	movlb	1	; select bank1
  1806  0F8F  0824               	movf	(_distancia2+1)^(0+128),w
  1807  0F90  0140               	movlb	0	; select bank0
  1808  0F91  00AD               	movwf	___ftadd@f1+1
  1809  0F92  0141               	movlb	1	; select bank1
  1810  0F93  0825               	movf	(_distancia2+2)^(0+128),w
  1811  0F94  0140               	movlb	0	; select bank0
  1812  0F95  00AE               	movwf	___ftadd@f1+2
  1813  0F96  3186  26B4  318D   	fcall	___ftadd
  1814  0F99  0140               	movlb	0	; select bank0
  1815  0F9A  082C               	movf	?___ftadd,w
  1816  0F9B  00E2               	movwf	_geterror$1013
  1817  0F9C  082D               	movf	?___ftadd+1,w
  1818  0F9D  00E3               	movwf	_geterror$1013+1
  1819  0F9E  082E               	movf	?___ftadd+2,w
  1820  0F9F  00E4               	movwf	_geterror$1013+2
  1821                           
  1822                           ;main.c: 73: error=(0*distancia1+1000*distancia2+2000*distancia3)/(distancia1+distancia2
      +                          +distancia3);
  1823  0FA0  085F               	movf	_geterror$1012,w
  1824  0FA1  00AF               	movwf	___ftadd@f2
  1825  0FA2  0860               	movf	_geterror$1012+1,w
  1826  0FA3  00B0               	movwf	___ftadd@f2+1
  1827  0FA4  0861               	movf	_geterror$1012+2,w
  1828  0FA5  00B1               	movwf	___ftadd@f2+2
  1829  0FA6  0141               	movlb	1	; select bank1
  1830  0FA7  0820               	movf	_distancia3^(0+128),w
  1831  0FA8  0140               	movlb	0	; select bank0
  1832  0FA9  00A3               	movwf	___ftmul@f2
  1833  0FAA  0141               	movlb	1	; select bank1
  1834  0FAB  0821               	movf	(_distancia3+1)^(0+128),w
  1835  0FAC  0140               	movlb	0	; select bank0
  1836  0FAD  00A4               	movwf	___ftmul@f2+1
  1837  0FAE  0141               	movlb	1	; select bank1
  1838  0FAF  0822               	movf	(_distancia3+2)^(0+128),w
  1839  0FB0  0140               	movlb	0	; select bank0
  1840  0FB1  00A5               	movwf	___ftmul@f2+2
  1841  0FB2  3000               	movlw	0
  1842  0FB3  00A0               	movwf	___ftmul@f1
  1843  0FB4  30FA               	movlw	250
  1844  0FB5  00A1               	movwf	___ftmul@f1+1
  1845  0FB6  3044               	movlw	68
  1846  0FB7  00A2               	movwf	___ftmul@f1+2
  1847  0FB8  318C  24F1  318D   	fcall	___ftmul
  1848  0FBB  0140               	movlb	0	; select bank0
  1849  0FBC  0820               	movf	?___ftmul,w
  1850  0FBD  00AC               	movwf	___ftadd@f1
  1851  0FBE  0821               	movf	?___ftmul+1,w
  1852  0FBF  00AD               	movwf	___ftadd@f1+1
  1853  0FC0  0822               	movf	?___ftmul+2,w
  1854  0FC1  00AE               	movwf	___ftadd@f1+2
  1855  0FC2  3186  26B4  318D   	fcall	___ftadd
  1856  0FC5  0140               	movlb	0	; select bank0
  1857  0FC6  082C               	movf	?___ftadd,w
  1858  0FC7  00BC               	movwf	___ftdiv@f1
  1859  0FC8  082D               	movf	?___ftadd+1,w
  1860  0FC9  00BD               	movwf	___ftdiv@f1+1
  1861  0FCA  082E               	movf	?___ftadd+2,w
  1862  0FCB  00BE               	movwf	___ftdiv@f1+2
  1863  0FCC  0862               	movf	_geterror$1013,w
  1864  0FCD  00AF               	movwf	___ftadd@f2
  1865  0FCE  0863               	movf	_geterror$1013+1,w
  1866  0FCF  00B0               	movwf	___ftadd@f2+1
  1867  0FD0  0864               	movf	_geterror$1013+2,w
  1868  0FD1  00B1               	movwf	___ftadd@f2+2
  1869  0FD2  0141               	movlb	1	; select bank1
  1870  0FD3  0820               	movf	_distancia3^(0+128),w
  1871  0FD4  0140               	movlb	0	; select bank0
  1872  0FD5  00AC               	movwf	___ftadd@f1
  1873  0FD6  0141               	movlb	1	; select bank1
  1874  0FD7  0821               	movf	(_distancia3+1)^(0+128),w
  1875  0FD8  0140               	movlb	0	; select bank0
  1876  0FD9  00AD               	movwf	___ftadd@f1+1
  1877  0FDA  0141               	movlb	1	; select bank1
  1878  0FDB  0822               	movf	(_distancia3+2)^(0+128),w
  1879  0FDC  0140               	movlb	0	; select bank0
  1880  0FDD  00AE               	movwf	___ftadd@f1+2
  1881  0FDE  3186  26B4  318D   	fcall	___ftadd
  1882  0FE1  0140               	movlb	0	; select bank0
  1883  0FE2  082C               	movf	?___ftadd,w
  1884  0FE3  00B9               	movwf	___ftdiv@f2
  1885  0FE4  082D               	movf	?___ftadd+1,w
  1886  0FE5  00BA               	movwf	___ftdiv@f2+1
  1887  0FE6  082E               	movf	?___ftadd+2,w
  1888  0FE7  00BB               	movwf	___ftdiv@f2+2
  1889  0FE8  318C  2448  318D   	fcall	___ftdiv
  1890  0FEB  0140               	movlb	0	; select bank0
  1891  0FEC  0839               	movf	?___ftdiv,w
  1892  0FED  00C9               	movwf	___fttol@f1
  1893  0FEE  083A               	movf	?___ftdiv+1,w
  1894  0FEF  00CA               	movwf	___fttol@f1+1
  1895  0FF0  083B               	movf	?___ftdiv+2,w
  1896  0FF1  00CB               	movwf	___fttol@f1+2
  1897  0FF2  318B  23C1         	fcall	___fttol
  1898  0FF4  0140               	movlb	0	; select bank0
  1899  0FF5  084A               	movf	?___fttol+1,w
  1900  0FF6  00EF               	movwf	_error+1
  1901  0FF7  0849               	movf	?___fttol,w
  1902  0FF8  00EE               	movwf	_error
  1903                           
  1904                           ;main.c: 74: error=error-1000;
  1905  0FF9  086E               	movf	_error,w
  1906  0FFA  3E18               	addlw	24
  1907  0FFB  00EE               	movwf	_error
  1908  0FFC  30FC               	movlw	252
  1909  0FFD  3D6F               	addwfc	_error+1,w
  1910  0FFE  00EF               	movwf	_error+1
  1911  0FFF  0008               	return
  1912  1000                     __end_of_geterror:	
  1913                           
  1914                           	psect	text2
  1915  07CC                     __ptext2:	
  1916 ;; *************** function ___lwtoft *****************
  1917 ;; Defined at:
  1918 ;;		line 28 in file "C:\Program Files (x86)\Microchip\xc8\v1.45\sources\common\lwtoft.c"
  1919 ;; Parameters:    Size  Location     Type
  1920 ;;  c               2    9[COMMON] unsigned int 
  1921 ;; Auto vars:     Size  Location     Type
  1922 ;;		None
  1923 ;; Return value:  Size  Location     Type
  1924 ;;                  3    9[COMMON] float 
  1925 ;; Registers used:
  1926 ;;		wreg, status,2, status,0, pclath, cstack
  1927 ;; Tracked objects:
  1928 ;;		On entry : 0/0
  1929 ;;		On exit  : 0/0
  1930 ;;		Unchanged: 0/0
  1931 ;; Data sizes:     COMMON   BANK0   BANK1   BANK2   BANK3   BANK4   BANK5   BANK6   BANK7   BANK8   BANK9  BANK10  BANK1
      +1  BANK12  BANK13  BANK14  BANK15  BANK16  BANK17  BANK18  BANK19  BANK20  BANK21  BANK22  BANK23  BANK24  BANK25  BANK2
      +6  BANK27  BANK28  BANK29  BANK30  BANK31  BANK32  BANK33  BANK34  BANK35  BANK36  BANK37  BANK38  BANK39  BANK40  BANK4
      +1  BANK42  BANK43  BANK44  BANK45  BANK46  BANK47  BANK48  BANK49  BANK50
  1932 ;;      Params:         3       0       0       0       0       0       0       0       0       0       0       0       
      +0       0       0       0       0       0       0       0       0       0       0       0       0       0       0       
      +0       0       0       0       0       0       0       0       0       0       0       0       0       0       0       
      +0       0       0       0       0       0       0       0       0       0
  1933 ;;      Locals:         0       0       0       0       0       0       0       0       0       0       0       0       
      +0       0       0       0       0       0       0       0       0       0       0       0       0       0       0       
      +0       0       0       0       0       0       0       0       0       0       0       0       0       0       0       
      +0       0       0       0       0       0       0       0       0       0
  1934 ;;      Temps:          1       0       0       0       0       0       0       0       0       0       0       0       
      +0       0       0       0       0       0       0       0       0       0       0       0       0       0       0       
      +0       0       0       0       0       0       0       0       0       0       0       0       0       0       0       
      +0       0       0       0       0       0       0       0       0       0
  1935 ;;      Totals:         4       0       0       0       0       0       0       0       0       0       0       0       
      +0       0       0       0       0       0       0       0       0       0       0       0       0       0       0       
      +0       0       0       0       0       0       0       0       0       0       0       0       0       0       0       
      +0       0       0       0       0       0       0       0       0       0
  1936 ;;Total ram usage:        4 bytes
  1937 ;; Hardware stack levels used:    1
  1938 ;; Hardware stack levels required when called:    2
  1939 ;; This function calls:
  1940 ;;		___ftpack
  1941 ;; This function is called by:
  1942 ;;		_geterror
  1943 ;; This function uses a non-reentrant model
  1944 ;;
  1945                           
  1946                           
  1947                           ;psect for function ___lwtoft
  1948  07CC                     ___lwtoft:	
  1949                           
  1950                           ;incstack = 0
  1951                           ; Regs used in ___lwtoft: [wreg+status,2+status,0+pclath+cstack]
  1952  07CC  0879               	movf	___lwtoft@c,w
  1953  07CD  00F1               	movwf	___ftpack@arg
  1954  07CE  087A               	movf	___lwtoft@c+1,w
  1955  07CF  00F2               	movwf	___ftpack@arg+1
  1956  07D0  01F3               	clrf	___ftpack@arg+2
  1957  07D1  308E               	movlw	142
  1958  07D2  00FC               	movwf	??___lwtoft
  1959  07D3  087C               	movf	??___lwtoft,w
  1960  07D4  00F4               	movwf	___ftpack@exp
  1961  07D5  01F5               	clrf	___ftpack@sign
  1962  07D6  318A  22E5         	fcall	___ftpack
  1963  07D8  0871               	movf	?___ftpack,w
  1964  07D9  00F9               	movwf	?___lwtoft
  1965  07DA  0872               	movf	?___ftpack+1,w
  1966  07DB  00FA               	movwf	?___lwtoft+1
  1967  07DC  0873               	movf	?___ftpack+2,w
  1968  07DD  00FB               	movwf	?___lwtoft+2
  1969  07DE  0008               	return
  1970  07DF                     __end_of___lwtoft:	
  1971                           
  1972                           	psect	text3
  1973  0C48                     __ptext3:	
  1974 ;; *************** function ___ftdiv *****************
  1975 ;; Defined at:
  1976 ;;		line 56 in file "C:\Program Files (x86)\Microchip\xc8\v1.45\sources\common\ftdiv.c"
  1977 ;; Parameters:    Size  Location     Type
  1978 ;;  f2              3   25[BANK0 ] float 
  1979 ;;  f1              3   28[BANK0 ] float 
  1980 ;; Auto vars:     Size  Location     Type
  1981 ;;  f3              3   36[BANK0 ] float 
  1982 ;;  sign            1   40[BANK0 ] unsigned char 
  1983 ;;  exp             1   39[BANK0 ] unsigned char 
  1984 ;;  cntr            1   35[BANK0 ] unsigned char 
  1985 ;; Return value:  Size  Location     Type
  1986 ;;                  3   25[BANK0 ] float 
  1987 ;; Registers used:
  1988 ;;		wreg, status,2, status,0, pclath, cstack
  1989 ;; Tracked objects:
  1990 ;;		On entry : 0/0
  1991 ;;		On exit  : 0/0
  1992 ;;		Unchanged: 0/0
  1993 ;; Data sizes:     COMMON   BANK0   BANK1   BANK2   BANK3   BANK4   BANK5   BANK6   BANK7   BANK8   BANK9  BANK10  BANK1
      +1  BANK12  BANK13  BANK14  BANK15  BANK16  BANK17  BANK18  BANK19  BANK20  BANK21  BANK22  BANK23  BANK24  BANK25  BANK2
      +6  BANK27  BANK28  BANK29  BANK30  BANK31  BANK32  BANK33  BANK34  BANK35  BANK36  BANK37  BANK38  BANK39  BANK40  BANK4
      +1  BANK42  BANK43  BANK44  BANK45  BANK46  BANK47  BANK48  BANK49  BANK50
  1994 ;;      Params:         0       6       0       0       0       0       0       0       0       0       0       0       
      +0       0       0       0       0       0       0       0       0       0       0       0       0       0       0       
      +0       0       0       0       0       0       0       0       0       0       0       0       0       0       0       
      +0       0       0       0       0       0       0       0       0       0
  1995 ;;      Locals:         0       6       0       0       0       0       0       0       0       0       0       0       
      +0       0       0       0       0       0       0       0       0       0       0       0       0       0       0       
      +0       0       0       0       0       0       0       0       0       0       0       0       0       0       0       
      +0       0       0       0       0       0       0       0       0       0
  1996 ;;      Temps:          0       4       0       0       0       0       0       0       0       0       0       0       
      +0       0       0       0       0       0       0       0       0       0       0       0       0       0       0       
      +0       0       0       0       0       0       0       0       0       0       0       0       0       0       0       
      +0       0       0       0       0       0       0       0       0       0
  1997 ;;      Totals:         0      16       0       0       0       0       0       0       0       0       0       0       
      +0       0       0       0       0       0       0       0       0       0       0       0       0       0       0       
      +0       0       0       0       0       0       0       0       0       0       0       0       0       0       0       
      +0       0       0       0       0       0       0       0       0       0
  1998 ;;Total ram usage:       16 bytes
  1999 ;; Hardware stack levels used:    1
  2000 ;; Hardware stack levels required when called:    2
  2001 ;; This function calls:
  2002 ;;		___ftpack
  2003 ;; This function is called by:
  2004 ;;		_geterror
  2005 ;; This function uses a non-reentrant model
  2006 ;;
  2007                           
  2008                           
  2009                           ;psect for function ___ftdiv
  2010  0C48                     ___ftdiv:	
  2011                           
  2012                           ;incstack = 0
  2013                           ; Regs used in ___ftdiv: [wreg+status,2+status,0+pclath+cstack]
  2014  0C48  0140               	movlb	0	; select bank0
  2015  0C49  083C               	movf	___ftdiv@f1,w
  2016  0C4A  00BF               	movwf	??___ftdiv
  2017  0C4B  083D               	movf	___ftdiv@f1+1,w
  2018  0C4C  00C0               	movwf	??___ftdiv+1
  2019  0C4D  083E               	movf	___ftdiv@f1+2,w
  2020  0C4E  00C1               	movwf	??___ftdiv+2
  2021  0C4F  1003               	clrc
  2022  0C50  0D40               	rlf	??___ftdiv+1,w
  2023  0C51  0D41               	rlf	??___ftdiv+2,w
  2024  0C52  00C2               	movwf	??___ftdiv+3
  2025  0C53  0842               	movf	??___ftdiv+3,w
  2026  0C54  00C7               	movwf	___ftdiv@exp
  2027  0C55  0847               	movf	___ftdiv@exp,w
  2028  0C56  1D03               	btfss	3,2
  2029  0C57  2C5F               	goto	l1119
  2030  0C58  3000               	movlw	0
  2031  0C59  00B9               	movwf	?___ftdiv
  2032  0C5A  3000               	movlw	0
  2033  0C5B  00BA               	movwf	?___ftdiv+1
  2034  0C5C  3000               	movlw	0
  2035  0C5D  00BB               	movwf	?___ftdiv+2
  2036  0C5E  0008               	return
  2037  0C5F                     l1119:	
  2038  0C5F  0839               	movf	___ftdiv@f2,w
  2039  0C60  00BF               	movwf	??___ftdiv
  2040  0C61  083A               	movf	___ftdiv@f2+1,w
  2041  0C62  00C0               	movwf	??___ftdiv+1
  2042  0C63  083B               	movf	___ftdiv@f2+2,w
  2043  0C64  00C1               	movwf	??___ftdiv+2
  2044  0C65  1003               	clrc
  2045  0C66  0D40               	rlf	??___ftdiv+1,w
  2046  0C67  0D41               	rlf	??___ftdiv+2,w
  2047  0C68  00C2               	movwf	??___ftdiv+3
  2048  0C69  0842               	movf	??___ftdiv+3,w
  2049  0C6A  00C8               	movwf	___ftdiv@sign
  2050  0C6B  0848               	movf	___ftdiv@sign,w
  2051  0C6C  1D03               	btfss	3,2
  2052  0C6D  2C75               	goto	l1125
  2053  0C6E  3000               	movlw	0
  2054  0C6F  00B9               	movwf	?___ftdiv
  2055  0C70  3000               	movlw	0
  2056  0C71  00BA               	movwf	?___ftdiv+1
  2057  0C72  3000               	movlw	0
  2058  0C73  00BB               	movwf	?___ftdiv+2
  2059  0C74  0008               	return
  2060  0C75                     l1125:	
  2061  0C75  3000               	movlw	0
  2062  0C76  00C4               	movwf	___ftdiv@f3
  2063  0C77  3000               	movlw	0
  2064  0C78  00C5               	movwf	___ftdiv@f3+1
  2065  0C79  3000               	movlw	0
  2066  0C7A  00C6               	movwf	___ftdiv@f3+2
  2067  0C7B  3089               	movlw	137
  2068  0C7C  0748               	addwf	___ftdiv@sign,w
  2069  0C7D  00BF               	movwf	??___ftdiv
  2070  0C7E  083F               	movf	??___ftdiv,w
  2071  0C7F  02C7               	subwf	___ftdiv@exp,f
  2072  0C80  083C               	movf	___ftdiv@f1,w
  2073  0C81  00BF               	movwf	??___ftdiv
  2074  0C82  083D               	movf	___ftdiv@f1+1,w
  2075  0C83  00C0               	movwf	??___ftdiv+1
  2076  0C84  083E               	movf	___ftdiv@f1+2,w
  2077  0C85  00C1               	movwf	??___ftdiv+2
  2078  0C86  3010               	movlw	16
  2079  0C87                     u1175:	
  2080  0C87  36C1               	lsrf	??___ftdiv+2,f
  2081  0C88  0CC0               	rrf	??___ftdiv+1,f
  2082  0C89  0CBF               	rrf	??___ftdiv,f
  2083  0C8A  0B89               	decfsz	9,f
  2084  0C8B  2C87               	goto	u1175
  2085  0C8C  083F               	movf	??___ftdiv,w
  2086  0C8D  00C2               	movwf	??___ftdiv+3
  2087  0C8E  0842               	movf	??___ftdiv+3,w
  2088  0C8F  00C8               	movwf	___ftdiv@sign
  2089  0C90  0839               	movf	___ftdiv@f2,w
  2090  0C91  00BF               	movwf	??___ftdiv
  2091  0C92  083A               	movf	___ftdiv@f2+1,w
  2092  0C93  00C0               	movwf	??___ftdiv+1
  2093  0C94  083B               	movf	___ftdiv@f2+2,w
  2094  0C95  00C1               	movwf	??___ftdiv+2
  2095  0C96  3010               	movlw	16
  2096  0C97                     u1185:	
  2097  0C97  36C1               	lsrf	??___ftdiv+2,f
  2098  0C98  0CC0               	rrf	??___ftdiv+1,f
  2099  0C99  0CBF               	rrf	??___ftdiv,f
  2100  0C9A  0B89               	decfsz	9,f
  2101  0C9B  2C97               	goto	u1185
  2102  0C9C  083F               	movf	??___ftdiv,w
  2103  0C9D  00C2               	movwf	??___ftdiv+3
  2104  0C9E  0842               	movf	??___ftdiv+3,w
  2105  0C9F  06C8               	xorwf	___ftdiv@sign,f
  2106  0CA0  3080               	movlw	128
  2107  0CA1  00BF               	movwf	??___ftdiv
  2108  0CA2  083F               	movf	??___ftdiv,w
  2109  0CA3  05C8               	andwf	___ftdiv@sign,f
  2110  0CA4  17BD               	bsf	___ftdiv@f1+1,7
  2111  0CA5  30FF               	movlw	255
  2112  0CA6  05BC               	andwf	___ftdiv@f1,f
  2113  0CA7  30FF               	movlw	255
  2114  0CA8  05BD               	andwf	___ftdiv@f1+1,f
  2115  0CA9  3000               	movlw	0
  2116  0CAA  05BE               	andwf	___ftdiv@f1+2,f
  2117  0CAB  17BA               	bsf	___ftdiv@f2+1,7
  2118  0CAC  30FF               	movlw	255
  2119  0CAD  05B9               	andwf	___ftdiv@f2,f
  2120  0CAE  30FF               	movlw	255
  2121  0CAF  05BA               	andwf	___ftdiv@f2+1,f
  2122  0CB0  3000               	movlw	0
  2123  0CB1  05BB               	andwf	___ftdiv@f2+2,f
  2124  0CB2  3018               	movlw	24
  2125  0CB3  00BF               	movwf	??___ftdiv
  2126  0CB4  083F               	movf	??___ftdiv,w
  2127  0CB5  00C3               	movwf	___ftdiv@cntr
  2128  0CB6                     l1139:	
  2129  0CB6  3001               	movlw	1
  2130  0CB7                     u1195:	
  2131  0CB7  35C4               	lslf	___ftdiv@f3,f
  2132  0CB8  0DC5               	rlf	___ftdiv@f3+1,f
  2133  0CB9  0DC6               	rlf	___ftdiv@f3+2,f
  2134  0CBA  0B89               	decfsz	9,f
  2135  0CBB  2CB7               	goto	u1195
  2136  0CBC  083B               	movf	___ftdiv@f2+2,w
  2137  0CBD  023E               	subwf	___ftdiv@f1+2,w
  2138  0CBE  1D03               	skipz
  2139  0CBF  2CC6               	goto	u1205
  2140  0CC0  083A               	movf	___ftdiv@f2+1,w
  2141  0CC1  023D               	subwf	___ftdiv@f1+1,w
  2142  0CC2  1D03               	skipz
  2143  0CC3  2CC6               	goto	u1205
  2144  0CC4  0839               	movf	___ftdiv@f2,w
  2145  0CC5  023C               	subwf	___ftdiv@f1,w
  2146  0CC6                     u1205:	
  2147  0CC6  1C03               	skipc
  2148  0CC7  2CCF               	goto	l1147
  2149  0CC8  0839               	movf	___ftdiv@f2,w
  2150  0CC9  02BC               	subwf	___ftdiv@f1,f
  2151  0CCA  083A               	movf	___ftdiv@f2+1,w
  2152  0CCB  3BBD               	subwfb	___ftdiv@f1+1,f
  2153  0CCC  083B               	movf	___ftdiv@f2+2,w
  2154  0CCD  3BBE               	subwfb	___ftdiv@f1+2,f
  2155  0CCE  1444               	bsf	___ftdiv@f3,0
  2156  0CCF                     l1147:	
  2157  0CCF  3001               	movlw	1
  2158  0CD0                     u1215:	
  2159  0CD0  35BC               	lslf	___ftdiv@f1,f
  2160  0CD1  0DBD               	rlf	___ftdiv@f1+1,f
  2161  0CD2  0DBE               	rlf	___ftdiv@f1+2,f
  2162  0CD3  0B89               	decfsz	9,f
  2163  0CD4  2CD0               	goto	u1215
  2164  0CD5  3001               	movlw	1
  2165  0CD6  02C3               	subwf	___ftdiv@cntr,f
  2166  0CD7  1D03               	btfss	3,2
  2167  0CD8  2CB6               	goto	l1139
  2168  0CD9  0844               	movf	___ftdiv@f3,w
  2169  0CDA  00F1               	movwf	___ftpack@arg
  2170  0CDB  0845               	movf	___ftdiv@f3+1,w
  2171  0CDC  00F2               	movwf	___ftpack@arg+1
  2172  0CDD  0846               	movf	___ftdiv@f3+2,w
  2173  0CDE  00F3               	movwf	___ftpack@arg+2
  2174  0CDF  0847               	movf	___ftdiv@exp,w
  2175  0CE0  00BF               	movwf	??___ftdiv
  2176  0CE1  083F               	movf	??___ftdiv,w
  2177  0CE2  00F4               	movwf	___ftpack@exp
  2178  0CE3  0848               	movf	___ftdiv@sign,w
  2179  0CE4  00C0               	movwf	??___ftdiv+1
  2180  0CE5  0840               	movf	??___ftdiv+1,w
  2181  0CE6  00F5               	movwf	___ftpack@sign
  2182  0CE7  318A  22E5         	fcall	___ftpack
  2183  0CE9  0871               	movf	?___ftpack,w
  2184  0CEA  0140               	movlb	0	; select bank0
  2185  0CEB  00B9               	movwf	?___ftdiv
  2186  0CEC  0872               	movf	?___ftpack+1,w
  2187  0CED  00BA               	movwf	?___ftdiv+1
  2188  0CEE  0873               	movf	?___ftpack+2,w
  2189  0CEF  00BB               	movwf	?___ftdiv+2
  2190  0CF0  0008               	return
  2191  0CF1                     __end_of___ftdiv:	
  2192                           
  2193                           	psect	text4
  2194  002B                     __ptext4:	
  2195 ;; *************** function _formula *****************
  2196 ;; Defined at:
  2197 ;;		line 76 in file "main.c"
  2198 ;; Parameters:    Size  Location     Type
  2199 ;;		None
  2200 ;; Auto vars:     Size  Location     Type
  2201 ;;		None
  2202 ;; Return value:  Size  Location     Type
  2203 ;;                  1    wreg      void 
  2204 ;; Registers used:
  2205 ;;		wreg, status,2, status,0, pclath, cstack
  2206 ;; Tracked objects:
  2207 ;;		On entry : 0/0
  2208 ;;		On exit  : 0/0
  2209 ;;		Unchanged: 0/0
  2210 ;; Data sizes:     COMMON   BANK0   BANK1   BANK2   BANK3   BANK4   BANK5   BANK6   BANK7   BANK8   BANK9  BANK10  BANK1
      +1  BANK12  BANK13  BANK14  BANK15  BANK16  BANK17  BANK18  BANK19  BANK20  BANK21  BANK22  BANK23  BANK24  BANK25  BANK2
      +6  BANK27  BANK28  BANK29  BANK30  BANK31  BANK32  BANK33  BANK34  BANK35  BANK36  BANK37  BANK38  BANK39  BANK40  BANK4
      +1  BANK42  BANK43  BANK44  BANK45  BANK46  BANK47  BANK48  BANK49  BANK50
  2211 ;;      Params:         0       0       0       0       0       0       0       0       0       0       0       0       
      +0       0       0       0       0       0       0       0       0       0       0       0       0       0       0       
      +0       0       0       0       0       0       0       0       0       0       0       0       0       0       0       
      +0       0       0       0       0       0       0       0       0       0
  2212 ;;      Locals:         0       6       0       0       0       0       0       0       0       0       0       0       
      +0       0       0       0       0       0       0       0       0       0       0       0       0       0       0       
      +0       0       0       0       0       0       0       0       0       0       0       0       0       0       0       
      +0       0       0       0       0       0       0       0       0       0
  2213 ;;      Temps:          0       2       0       0       0       0       0       0       0       0       0       0       
      +0       0       0       0       0       0       0       0       0       0       0       0       0       0       0       
      +0       0       0       0       0       0       0       0       0       0       0       0       0       0       0       
      +0       0       0       0       0       0       0       0       0       0
  2214 ;;      Totals:         0       8       0       0       0       0       0       0       0       0       0       0       
      +0       0       0       0       0       0       0       0       0       0       0       0       0       0       0       
      +0       0       0       0       0       0       0       0       0       0       0       0       0       0       0       
      +0       0       0       0       0       0       0       0       0       0
  2215 ;;Total ram usage:        8 bytes
  2216 ;; Hardware stack levels used:    1
  2217 ;; Hardware stack levels required when called:    3
  2218 ;; This function calls:
  2219 ;;		___awtoft
  2220 ;;		___ftadd
  2221 ;;		___ftmul
  2222 ;;		___ftneg
  2223 ;;		___fttol
  2224 ;; This function is called by:
  2225 ;;		_main
  2226 ;; This function uses a non-reentrant model
  2227 ;;
  2228                           
  2229                           
  2230                           ;psect for function _formula
  2231  002B                     _formula:	
  2232                           
  2233                           ;main.c: 77: PORTB=0;
  2234                           
  2235                           ;incstack = 0
  2236                           ; Regs used in _formula: [wreg+status,2+status,0+pclath+cstack]
  2237  002B  0140               	movlb	0	; select bank0
  2238  002C  018D               	clrf	13	;volatile
  2239                           
  2240                           ;main.c: 78: TRISB=0b11111111;
  2241  002D  30FF               	movlw	255
  2242  002E  0092               	movwf	18	;volatile
  2243                           
  2244                           ;main.c: 79: if(distancia1==distancia2 && distancia2==distancia3){
  2245  002F  0141               	movlb	1	; select bank1
  2246  0030  0825               	movf	(_distancia2+2)^(0+128),w
  2247  0031  062A               	xorwf	(_distancia1+2)^(0+128),w
  2248  0032  1D03               	skipz
  2249  0033  283A               	goto	u1525
  2250  0034  0824               	movf	(_distancia2+1)^(0+128),w
  2251  0035  0629               	xorwf	(_distancia1+1)^(0+128),w
  2252  0036  1D03               	skipz
  2253  0037  283A               	goto	u1525
  2254  0038  0823               	movf	_distancia2^(0+128),w
  2255  0039  0628               	xorwf	_distancia1^(0+128),w
  2256  003A                     u1525:	
  2257  003A  1D03               	skipz
  2258  003B  299E               	goto	l1303
  2259  003C  0822               	movf	(_distancia3+2)^(0+128),w
  2260  003D  0625               	xorwf	(_distancia2+2)^(0+128),w
  2261  003E  1D03               	skipz
  2262  003F  2846               	goto	u1535
  2263  0040  0821               	movf	(_distancia3+1)^(0+128),w
  2264  0041  0624               	xorwf	(_distancia2+1)^(0+128),w
  2265  0042  1D03               	skipz
  2266  0043  2846               	goto	u1535
  2267  0044  0820               	movf	_distancia3^(0+128),w
  2268  0045  0623               	xorwf	_distancia2^(0+128),w
  2269  0046                     u1535:	
  2270  0046  1D03               	skipz
  2271  0047  299E               	goto	l1303
  2272                           
  2273                           ;main.c: 81: TRISBbits.TRISB0=0;
  2274  0048  0140               	movlb	0	; select bank0
  2275  0049  1012               	bcf	18,0	;volatile
  2276                           
  2277                           ;main.c: 82: TRISBbits.TRISB1=1;
  2278  004A  1492               	bsf	18,1	;volatile
  2279                           
  2280                           ;main.c: 83: TRISBbits.TRISB2=1;
  2281  004B  1512               	bsf	18,2	;volatile
  2282                           
  2283                           ;main.c: 84: TRISBbits.TRISB3=0;
  2284  004C  1192               	bcf	18,3	;volatile
  2285                           
  2286                           ;main.c: 85: CCPR1=velocidad+(int)((-1)*((kp*(double)error)+kd*((double)error-(double)er
      +                          rorant)));
  2287  004D  086F               	movf	_error+1,w
  2288  004E  00D8               	movwf	___awtoft@c+1
  2289  004F  086E               	movf	_error,w
  2290  0050  00D7               	movwf	___awtoft@c
  2291  0051  3187  27AA  3180   	fcall	___awtoft
  2292  0054  0140               	movlb	0	; select bank0
  2293  0055  0857               	movf	?___awtoft,w
  2294  0056  00AF               	movwf	___ftadd@f2
  2295  0057  0858               	movf	?___awtoft+1,w
  2296  0058  00B0               	movwf	___ftadd@f2+1
  2297  0059  0859               	movf	?___awtoft+2,w
  2298  005A  00B1               	movwf	___ftadd@f2+2
  2299  005B  0141               	movlb	1	; select bank1
  2300  005C  0827               	movf	(_errorant+1)^(0+128),w
  2301  005D  0140               	movlb	0	; select bank0
  2302  005E  00D8               	movwf	___awtoft@c+1
  2303  005F  0141               	movlb	1	; select bank1
  2304  0060  0826               	movf	_errorant^(0+128),w
  2305  0061  0140               	movlb	0	; select bank0
  2306  0062  00D7               	movwf	___awtoft@c
  2307  0063  3187  27AA  3180   	fcall	___awtoft
  2308  0066  0140               	movlb	0	; select bank0
  2309  0067  0857               	movf	?___awtoft,w
  2310  0068  00DD               	movwf	___ftneg@f1
  2311  0069  0858               	movf	?___awtoft+1,w
  2312  006A  00DE               	movwf	___ftneg@f1+1
  2313  006B  0859               	movf	?___awtoft+2,w
  2314  006C  00DF               	movwf	___ftneg@f1+2
  2315  006D  3187  27EC  3180   	fcall	___ftneg
  2316  0070  0140               	movlb	0	; select bank0
  2317  0071  085D               	movf	?___ftneg,w
  2318  0072  00AC               	movwf	___ftadd@f1
  2319  0073  085E               	movf	?___ftneg+1,w
  2320  0074  00AD               	movwf	___ftadd@f1+1
  2321  0075  085F               	movf	?___ftneg+2,w
  2322  0076  00AE               	movwf	___ftadd@f1+2
  2323  0077  3186  26B4  3180   	fcall	___ftadd
  2324  007A  0140               	movlb	0	; select bank0
  2325  007B  082C               	movf	?___ftadd,w
  2326  007C  00A3               	movwf	___ftmul@f2
  2327  007D  082D               	movf	?___ftadd+1,w
  2328  007E  00A4               	movwf	___ftmul@f2+1
  2329  007F  082E               	movf	?___ftadd+2,w
  2330  0080  00A5               	movwf	___ftmul@f2+2
  2331  0081  0141               	movlb	1	; select bank1
  2332  0082  0837               	movf	_kd^(0+128),w
  2333  0083  0140               	movlb	0	; select bank0
  2334  0084  00A0               	movwf	___ftmul@f1
  2335  0085  0141               	movlb	1	; select bank1
  2336  0086  0838               	movf	(_kd+1)^(0+128),w
  2337  0087  0140               	movlb	0	; select bank0
  2338  0088  00A1               	movwf	___ftmul@f1+1
  2339  0089  0141               	movlb	1	; select bank1
  2340  008A  0839               	movf	(_kd+2)^(0+128),w
  2341  008B  0140               	movlb	0	; select bank0
  2342  008C  00A2               	movwf	___ftmul@f1+2
  2343  008D  318C  24F1  3180   	fcall	___ftmul
  2344  0090  0140               	movlb	0	; select bank0
  2345  0091  0820               	movf	?___ftmul,w
  2346  0092  00E5               	movwf	_formula$1014
  2347  0093  0821               	movf	?___ftmul+1,w
  2348  0094  00E6               	movwf	_formula$1014+1
  2349  0095  0822               	movf	?___ftmul+2,w
  2350  0096  00E7               	movwf	_formula$1014+2
  2351                           
  2352                           ;main.c: 85: CCPR1=velocidad+(int)((-1)*((kp*(double)error)+kd*((double)error-(double)er
      +                          rorant)));
  2353  0097  086F               	movf	_error+1,w
  2354  0098  00D8               	movwf	___awtoft@c+1
  2355  0099  086E               	movf	_error,w
  2356  009A  00D7               	movwf	___awtoft@c
  2357  009B  3187  27AA  3180   	fcall	___awtoft
  2358  009E  0140               	movlb	0	; select bank0
  2359  009F  0857               	movf	?___awtoft,w
  2360  00A0  00A3               	movwf	___ftmul@f2
  2361  00A1  0858               	movf	?___awtoft+1,w
  2362  00A2  00A4               	movwf	___ftmul@f2+1
  2363  00A3  0859               	movf	?___awtoft+2,w
  2364  00A4  00A5               	movwf	___ftmul@f2+2
  2365  00A5  0141               	movlb	1	; select bank1
  2366  00A6  083A               	movf	_kp^(0+128),w
  2367  00A7  0140               	movlb	0	; select bank0
  2368  00A8  00A0               	movwf	___ftmul@f1
  2369  00A9  0141               	movlb	1	; select bank1
  2370  00AA  083B               	movf	(_kp+1)^(0+128),w
  2371  00AB  0140               	movlb	0	; select bank0
  2372  00AC  00A1               	movwf	___ftmul@f1+1
  2373  00AD  0141               	movlb	1	; select bank1
  2374  00AE  083C               	movf	(_kp+2)^(0+128),w
  2375  00AF  0140               	movlb	0	; select bank0
  2376  00B0  00A2               	movwf	___ftmul@f1+2
  2377  00B1  318C  24F1  3180   	fcall	___ftmul
  2378  00B4  0140               	movlb	0	; select bank0
  2379  00B5  0820               	movf	?___ftmul,w
  2380  00B6  00AF               	movwf	___ftadd@f2
  2381  00B7  0821               	movf	?___ftmul+1,w
  2382  00B8  00B0               	movwf	___ftadd@f2+1
  2383  00B9  0822               	movf	?___ftmul+2,w
  2384  00BA  00B1               	movwf	___ftadd@f2+2
  2385  00BB  0865               	movf	_formula$1014,w
  2386  00BC  00AC               	movwf	___ftadd@f1
  2387  00BD  0866               	movf	_formula$1014+1,w
  2388  00BE  00AD               	movwf	___ftadd@f1+1
  2389  00BF  0867               	movf	_formula$1014+2,w
  2390  00C0  00AE               	movwf	___ftadd@f1+2
  2391  00C1  3186  26B4  3180   	fcall	___ftadd
  2392  00C4  0140               	movlb	0	; select bank0
  2393  00C5  082C               	movf	?___ftadd,w
  2394  00C6  00E2               	movwf	_formula$1015
  2395  00C7  082D               	movf	?___ftadd+1,w
  2396  00C8  00E3               	movwf	_formula$1015+1
  2397  00C9  082E               	movf	?___ftadd+2,w
  2398  00CA  00E4               	movwf	_formula$1015+2
  2399                           
  2400                           ;main.c: 85: CCPR1=velocidad+(int)((-1)*((kp*(double)error)+kd*((double)error-(double)er
      +                          rorant)));
  2401  00CB  0862               	movf	_formula$1015,w
  2402  00CC  00A3               	movwf	___ftmul@f2
  2403  00CD  0863               	movf	_formula$1015+1,w
  2404  00CE  00A4               	movwf	___ftmul@f2+1
  2405  00CF  0864               	movf	_formula$1015+2,w
  2406  00D0  00A5               	movwf	___ftmul@f2+2
  2407  00D1  3000               	movlw	0
  2408  00D2  00A0               	movwf	___ftmul@f1
  2409  00D3  3080               	movlw	128
  2410  00D4  00A1               	movwf	___ftmul@f1+1
  2411  00D5  30BF               	movlw	191
  2412  00D6  00A2               	movwf	___ftmul@f1+2
  2413  00D7  318C  24F1  3180   	fcall	___ftmul
  2414  00DA  0140               	movlb	0	; select bank0
  2415  00DB  0820               	movf	?___ftmul,w
  2416  00DC  00C9               	movwf	___fttol@f1
  2417  00DD  0821               	movf	?___ftmul+1,w
  2418  00DE  00CA               	movwf	___fttol@f1+1
  2419  00DF  0822               	movf	?___ftmul+2,w
  2420  00E0  00CB               	movwf	___fttol@f1+2
  2421  00E1  318B  23C1  3180   	fcall	___fttol
  2422  00E4  0141               	movlb	1	; select bank1
  2423  00E5  083D               	movf	_velocidad^(0+128),w
  2424  00E6  0140               	movlb	0	; select bank0
  2425  00E7  0749               	addwf	?___fttol,w
  2426  00E8  00E0               	movwf	??_formula
  2427  00E9  0141               	movlb	1	; select bank1
  2428  00EA  083E               	movf	(_velocidad+1)^(0+128),w
  2429  00EB  0140               	movlb	0	; select bank0
  2430  00EC  3D4A               	addwfc	?___fttol+1,w
  2431  00ED  00E1               	movwf	??_formula+1
  2432  00EE  0860               	movf	??_formula,w
  2433  00EF  0146               	movlb	6	; select bank6
  2434  00F0  008C               	movwf	12	;volatile
  2435  00F1  0140               	movlb	0	; select bank0
  2436  00F2  0861               	movf	??_formula+1,w
  2437  00F3  0146               	movlb	6	; select bank6
  2438  00F4  008D               	movwf	13	;volatile
  2439                           
  2440                           ;main.c: 86: CCPR2=velocidad+(int)((-1)*((kp*(double)error)+kd*((double)error-(double)er
      +                          rorant)));
  2441  00F5  0140               	movlb	0	; select bank0
  2442  00F6  086F               	movf	_error+1,w
  2443  00F7  00D8               	movwf	___awtoft@c+1
  2444  00F8  086E               	movf	_error,w
  2445  00F9  00D7               	movwf	___awtoft@c
  2446  00FA  3187  27AA  3180   	fcall	___awtoft
  2447  00FD  0140               	movlb	0	; select bank0
  2448  00FE  0857               	movf	?___awtoft,w
  2449  00FF  00AF               	movwf	___ftadd@f2
  2450  0100  0858               	movf	?___awtoft+1,w
  2451  0101  00B0               	movwf	___ftadd@f2+1
  2452  0102  0859               	movf	?___awtoft+2,w
  2453  0103  00B1               	movwf	___ftadd@f2+2
  2454  0104  0141               	movlb	1	; select bank1
  2455  0105  0827               	movf	(_errorant+1)^(0+128),w
  2456  0106  0140               	movlb	0	; select bank0
  2457  0107  00D8               	movwf	___awtoft@c+1
  2458  0108  0141               	movlb	1	; select bank1
  2459  0109  0826               	movf	_errorant^(0+128),w
  2460  010A  0140               	movlb	0	; select bank0
  2461  010B  00D7               	movwf	___awtoft@c
  2462  010C  3187  27AA  3180   	fcall	___awtoft
  2463  010F  0140               	movlb	0	; select bank0
  2464  0110  0857               	movf	?___awtoft,w
  2465  0111  00DD               	movwf	___ftneg@f1
  2466  0112  0858               	movf	?___awtoft+1,w
  2467  0113  00DE               	movwf	___ftneg@f1+1
  2468  0114  0859               	movf	?___awtoft+2,w
  2469  0115  00DF               	movwf	___ftneg@f1+2
  2470  0116  3187  27EC  3180   	fcall	___ftneg
  2471  0119  0140               	movlb	0	; select bank0
  2472  011A  085D               	movf	?___ftneg,w
  2473  011B  00AC               	movwf	___ftadd@f1
  2474  011C  085E               	movf	?___ftneg+1,w
  2475  011D  00AD               	movwf	___ftadd@f1+1
  2476  011E  085F               	movf	?___ftneg+2,w
  2477  011F  00AE               	movwf	___ftadd@f1+2
  2478  0120  3186  26B4  3180   	fcall	___ftadd
  2479  0123  0140               	movlb	0	; select bank0
  2480  0124  082C               	movf	?___ftadd,w
  2481  0125  00A3               	movwf	___ftmul@f2
  2482  0126  082D               	movf	?___ftadd+1,w
  2483  0127  00A4               	movwf	___ftmul@f2+1
  2484  0128  082E               	movf	?___ftadd+2,w
  2485  0129  00A5               	movwf	___ftmul@f2+2
  2486  012A  0141               	movlb	1	; select bank1
  2487  012B  0837               	movf	_kd^(0+128),w
  2488  012C  0140               	movlb	0	; select bank0
  2489  012D  00A0               	movwf	___ftmul@f1
  2490  012E  0141               	movlb	1	; select bank1
  2491  012F  0838               	movf	(_kd+1)^(0+128),w
  2492  0130  0140               	movlb	0	; select bank0
  2493  0131  00A1               	movwf	___ftmul@f1+1
  2494  0132  0141               	movlb	1	; select bank1
  2495  0133  0839               	movf	(_kd+2)^(0+128),w
  2496  0134  0140               	movlb	0	; select bank0
  2497  0135  00A2               	movwf	___ftmul@f1+2
  2498  0136  318C  24F1  3180   	fcall	___ftmul
  2499  0139  0140               	movlb	0	; select bank0
  2500  013A  0820               	movf	?___ftmul,w
  2501  013B  00E5               	movwf	_formula$1014
  2502  013C  0821               	movf	?___ftmul+1,w
  2503  013D  00E6               	movwf	_formula$1014+1
  2504  013E  0822               	movf	?___ftmul+2,w
  2505  013F  00E7               	movwf	_formula$1014+2
  2506                           
  2507                           ;main.c: 86: CCPR2=velocidad+(int)((-1)*((kp*(double)error)+kd*((double)error-(double)er
      +                          rorant)));
  2508  0140  086F               	movf	_error+1,w
  2509  0141  00D8               	movwf	___awtoft@c+1
  2510  0142  086E               	movf	_error,w
  2511  0143  00D7               	movwf	___awtoft@c
  2512  0144  3187  27AA  3180   	fcall	___awtoft
  2513  0147  0140               	movlb	0	; select bank0
  2514  0148  0857               	movf	?___awtoft,w
  2515  0149  00A3               	movwf	___ftmul@f2
  2516  014A  0858               	movf	?___awtoft+1,w
  2517  014B  00A4               	movwf	___ftmul@f2+1
  2518  014C  0859               	movf	?___awtoft+2,w
  2519  014D  00A5               	movwf	___ftmul@f2+2
  2520  014E  0141               	movlb	1	; select bank1
  2521  014F  083A               	movf	_kp^(0+128),w
  2522  0150  0140               	movlb	0	; select bank0
  2523  0151  00A0               	movwf	___ftmul@f1
  2524  0152  0141               	movlb	1	; select bank1
  2525  0153  083B               	movf	(_kp+1)^(0+128),w
  2526  0154  0140               	movlb	0	; select bank0
  2527  0155  00A1               	movwf	___ftmul@f1+1
  2528  0156  0141               	movlb	1	; select bank1
  2529  0157  083C               	movf	(_kp+2)^(0+128),w
  2530  0158  0140               	movlb	0	; select bank0
  2531  0159  00A2               	movwf	___ftmul@f1+2
  2532  015A  318C  24F1  3180   	fcall	___ftmul
  2533  015D  0140               	movlb	0	; select bank0
  2534  015E  0820               	movf	?___ftmul,w
  2535  015F  00AF               	movwf	___ftadd@f2
  2536  0160  0821               	movf	?___ftmul+1,w
  2537  0161  00B0               	movwf	___ftadd@f2+1
  2538  0162  0822               	movf	?___ftmul+2,w
  2539  0163  00B1               	movwf	___ftadd@f2+2
  2540  0164  0865               	movf	_formula$1014,w
  2541  0165  00AC               	movwf	___ftadd@f1
  2542  0166  0866               	movf	_formula$1014+1,w
  2543  0167  00AD               	movwf	___ftadd@f1+1
  2544  0168  0867               	movf	_formula$1014+2,w
  2545  0169  00AE               	movwf	___ftadd@f1+2
  2546  016A  3186  26B4  3180   	fcall	___ftadd
  2547  016D  0140               	movlb	0	; select bank0
  2548  016E  082C               	movf	?___ftadd,w
  2549  016F  00E2               	movwf	_formula$1015
  2550  0170  082D               	movf	?___ftadd+1,w
  2551  0171  00E3               	movwf	_formula$1015+1
  2552  0172  082E               	movf	?___ftadd+2,w
  2553  0173  00E4               	movwf	_formula$1015+2
  2554                           
  2555                           ;main.c: 86: CCPR2=velocidad+(int)((-1)*((kp*(double)error)+kd*((double)error-(double)er
      +                          rorant)));
  2556  0174  0862               	movf	_formula$1015,w
  2557  0175  00A3               	movwf	___ftmul@f2
  2558  0176  0863               	movf	_formula$1015+1,w
  2559  0177  00A4               	movwf	___ftmul@f2+1
  2560  0178  0864               	movf	_formula$1015+2,w
  2561  0179  00A5               	movwf	___ftmul@f2+2
  2562  017A  3000               	movlw	0
  2563  017B  00A0               	movwf	___ftmul@f1
  2564  017C  3080               	movlw	128
  2565  017D  00A1               	movwf	___ftmul@f1+1
  2566  017E  30BF               	movlw	191
  2567  017F  00A2               	movwf	___ftmul@f1+2
  2568  0180  318C  24F1  3180   	fcall	___ftmul
  2569  0183  0140               	movlb	0	; select bank0
  2570  0184  0820               	movf	?___ftmul,w
  2571  0185  00C9               	movwf	___fttol@f1
  2572  0186  0821               	movf	?___ftmul+1,w
  2573  0187  00CA               	movwf	___fttol@f1+1
  2574  0188  0822               	movf	?___ftmul+2,w
  2575  0189  00CB               	movwf	___fttol@f1+2
  2576  018A  318B  23C1         	fcall	___fttol
  2577  018C  0141               	movlb	1	; select bank1
  2578  018D  083D               	movf	_velocidad^(0+128),w
  2579  018E  0140               	movlb	0	; select bank0
  2580  018F  0749               	addwf	?___fttol,w
  2581  0190  00E0               	movwf	??_formula
  2582  0191  0141               	movlb	1	; select bank1
  2583  0192  083E               	movf	(_velocidad+1)^(0+128),w
  2584  0193  0140               	movlb	0	; select bank0
  2585  0194  3D4A               	addwfc	?___fttol+1,w
  2586  0195  00E1               	movwf	??_formula+1
  2587  0196  0860               	movf	??_formula,w
  2588  0197  0146               	movlb	6	; select bank6
  2589  0198  0090               	movwf	16	;volatile
  2590  0199  0140               	movlb	0	; select bank0
  2591  019A  0861               	movf	??_formula+1,w
  2592  019B  0146               	movlb	6	; select bank6
  2593  019C  0091               	movwf	17	;volatile
  2594                           
  2595                           ;main.c: 87: }else{
  2596  019D  0008               	return
  2597  019E                     l1303:	
  2598                           
  2599                           ;main.c: 88: if(error<-100){
  2600  019E  0140               	movlb	0	; select bank0
  2601  019F  086F               	movf	_error+1,w
  2602  01A0  3A80               	xorlw	128
  2603  01A1  00E0               	movwf	??_formula
  2604  01A2  307F               	movlw	127
  2605  01A3  0260               	subwf	??_formula,w
  2606  01A4  1D03               	skipz
  2607  01A5  29A8               	goto	u1545
  2608  01A6  309C               	movlw	156
  2609  01A7  026E               	subwf	_error,w
  2610  01A8                     u1545:	
  2611  01A8  1803               	skipnc
  2612  01A9  2B00               	goto	l1309
  2613                           
  2614                           ;main.c: 90: TRISBbits.TRISB0=0;
  2615  01AA  0140               	movlb	0	; select bank0
  2616  01AB  1012               	bcf	18,0	;volatile
  2617                           
  2618                           ;main.c: 91: TRISBbits.TRISB1=1;
  2619  01AC  1492               	bsf	18,1	;volatile
  2620                           
  2621                           ;main.c: 92: TRISBbits.TRISB2=1;
  2622  01AD  1512               	bsf	18,2	;volatile
  2623                           
  2624                           ;main.c: 93: TRISBbits.TRISB3=0;
  2625  01AE  1192               	bcf	18,3	;volatile
  2626                           
  2627                           ;main.c: 94: CCPR1=velocidad+(int)((-1)*((kp*(double)error)+kd*((double)error-(double)er
      +                          rorant)));
  2628  01AF  086F               	movf	_error+1,w
  2629  01B0  00D8               	movwf	___awtoft@c+1
  2630  01B1  086E               	movf	_error,w
  2631  01B2  00D7               	movwf	___awtoft@c
  2632  01B3  3187  27AA  3180   	fcall	___awtoft
  2633  01B6  0140               	movlb	0	; select bank0
  2634  01B7  0857               	movf	?___awtoft,w
  2635  01B8  00AF               	movwf	___ftadd@f2
  2636  01B9  0858               	movf	?___awtoft+1,w
  2637  01BA  00B0               	movwf	___ftadd@f2+1
  2638  01BB  0859               	movf	?___awtoft+2,w
  2639  01BC  00B1               	movwf	___ftadd@f2+2
  2640  01BD  0141               	movlb	1	; select bank1
  2641  01BE  0827               	movf	(_errorant+1)^(0+128),w
  2642  01BF  0140               	movlb	0	; select bank0
  2643  01C0  00D8               	movwf	___awtoft@c+1
  2644  01C1  0141               	movlb	1	; select bank1
  2645  01C2  0826               	movf	_errorant^(0+128),w
  2646  01C3  0140               	movlb	0	; select bank0
  2647  01C4  00D7               	movwf	___awtoft@c
  2648  01C5  3187  27AA  3180   	fcall	___awtoft
  2649  01C8  0140               	movlb	0	; select bank0
  2650  01C9  0857               	movf	?___awtoft,w
  2651  01CA  00DD               	movwf	___ftneg@f1
  2652  01CB  0858               	movf	?___awtoft+1,w
  2653  01CC  00DE               	movwf	___ftneg@f1+1
  2654  01CD  0859               	movf	?___awtoft+2,w
  2655  01CE  00DF               	movwf	___ftneg@f1+2
  2656  01CF  3187  27EC  3180   	fcall	___ftneg
  2657  01D2  0140               	movlb	0	; select bank0
  2658  01D3  085D               	movf	?___ftneg,w
  2659  01D4  00AC               	movwf	___ftadd@f1
  2660  01D5  085E               	movf	?___ftneg+1,w
  2661  01D6  00AD               	movwf	___ftadd@f1+1
  2662  01D7  085F               	movf	?___ftneg+2,w
  2663  01D8  00AE               	movwf	___ftadd@f1+2
  2664  01D9  3186  26B4  3180   	fcall	___ftadd
  2665  01DC  0140               	movlb	0	; select bank0
  2666  01DD  082C               	movf	?___ftadd,w
  2667  01DE  00A3               	movwf	___ftmul@f2
  2668  01DF  082D               	movf	?___ftadd+1,w
  2669  01E0  00A4               	movwf	___ftmul@f2+1
  2670  01E1  082E               	movf	?___ftadd+2,w
  2671  01E2  00A5               	movwf	___ftmul@f2+2
  2672  01E3  0141               	movlb	1	; select bank1
  2673  01E4  0837               	movf	_kd^(0+128),w
  2674  01E5  0140               	movlb	0	; select bank0
  2675  01E6  00A0               	movwf	___ftmul@f1
  2676  01E7  0141               	movlb	1	; select bank1
  2677  01E8  0838               	movf	(_kd+1)^(0+128),w
  2678  01E9  0140               	movlb	0	; select bank0
  2679  01EA  00A1               	movwf	___ftmul@f1+1
  2680  01EB  0141               	movlb	1	; select bank1
  2681  01EC  0839               	movf	(_kd+2)^(0+128),w
  2682  01ED  0140               	movlb	0	; select bank0
  2683  01EE  00A2               	movwf	___ftmul@f1+2
  2684  01EF  318C  24F1  3180   	fcall	___ftmul
  2685  01F2  0140               	movlb	0	; select bank0
  2686  01F3  0820               	movf	?___ftmul,w
  2687  01F4  00E5               	movwf	_formula$1014
  2688  01F5  0821               	movf	?___ftmul+1,w
  2689  01F6  00E6               	movwf	_formula$1014+1
  2690  01F7  0822               	movf	?___ftmul+2,w
  2691  01F8  00E7               	movwf	_formula$1014+2
  2692                           
  2693                           ;main.c: 94: CCPR1=velocidad+(int)((-1)*((kp*(double)error)+kd*((double)error-(double)er
      +                          rorant)));
  2694  01F9  086F               	movf	_error+1,w
  2695  01FA  00D8               	movwf	___awtoft@c+1
  2696  01FB  086E               	movf	_error,w
  2697  01FC  00D7               	movwf	___awtoft@c
  2698  01FD  3187  27AA  3180   	fcall	___awtoft
  2699  0200  0140               	movlb	0	; select bank0
  2700  0201  0857               	movf	?___awtoft,w
  2701  0202  00A3               	movwf	___ftmul@f2
  2702  0203  0858               	movf	?___awtoft+1,w
  2703  0204  00A4               	movwf	___ftmul@f2+1
  2704  0205  0859               	movf	?___awtoft+2,w
  2705  0206  00A5               	movwf	___ftmul@f2+2
  2706  0207  0141               	movlb	1	; select bank1
  2707  0208  083A               	movf	_kp^(0+128),w
  2708  0209  0140               	movlb	0	; select bank0
  2709  020A  00A0               	movwf	___ftmul@f1
  2710  020B  0141               	movlb	1	; select bank1
  2711  020C  083B               	movf	(_kp+1)^(0+128),w
  2712  020D  0140               	movlb	0	; select bank0
  2713  020E  00A1               	movwf	___ftmul@f1+1
  2714  020F  0141               	movlb	1	; select bank1
  2715  0210  083C               	movf	(_kp+2)^(0+128),w
  2716  0211  0140               	movlb	0	; select bank0
  2717  0212  00A2               	movwf	___ftmul@f1+2
  2718  0213  318C  24F1  3180   	fcall	___ftmul
  2719  0216  0140               	movlb	0	; select bank0
  2720  0217  0820               	movf	?___ftmul,w
  2721  0218  00AF               	movwf	___ftadd@f2
  2722  0219  0821               	movf	?___ftmul+1,w
  2723  021A  00B0               	movwf	___ftadd@f2+1
  2724  021B  0822               	movf	?___ftmul+2,w
  2725  021C  00B1               	movwf	___ftadd@f2+2
  2726  021D  0865               	movf	_formula$1014,w
  2727  021E  00AC               	movwf	___ftadd@f1
  2728  021F  0866               	movf	_formula$1014+1,w
  2729  0220  00AD               	movwf	___ftadd@f1+1
  2730  0221  0867               	movf	_formula$1014+2,w
  2731  0222  00AE               	movwf	___ftadd@f1+2
  2732  0223  3186  26B4  3180   	fcall	___ftadd
  2733  0226  0140               	movlb	0	; select bank0
  2734  0227  082C               	movf	?___ftadd,w
  2735  0228  00E2               	movwf	_formula$1015
  2736  0229  082D               	movf	?___ftadd+1,w
  2737  022A  00E3               	movwf	_formula$1015+1
  2738  022B  082E               	movf	?___ftadd+2,w
  2739  022C  00E4               	movwf	_formula$1015+2
  2740                           
  2741                           ;main.c: 94: CCPR1=velocidad+(int)((-1)*((kp*(double)error)+kd*((double)error-(double)er
      +                          rorant)));
  2742  022D  0862               	movf	_formula$1015,w
  2743  022E  00A3               	movwf	___ftmul@f2
  2744  022F  0863               	movf	_formula$1015+1,w
  2745  0230  00A4               	movwf	___ftmul@f2+1
  2746  0231  0864               	movf	_formula$1015+2,w
  2747  0232  00A5               	movwf	___ftmul@f2+2
  2748  0233  3000               	movlw	0
  2749  0234  00A0               	movwf	___ftmul@f1
  2750  0235  3080               	movlw	128
  2751  0236  00A1               	movwf	___ftmul@f1+1
  2752  0237  30BF               	movlw	191
  2753  0238  00A2               	movwf	___ftmul@f1+2
  2754  0239  318C  24F1  3180   	fcall	___ftmul
  2755  023C  0140               	movlb	0	; select bank0
  2756  023D  0820               	movf	?___ftmul,w
  2757  023E  00C9               	movwf	___fttol@f1
  2758  023F  0821               	movf	?___ftmul+1,w
  2759  0240  00CA               	movwf	___fttol@f1+1
  2760  0241  0822               	movf	?___ftmul+2,w
  2761  0242  00CB               	movwf	___fttol@f1+2
  2762  0243  318B  23C1  3180   	fcall	___fttol
  2763  0246  0141               	movlb	1	; select bank1
  2764  0247  083D               	movf	_velocidad^(0+128),w
  2765  0248  0140               	movlb	0	; select bank0
  2766  0249  0749               	addwf	?___fttol,w
  2767  024A  00E0               	movwf	??_formula
  2768  024B  0141               	movlb	1	; select bank1
  2769  024C  083E               	movf	(_velocidad+1)^(0+128),w
  2770  024D  0140               	movlb	0	; select bank0
  2771  024E  3D4A               	addwfc	?___fttol+1,w
  2772  024F  00E1               	movwf	??_formula+1
  2773  0250  0860               	movf	??_formula,w
  2774  0251  0146               	movlb	6	; select bank6
  2775  0252  008C               	movwf	12	;volatile
  2776  0253  0140               	movlb	0	; select bank0
  2777  0254  0861               	movf	??_formula+1,w
  2778  0255  0146               	movlb	6	; select bank6
  2779  0256  008D               	movwf	13	;volatile
  2780                           
  2781                           ;main.c: 95: CCPR2=velocidad+(int)((-1)*((kp*(double)error)+kd*((double)error-(double)er
      +                          rorant)));
  2782  0257  0140               	movlb	0	; select bank0
  2783  0258  086F               	movf	_error+1,w
  2784  0259  00D8               	movwf	___awtoft@c+1
  2785  025A  086E               	movf	_error,w
  2786  025B  00D7               	movwf	___awtoft@c
  2787  025C  3187  27AA  3180   	fcall	___awtoft
  2788  025F  0140               	movlb	0	; select bank0
  2789  0260  0857               	movf	?___awtoft,w
  2790  0261  00AF               	movwf	___ftadd@f2
  2791  0262  0858               	movf	?___awtoft+1,w
  2792  0263  00B0               	movwf	___ftadd@f2+1
  2793  0264  0859               	movf	?___awtoft+2,w
  2794  0265  00B1               	movwf	___ftadd@f2+2
  2795  0266  0141               	movlb	1	; select bank1
  2796  0267  0827               	movf	(_errorant+1)^(0+128),w
  2797  0268  0140               	movlb	0	; select bank0
  2798  0269  00D8               	movwf	___awtoft@c+1
  2799  026A  0141               	movlb	1	; select bank1
  2800  026B  0826               	movf	_errorant^(0+128),w
  2801  026C  0140               	movlb	0	; select bank0
  2802  026D  00D7               	movwf	___awtoft@c
  2803  026E  3187  27AA  3180   	fcall	___awtoft
  2804  0271  0140               	movlb	0	; select bank0
  2805  0272  0857               	movf	?___awtoft,w
  2806  0273  00DD               	movwf	___ftneg@f1
  2807  0274  0858               	movf	?___awtoft+1,w
  2808  0275  00DE               	movwf	___ftneg@f1+1
  2809  0276  0859               	movf	?___awtoft+2,w
  2810  0277  00DF               	movwf	___ftneg@f1+2
  2811  0278  3187  27EC  3180   	fcall	___ftneg
  2812  027B  0140               	movlb	0	; select bank0
  2813  027C  085D               	movf	?___ftneg,w
  2814  027D  00AC               	movwf	___ftadd@f1
  2815  027E  085E               	movf	?___ftneg+1,w
  2816  027F  00AD               	movwf	___ftadd@f1+1
  2817  0280  085F               	movf	?___ftneg+2,w
  2818  0281  00AE               	movwf	___ftadd@f1+2
  2819  0282  3186  26B4  3180   	fcall	___ftadd
  2820  0285  0140               	movlb	0	; select bank0
  2821  0286  082C               	movf	?___ftadd,w
  2822  0287  00A3               	movwf	___ftmul@f2
  2823  0288  082D               	movf	?___ftadd+1,w
  2824  0289  00A4               	movwf	___ftmul@f2+1
  2825  028A  082E               	movf	?___ftadd+2,w
  2826  028B  00A5               	movwf	___ftmul@f2+2
  2827  028C  0141               	movlb	1	; select bank1
  2828  028D  0837               	movf	_kd^(0+128),w
  2829  028E  0140               	movlb	0	; select bank0
  2830  028F  00A0               	movwf	___ftmul@f1
  2831  0290  0141               	movlb	1	; select bank1
  2832  0291  0838               	movf	(_kd+1)^(0+128),w
  2833  0292  0140               	movlb	0	; select bank0
  2834  0293  00A1               	movwf	___ftmul@f1+1
  2835  0294  0141               	movlb	1	; select bank1
  2836  0295  0839               	movf	(_kd+2)^(0+128),w
  2837  0296  0140               	movlb	0	; select bank0
  2838  0297  00A2               	movwf	___ftmul@f1+2
  2839  0298  318C  24F1  3180   	fcall	___ftmul
  2840  029B  0140               	movlb	0	; select bank0
  2841  029C  0820               	movf	?___ftmul,w
  2842  029D  00E5               	movwf	_formula$1014
  2843  029E  0821               	movf	?___ftmul+1,w
  2844  029F  00E6               	movwf	_formula$1014+1
  2845  02A0  0822               	movf	?___ftmul+2,w
  2846  02A1  00E7               	movwf	_formula$1014+2
  2847                           
  2848                           ;main.c: 95: CCPR2=velocidad+(int)((-1)*((kp*(double)error)+kd*((double)error-(double)er
      +                          rorant)));
  2849  02A2  086F               	movf	_error+1,w
  2850  02A3  00D8               	movwf	___awtoft@c+1
  2851  02A4  086E               	movf	_error,w
  2852  02A5  00D7               	movwf	___awtoft@c
  2853  02A6  3187  27AA  3180   	fcall	___awtoft
  2854  02A9  0140               	movlb	0	; select bank0
  2855  02AA  0857               	movf	?___awtoft,w
  2856  02AB  00A3               	movwf	___ftmul@f2
  2857  02AC  0858               	movf	?___awtoft+1,w
  2858  02AD  00A4               	movwf	___ftmul@f2+1
  2859  02AE  0859               	movf	?___awtoft+2,w
  2860  02AF  00A5               	movwf	___ftmul@f2+2
  2861  02B0  0141               	movlb	1	; select bank1
  2862  02B1  083A               	movf	_kp^(0+128),w
  2863  02B2  0140               	movlb	0	; select bank0
  2864  02B3  00A0               	movwf	___ftmul@f1
  2865  02B4  0141               	movlb	1	; select bank1
  2866  02B5  083B               	movf	(_kp+1)^(0+128),w
  2867  02B6  0140               	movlb	0	; select bank0
  2868  02B7  00A1               	movwf	___ftmul@f1+1
  2869  02B8  0141               	movlb	1	; select bank1
  2870  02B9  083C               	movf	(_kp+2)^(0+128),w
  2871  02BA  0140               	movlb	0	; select bank0
  2872  02BB  00A2               	movwf	___ftmul@f1+2
  2873  02BC  318C  24F1  3180   	fcall	___ftmul
  2874  02BF  0140               	movlb	0	; select bank0
  2875  02C0  0820               	movf	?___ftmul,w
  2876  02C1  00AF               	movwf	___ftadd@f2
  2877  02C2  0821               	movf	?___ftmul+1,w
  2878  02C3  00B0               	movwf	___ftadd@f2+1
  2879  02C4  0822               	movf	?___ftmul+2,w
  2880  02C5  00B1               	movwf	___ftadd@f2+2
  2881  02C6  0865               	movf	_formula$1014,w
  2882  02C7  00AC               	movwf	___ftadd@f1
  2883  02C8  0866               	movf	_formula$1014+1,w
  2884  02C9  00AD               	movwf	___ftadd@f1+1
  2885  02CA  0867               	movf	_formula$1014+2,w
  2886  02CB  00AE               	movwf	___ftadd@f1+2
  2887  02CC  3186  26B4  3180   	fcall	___ftadd
  2888  02CF  0140               	movlb	0	; select bank0
  2889  02D0  082C               	movf	?___ftadd,w
  2890  02D1  00E2               	movwf	_formula$1015
  2891  02D2  082D               	movf	?___ftadd+1,w
  2892  02D3  00E3               	movwf	_formula$1015+1
  2893  02D4  082E               	movf	?___ftadd+2,w
  2894  02D5  00E4               	movwf	_formula$1015+2
  2895                           
  2896                           ;main.c: 95: CCPR2=velocidad+(int)((-1)*((kp*(double)error)+kd*((double)error-(double)er
      +                          rorant)));
  2897  02D6  0862               	movf	_formula$1015,w
  2898  02D7  00A3               	movwf	___ftmul@f2
  2899  02D8  0863               	movf	_formula$1015+1,w
  2900  02D9  00A4               	movwf	___ftmul@f2+1
  2901  02DA  0864               	movf	_formula$1015+2,w
  2902  02DB  00A5               	movwf	___ftmul@f2+2
  2903  02DC  3000               	movlw	0
  2904  02DD  00A0               	movwf	___ftmul@f1
  2905  02DE  3080               	movlw	128
  2906  02DF  00A1               	movwf	___ftmul@f1+1
  2907  02E0  30BF               	movlw	191
  2908  02E1  00A2               	movwf	___ftmul@f1+2
  2909  02E2  318C  24F1  3180   	fcall	___ftmul
  2910  02E5  0140               	movlb	0	; select bank0
  2911  02E6  0820               	movf	?___ftmul,w
  2912  02E7  00C9               	movwf	___fttol@f1
  2913  02E8  0821               	movf	?___ftmul+1,w
  2914  02E9  00CA               	movwf	___fttol@f1+1
  2915  02EA  0822               	movf	?___ftmul+2,w
  2916  02EB  00CB               	movwf	___fttol@f1+2
  2917  02EC  318B  23C1         	fcall	___fttol
  2918  02EE  0141               	movlb	1	; select bank1
  2919  02EF  083D               	movf	_velocidad^(0+128),w
  2920  02F0  0140               	movlb	0	; select bank0
  2921  02F1  0749               	addwf	?___fttol,w
  2922  02F2  00E0               	movwf	??_formula
  2923  02F3  0141               	movlb	1	; select bank1
  2924  02F4  083E               	movf	(_velocidad+1)^(0+128),w
  2925  02F5  0140               	movlb	0	; select bank0
  2926  02F6  3D4A               	addwfc	?___fttol+1,w
  2927  02F7  00E1               	movwf	??_formula+1
  2928  02F8  0860               	movf	??_formula,w
  2929  02F9  0146               	movlb	6	; select bank6
  2930  02FA  0090               	movwf	16	;volatile
  2931  02FB  0140               	movlb	0	; select bank0
  2932  02FC  0861               	movf	??_formula+1,w
  2933  02FD  0146               	movlb	6	; select bank6
  2934  02FE  0091               	movwf	17	;volatile
  2935                           
  2936                           ;main.c: 96: }else if(error>100){
  2937  02FF  0008               	return
  2938  0300                     l1309:	
  2939  0300  0140               	movlb	0	; select bank0
  2940  0301  086F               	movf	_error+1,w
  2941  0302  3A80               	xorlw	128
  2942  0303  00E0               	movwf	??_formula
  2943  0304  3080               	movlw	128
  2944  0305  0260               	subwf	??_formula,w
  2945  0306  1D03               	skipz
  2946  0307  2B0A               	goto	u1555
  2947  0308  3065               	movlw	101
  2948  0309  026E               	subwf	_error,w
  2949  030A                     u1555:	
  2950  030A  1C03               	skipc
  2951  030B  2C36               	goto	l112
  2952                           
  2953                           ;main.c: 98: TRISBbits.TRISB0=1;
  2954  030C  0140               	movlb	0	; select bank0
  2955  030D  1412               	bsf	18,0	;volatile
  2956                           
  2957                           ;main.c: 99: TRISBbits.TRISB1=0;
  2958  030E  1092               	bcf	18,1	;volatile
  2959                           
  2960                           ;main.c: 100: TRISBbits.TRISB2=0;
  2961  030F  1112               	bcf	18,2	;volatile
  2962                           
  2963                           ;main.c: 101: TRISBbits.TRISB3=1;
  2964  0310  1592               	bsf	18,3	;volatile
  2965                           
  2966                           ;main.c: 102: CCPR1=velocidad+(int)((kp*(double)error)+kd*((double)error-(double)erroran
      +                          t));
  2967  0311  086F               	movf	_error+1,w
  2968  0312  00D8               	movwf	___awtoft@c+1
  2969  0313  086E               	movf	_error,w
  2970  0314  00D7               	movwf	___awtoft@c
  2971  0315  3187  27AA  3180   	fcall	___awtoft
  2972  0318  0140               	movlb	0	; select bank0
  2973  0319  0857               	movf	?___awtoft,w
  2974  031A  00AF               	movwf	___ftadd@f2
  2975  031B  0858               	movf	?___awtoft+1,w
  2976  031C  00B0               	movwf	___ftadd@f2+1
  2977  031D  0859               	movf	?___awtoft+2,w
  2978  031E  00B1               	movwf	___ftadd@f2+2
  2979  031F  0141               	movlb	1	; select bank1
  2980  0320  0827               	movf	(_errorant+1)^(0+128),w
  2981  0321  0140               	movlb	0	; select bank0
  2982  0322  00D8               	movwf	___awtoft@c+1
  2983  0323  0141               	movlb	1	; select bank1
  2984  0324  0826               	movf	_errorant^(0+128),w
  2985  0325  0140               	movlb	0	; select bank0
  2986  0326  00D7               	movwf	___awtoft@c
  2987  0327  3187  27AA  3180   	fcall	___awtoft
  2988  032A  0140               	movlb	0	; select bank0
  2989  032B  0857               	movf	?___awtoft,w
  2990  032C  00DD               	movwf	___ftneg@f1
  2991  032D  0858               	movf	?___awtoft+1,w
  2992  032E  00DE               	movwf	___ftneg@f1+1
  2993  032F  0859               	movf	?___awtoft+2,w
  2994  0330  00DF               	movwf	___ftneg@f1+2
  2995  0331  3187  27EC  3180   	fcall	___ftneg
  2996  0334  0140               	movlb	0	; select bank0
  2997  0335  085D               	movf	?___ftneg,w
  2998  0336  00AC               	movwf	___ftadd@f1
  2999  0337  085E               	movf	?___ftneg+1,w
  3000  0338  00AD               	movwf	___ftadd@f1+1
  3001  0339  085F               	movf	?___ftneg+2,w
  3002  033A  00AE               	movwf	___ftadd@f1+2
  3003  033B  3186  26B4  3180   	fcall	___ftadd
  3004  033E  0140               	movlb	0	; select bank0
  3005  033F  082C               	movf	?___ftadd,w
  3006  0340  00A3               	movwf	___ftmul@f2
  3007  0341  082D               	movf	?___ftadd+1,w
  3008  0342  00A4               	movwf	___ftmul@f2+1
  3009  0343  082E               	movf	?___ftadd+2,w
  3010  0344  00A5               	movwf	___ftmul@f2+2
  3011  0345  0141               	movlb	1	; select bank1
  3012  0346  0837               	movf	_kd^(0+128),w
  3013  0347  0140               	movlb	0	; select bank0
  3014  0348  00A0               	movwf	___ftmul@f1
  3015  0349  0141               	movlb	1	; select bank1
  3016  034A  0838               	movf	(_kd+1)^(0+128),w
  3017  034B  0140               	movlb	0	; select bank0
  3018  034C  00A1               	movwf	___ftmul@f1+1
  3019  034D  0141               	movlb	1	; select bank1
  3020  034E  0839               	movf	(_kd+2)^(0+128),w
  3021  034F  0140               	movlb	0	; select bank0
  3022  0350  00A2               	movwf	___ftmul@f1+2
  3023  0351  318C  24F1  3180   	fcall	___ftmul
  3024  0354  0140               	movlb	0	; select bank0
  3025  0355  0820               	movf	?___ftmul,w
  3026  0356  00E5               	movwf	_formula$1014
  3027  0357  0821               	movf	?___ftmul+1,w
  3028  0358  00E6               	movwf	_formula$1014+1
  3029  0359  0822               	movf	?___ftmul+2,w
  3030  035A  00E7               	movwf	_formula$1014+2
  3031                           
  3032                           ;main.c: 102: CCPR1=velocidad+(int)((kp*(double)error)+kd*((double)error-(double)erroran
      +                          t));
  3033  035B  086F               	movf	_error+1,w
  3034  035C  00D8               	movwf	___awtoft@c+1
  3035  035D  086E               	movf	_error,w
  3036  035E  00D7               	movwf	___awtoft@c
  3037  035F  3187  27AA  3180   	fcall	___awtoft
  3038  0362  0140               	movlb	0	; select bank0
  3039  0363  0857               	movf	?___awtoft,w
  3040  0364  00A3               	movwf	___ftmul@f2
  3041  0365  0858               	movf	?___awtoft+1,w
  3042  0366  00A4               	movwf	___ftmul@f2+1
  3043  0367  0859               	movf	?___awtoft+2,w
  3044  0368  00A5               	movwf	___ftmul@f2+2
  3045  0369  0141               	movlb	1	; select bank1
  3046  036A  083A               	movf	_kp^(0+128),w
  3047  036B  0140               	movlb	0	; select bank0
  3048  036C  00A0               	movwf	___ftmul@f1
  3049  036D  0141               	movlb	1	; select bank1
  3050  036E  083B               	movf	(_kp+1)^(0+128),w
  3051  036F  0140               	movlb	0	; select bank0
  3052  0370  00A1               	movwf	___ftmul@f1+1
  3053  0371  0141               	movlb	1	; select bank1
  3054  0372  083C               	movf	(_kp+2)^(0+128),w
  3055  0373  0140               	movlb	0	; select bank0
  3056  0374  00A2               	movwf	___ftmul@f1+2
  3057  0375  318C  24F1  3180   	fcall	___ftmul
  3058  0378  0140               	movlb	0	; select bank0
  3059  0379  0820               	movf	?___ftmul,w
  3060  037A  00AF               	movwf	___ftadd@f2
  3061  037B  0821               	movf	?___ftmul+1,w
  3062  037C  00B0               	movwf	___ftadd@f2+1
  3063  037D  0822               	movf	?___ftmul+2,w
  3064  037E  00B1               	movwf	___ftadd@f2+2
  3065  037F  0865               	movf	_formula$1014,w
  3066  0380  00AC               	movwf	___ftadd@f1
  3067  0381  0866               	movf	_formula$1014+1,w
  3068  0382  00AD               	movwf	___ftadd@f1+1
  3069  0383  0867               	movf	_formula$1014+2,w
  3070  0384  00AE               	movwf	___ftadd@f1+2
  3071  0385  3186  26B4  3180   	fcall	___ftadd
  3072  0388  0140               	movlb	0	; select bank0
  3073  0389  082C               	movf	?___ftadd,w
  3074  038A  00C9               	movwf	___fttol@f1
  3075  038B  082D               	movf	?___ftadd+1,w
  3076  038C  00CA               	movwf	___fttol@f1+1
  3077  038D  082E               	movf	?___ftadd+2,w
  3078  038E  00CB               	movwf	___fttol@f1+2
  3079  038F  318B  23C1  3180   	fcall	___fttol
  3080  0392  0141               	movlb	1	; select bank1
  3081  0393  083D               	movf	_velocidad^(0+128),w
  3082  0394  0140               	movlb	0	; select bank0
  3083  0395  0749               	addwf	?___fttol,w
  3084  0396  00E0               	movwf	??_formula
  3085  0397  0141               	movlb	1	; select bank1
  3086  0398  083E               	movf	(_velocidad+1)^(0+128),w
  3087  0399  0140               	movlb	0	; select bank0
  3088  039A  3D4A               	addwfc	?___fttol+1,w
  3089  039B  00E1               	movwf	??_formula+1
  3090  039C  0860               	movf	??_formula,w
  3091  039D  0146               	movlb	6	; select bank6
  3092  039E  008C               	movwf	12	;volatile
  3093  039F  0140               	movlb	0	; select bank0
  3094  03A0  0861               	movf	??_formula+1,w
  3095  03A1  0146               	movlb	6	; select bank6
  3096  03A2  008D               	movwf	13	;volatile
  3097                           
  3098                           ;main.c: 103: CCPR2=velocidad+(int)((kp*(double)error)+kd*((double)error-(double)erroran
      +                          t));
  3099  03A3  0140               	movlb	0	; select bank0
  3100  03A4  086F               	movf	_error+1,w
  3101  03A5  00D8               	movwf	___awtoft@c+1
  3102  03A6  086E               	movf	_error,w
  3103  03A7  00D7               	movwf	___awtoft@c
  3104  03A8  3187  27AA  3180   	fcall	___awtoft
  3105  03AB  0140               	movlb	0	; select bank0
  3106  03AC  0857               	movf	?___awtoft,w
  3107  03AD  00AF               	movwf	___ftadd@f2
  3108  03AE  0858               	movf	?___awtoft+1,w
  3109  03AF  00B0               	movwf	___ftadd@f2+1
  3110  03B0  0859               	movf	?___awtoft+2,w
  3111  03B1  00B1               	movwf	___ftadd@f2+2
  3112  03B2  0141               	movlb	1	; select bank1
  3113  03B3  0827               	movf	(_errorant+1)^(0+128),w
  3114  03B4  0140               	movlb	0	; select bank0
  3115  03B5  00D8               	movwf	___awtoft@c+1
  3116  03B6  0141               	movlb	1	; select bank1
  3117  03B7  0826               	movf	_errorant^(0+128),w
  3118  03B8  0140               	movlb	0	; select bank0
  3119  03B9  00D7               	movwf	___awtoft@c
  3120  03BA  3187  27AA  3180   	fcall	___awtoft
  3121  03BD  0140               	movlb	0	; select bank0
  3122  03BE  0857               	movf	?___awtoft,w
  3123  03BF  00DD               	movwf	___ftneg@f1
  3124  03C0  0858               	movf	?___awtoft+1,w
  3125  03C1  00DE               	movwf	___ftneg@f1+1
  3126  03C2  0859               	movf	?___awtoft+2,w
  3127  03C3  00DF               	movwf	___ftneg@f1+2
  3128  03C4  3187  27EC  3180   	fcall	___ftneg
  3129  03C7  0140               	movlb	0	; select bank0
  3130  03C8  085D               	movf	?___ftneg,w
  3131  03C9  00AC               	movwf	___ftadd@f1
  3132  03CA  085E               	movf	?___ftneg+1,w
  3133  03CB  00AD               	movwf	___ftadd@f1+1
  3134  03CC  085F               	movf	?___ftneg+2,w
  3135  03CD  00AE               	movwf	___ftadd@f1+2
  3136  03CE  3186  26B4  3180   	fcall	___ftadd
  3137  03D1  0140               	movlb	0	; select bank0
  3138  03D2  082C               	movf	?___ftadd,w
  3139  03D3  00A3               	movwf	___ftmul@f2
  3140  03D4  082D               	movf	?___ftadd+1,w
  3141  03D5  00A4               	movwf	___ftmul@f2+1
  3142  03D6  082E               	movf	?___ftadd+2,w
  3143  03D7  00A5               	movwf	___ftmul@f2+2
  3144  03D8  0141               	movlb	1	; select bank1
  3145  03D9  0837               	movf	_kd^(0+128),w
  3146  03DA  0140               	movlb	0	; select bank0
  3147  03DB  00A0               	movwf	___ftmul@f1
  3148  03DC  0141               	movlb	1	; select bank1
  3149  03DD  0838               	movf	(_kd+1)^(0+128),w
  3150  03DE  0140               	movlb	0	; select bank0
  3151  03DF  00A1               	movwf	___ftmul@f1+1
  3152  03E0  0141               	movlb	1	; select bank1
  3153  03E1  0839               	movf	(_kd+2)^(0+128),w
  3154  03E2  0140               	movlb	0	; select bank0
  3155  03E3  00A2               	movwf	___ftmul@f1+2
  3156  03E4  318C  24F1  3180   	fcall	___ftmul
  3157  03E7  0140               	movlb	0	; select bank0
  3158  03E8  0820               	movf	?___ftmul,w
  3159  03E9  00E5               	movwf	_formula$1014
  3160  03EA  0821               	movf	?___ftmul+1,w
  3161  03EB  00E6               	movwf	_formula$1014+1
  3162  03EC  0822               	movf	?___ftmul+2,w
  3163  03ED  00E7               	movwf	_formula$1014+2
  3164                           
  3165                           ;main.c: 103: CCPR2=velocidad+(int)((kp*(double)error)+kd*((double)error-(double)erroran
      +                          t));
  3166  03EE  086F               	movf	_error+1,w
  3167  03EF  00D8               	movwf	___awtoft@c+1
  3168  03F0  086E               	movf	_error,w
  3169  03F1  00D7               	movwf	___awtoft@c
  3170  03F2  3187  27AA  3180   	fcall	___awtoft
  3171  03F5  0140               	movlb	0	; select bank0
  3172  03F6  0857               	movf	?___awtoft,w
  3173  03F7  00A3               	movwf	___ftmul@f2
  3174  03F8  0858               	movf	?___awtoft+1,w
  3175  03F9  00A4               	movwf	___ftmul@f2+1
  3176  03FA  0859               	movf	?___awtoft+2,w
  3177  03FB  00A5               	movwf	___ftmul@f2+2
  3178  03FC  0141               	movlb	1	; select bank1
  3179  03FD  083A               	movf	_kp^(0+128),w
  3180  03FE  0140               	movlb	0	; select bank0
  3181  03FF  00A0               	movwf	___ftmul@f1
  3182  0400  0141               	movlb	1	; select bank1
  3183  0401  083B               	movf	(_kp+1)^(0+128),w
  3184  0402  0140               	movlb	0	; select bank0
  3185  0403  00A1               	movwf	___ftmul@f1+1
  3186  0404  0141               	movlb	1	; select bank1
  3187  0405  083C               	movf	(_kp+2)^(0+128),w
  3188  0406  0140               	movlb	0	; select bank0
  3189  0407  00A2               	movwf	___ftmul@f1+2
  3190  0408  318C  24F1  3180   	fcall	___ftmul
  3191  040B  0140               	movlb	0	; select bank0
  3192  040C  0820               	movf	?___ftmul,w
  3193  040D  00AF               	movwf	___ftadd@f2
  3194  040E  0821               	movf	?___ftmul+1,w
  3195  040F  00B0               	movwf	___ftadd@f2+1
  3196  0410  0822               	movf	?___ftmul+2,w
  3197  0411  00B1               	movwf	___ftadd@f2+2
  3198  0412  0865               	movf	_formula$1014,w
  3199  0413  00AC               	movwf	___ftadd@f1
  3200  0414  0866               	movf	_formula$1014+1,w
  3201  0415  00AD               	movwf	___ftadd@f1+1
  3202  0416  0867               	movf	_formula$1014+2,w
  3203  0417  00AE               	movwf	___ftadd@f1+2
  3204  0418  3186  26B4  3180   	fcall	___ftadd
  3205  041B  0140               	movlb	0	; select bank0
  3206  041C  082C               	movf	?___ftadd,w
  3207  041D  00C9               	movwf	___fttol@f1
  3208  041E  082D               	movf	?___ftadd+1,w
  3209  041F  00CA               	movwf	___fttol@f1+1
  3210  0420  082E               	movf	?___ftadd+2,w
  3211  0421  00CB               	movwf	___fttol@f1+2
  3212  0422  318B  23C1         	fcall	___fttol
  3213  0424  0141               	movlb	1	; select bank1
  3214  0425  083D               	movf	_velocidad^(0+128),w
  3215  0426  0140               	movlb	0	; select bank0
  3216  0427  0749               	addwf	?___fttol,w
  3217  0428  00E0               	movwf	??_formula
  3218  0429  0141               	movlb	1	; select bank1
  3219  042A  083E               	movf	(_velocidad+1)^(0+128),w
  3220  042B  0140               	movlb	0	; select bank0
  3221  042C  3D4A               	addwfc	?___fttol+1,w
  3222  042D  00E1               	movwf	??_formula+1
  3223  042E  0860               	movf	??_formula,w
  3224  042F  0146               	movlb	6	; select bank6
  3225  0430  0090               	movwf	16	;volatile
  3226  0431  0140               	movlb	0	; select bank0
  3227  0432  0861               	movf	??_formula+1,w
  3228  0433  0146               	movlb	6	; select bank6
  3229  0434  0091               	movwf	17	;volatile
  3230                           
  3231                           ;main.c: 104: }else {
  3232  0435  0008               	return
  3233  0436                     l112:	
  3234                           
  3235                           ;main.c: 106: TRISBbits.TRISB0=0;
  3236  0436  0140               	movlb	0	; select bank0
  3237  0437  1012               	bcf	18,0	;volatile
  3238                           
  3239                           ;main.c: 107: TRISBbits.TRISB1=1;
  3240  0438  1492               	bsf	18,1	;volatile
  3241                           
  3242                           ;main.c: 108: TRISBbits.TRISB2=0;
  3243  0439  1112               	bcf	18,2	;volatile
  3244                           
  3245                           ;main.c: 109: TRISBbits.TRISB3=1;
  3246  043A  1592               	bsf	18,3	;volatile
  3247                           
  3248                           ;main.c: 111: if(error<0){
  3249  043B  1FEF               	btfss	_error+1,7
  3250  043C  2D8E               	goto	l1317
  3251                           
  3252                           ;main.c: 112: CCPR1=velocidad+(int)((-1)*((kp*(double)error)+kd*((double)error-(double)e
      +                          rrorant)));
  3253  043D  086F               	movf	_error+1,w
  3254  043E  00D8               	movwf	___awtoft@c+1
  3255  043F  086E               	movf	_error,w
  3256  0440  00D7               	movwf	___awtoft@c
  3257  0441  3187  27AA  3180   	fcall	___awtoft
  3258  0444  0140               	movlb	0	; select bank0
  3259  0445  0857               	movf	?___awtoft,w
  3260  0446  00AF               	movwf	___ftadd@f2
  3261  0447  0858               	movf	?___awtoft+1,w
  3262  0448  00B0               	movwf	___ftadd@f2+1
  3263  0449  0859               	movf	?___awtoft+2,w
  3264  044A  00B1               	movwf	___ftadd@f2+2
  3265  044B  0141               	movlb	1	; select bank1
  3266  044C  0827               	movf	(_errorant+1)^(0+128),w
  3267  044D  0140               	movlb	0	; select bank0
  3268  044E  00D8               	movwf	___awtoft@c+1
  3269  044F  0141               	movlb	1	; select bank1
  3270  0450  0826               	movf	_errorant^(0+128),w
  3271  0451  0140               	movlb	0	; select bank0
  3272  0452  00D7               	movwf	___awtoft@c
  3273  0453  3187  27AA  3180   	fcall	___awtoft
  3274  0456  0140               	movlb	0	; select bank0
  3275  0457  0857               	movf	?___awtoft,w
  3276  0458  00DD               	movwf	___ftneg@f1
  3277  0459  0858               	movf	?___awtoft+1,w
  3278  045A  00DE               	movwf	___ftneg@f1+1
  3279  045B  0859               	movf	?___awtoft+2,w
  3280  045C  00DF               	movwf	___ftneg@f1+2
  3281  045D  3187  27EC  3180   	fcall	___ftneg
  3282  0460  0140               	movlb	0	; select bank0
  3283  0461  085D               	movf	?___ftneg,w
  3284  0462  00AC               	movwf	___ftadd@f1
  3285  0463  085E               	movf	?___ftneg+1,w
  3286  0464  00AD               	movwf	___ftadd@f1+1
  3287  0465  085F               	movf	?___ftneg+2,w
  3288  0466  00AE               	movwf	___ftadd@f1+2
  3289  0467  3186  26B4  3180   	fcall	___ftadd
  3290  046A  0140               	movlb	0	; select bank0
  3291  046B  082C               	movf	?___ftadd,w
  3292  046C  00A3               	movwf	___ftmul@f2
  3293  046D  082D               	movf	?___ftadd+1,w
  3294  046E  00A4               	movwf	___ftmul@f2+1
  3295  046F  082E               	movf	?___ftadd+2,w
  3296  0470  00A5               	movwf	___ftmul@f2+2
  3297  0471  0141               	movlb	1	; select bank1
  3298  0472  0837               	movf	_kd^(0+128),w
  3299  0473  0140               	movlb	0	; select bank0
  3300  0474  00A0               	movwf	___ftmul@f1
  3301  0475  0141               	movlb	1	; select bank1
  3302  0476  0838               	movf	(_kd+1)^(0+128),w
  3303  0477  0140               	movlb	0	; select bank0
  3304  0478  00A1               	movwf	___ftmul@f1+1
  3305  0479  0141               	movlb	1	; select bank1
  3306  047A  0839               	movf	(_kd+2)^(0+128),w
  3307  047B  0140               	movlb	0	; select bank0
  3308  047C  00A2               	movwf	___ftmul@f1+2
  3309  047D  318C  24F1  3180   	fcall	___ftmul
  3310  0480  0140               	movlb	0	; select bank0
  3311  0481  0820               	movf	?___ftmul,w
  3312  0482  00E5               	movwf	_formula$1014
  3313  0483  0821               	movf	?___ftmul+1,w
  3314  0484  00E6               	movwf	_formula$1014+1
  3315  0485  0822               	movf	?___ftmul+2,w
  3316  0486  00E7               	movwf	_formula$1014+2
  3317                           
  3318                           ;main.c: 112: CCPR1=velocidad+(int)((-1)*((kp*(double)error)+kd*((double)error-(double)e
      +                          rrorant)));
  3319  0487  086F               	movf	_error+1,w
  3320  0488  00D8               	movwf	___awtoft@c+1
  3321  0489  086E               	movf	_error,w
  3322  048A  00D7               	movwf	___awtoft@c
  3323  048B  3187  27AA  3180   	fcall	___awtoft
  3324  048E  0140               	movlb	0	; select bank0
  3325  048F  0857               	movf	?___awtoft,w
  3326  0490  00A3               	movwf	___ftmul@f2
  3327  0491  0858               	movf	?___awtoft+1,w
  3328  0492  00A4               	movwf	___ftmul@f2+1
  3329  0493  0859               	movf	?___awtoft+2,w
  3330  0494  00A5               	movwf	___ftmul@f2+2
  3331  0495  0141               	movlb	1	; select bank1
  3332  0496  083A               	movf	_kp^(0+128),w
  3333  0497  0140               	movlb	0	; select bank0
  3334  0498  00A0               	movwf	___ftmul@f1
  3335  0499  0141               	movlb	1	; select bank1
  3336  049A  083B               	movf	(_kp+1)^(0+128),w
  3337  049B  0140               	movlb	0	; select bank0
  3338  049C  00A1               	movwf	___ftmul@f1+1
  3339  049D  0141               	movlb	1	; select bank1
  3340  049E  083C               	movf	(_kp+2)^(0+128),w
  3341  049F  0140               	movlb	0	; select bank0
  3342  04A0  00A2               	movwf	___ftmul@f1+2
  3343  04A1  318C  24F1  3180   	fcall	___ftmul
  3344  04A4  0140               	movlb	0	; select bank0
  3345  04A5  0820               	movf	?___ftmul,w
  3346  04A6  00AF               	movwf	___ftadd@f2
  3347  04A7  0821               	movf	?___ftmul+1,w
  3348  04A8  00B0               	movwf	___ftadd@f2+1
  3349  04A9  0822               	movf	?___ftmul+2,w
  3350  04AA  00B1               	movwf	___ftadd@f2+2
  3351  04AB  0865               	movf	_formula$1014,w
  3352  04AC  00AC               	movwf	___ftadd@f1
  3353  04AD  0866               	movf	_formula$1014+1,w
  3354  04AE  00AD               	movwf	___ftadd@f1+1
  3355  04AF  0867               	movf	_formula$1014+2,w
  3356  04B0  00AE               	movwf	___ftadd@f1+2
  3357  04B1  3186  26B4  3180   	fcall	___ftadd
  3358  04B4  0140               	movlb	0	; select bank0
  3359  04B5  082C               	movf	?___ftadd,w
  3360  04B6  00E2               	movwf	_formula$1015
  3361  04B7  082D               	movf	?___ftadd+1,w
  3362  04B8  00E3               	movwf	_formula$1015+1
  3363  04B9  082E               	movf	?___ftadd+2,w
  3364  04BA  00E4               	movwf	_formula$1015+2
  3365                           
  3366                           ;main.c: 112: CCPR1=velocidad+(int)((-1)*((kp*(double)error)+kd*((double)error-(double)e
      +                          rrorant)));
  3367  04BB  0862               	movf	_formula$1015,w
  3368  04BC  00A3               	movwf	___ftmul@f2
  3369  04BD  0863               	movf	_formula$1015+1,w
  3370  04BE  00A4               	movwf	___ftmul@f2+1
  3371  04BF  0864               	movf	_formula$1015+2,w
  3372  04C0  00A5               	movwf	___ftmul@f2+2
  3373  04C1  3000               	movlw	0
  3374  04C2  00A0               	movwf	___ftmul@f1
  3375  04C3  3080               	movlw	128
  3376  04C4  00A1               	movwf	___ftmul@f1+1
  3377  04C5  30BF               	movlw	191
  3378  04C6  00A2               	movwf	___ftmul@f1+2
  3379  04C7  318C  24F1  3180   	fcall	___ftmul
  3380  04CA  0140               	movlb	0	; select bank0
  3381  04CB  0820               	movf	?___ftmul,w
  3382  04CC  00C9               	movwf	___fttol@f1
  3383  04CD  0821               	movf	?___ftmul+1,w
  3384  04CE  00CA               	movwf	___fttol@f1+1
  3385  04CF  0822               	movf	?___ftmul+2,w
  3386  04D0  00CB               	movwf	___fttol@f1+2
  3387  04D1  318B  23C1  3180   	fcall	___fttol
  3388  04D4  0141               	movlb	1	; select bank1
  3389  04D5  083D               	movf	_velocidad^(0+128),w
  3390  04D6  0140               	movlb	0	; select bank0
  3391  04D7  0749               	addwf	?___fttol,w
  3392  04D8  00E0               	movwf	??_formula
  3393  04D9  0141               	movlb	1	; select bank1
  3394  04DA  083E               	movf	(_velocidad+1)^(0+128),w
  3395  04DB  0140               	movlb	0	; select bank0
  3396  04DC  3D4A               	addwfc	?___fttol+1,w
  3397  04DD  00E1               	movwf	??_formula+1
  3398  04DE  0860               	movf	??_formula,w
  3399  04DF  0146               	movlb	6	; select bank6
  3400  04E0  008C               	movwf	12	;volatile
  3401  04E1  0140               	movlb	0	; select bank0
  3402  04E2  0861               	movf	??_formula+1,w
  3403  04E3  0146               	movlb	6	; select bank6
  3404  04E4  008D               	movwf	13	;volatile
  3405                           
  3406                           ;main.c: 113: CCPR2=velocidad+(int)((-1)*((kp*(double)error)+kd*((double)error-(double)e
      +                          rrorant)));
  3407  04E5  0140               	movlb	0	; select bank0
  3408  04E6  086F               	movf	_error+1,w
  3409  04E7  00D8               	movwf	___awtoft@c+1
  3410  04E8  086E               	movf	_error,w
  3411  04E9  00D7               	movwf	___awtoft@c
  3412  04EA  3187  27AA  3180   	fcall	___awtoft
  3413  04ED  0140               	movlb	0	; select bank0
  3414  04EE  0857               	movf	?___awtoft,w
  3415  04EF  00AF               	movwf	___ftadd@f2
  3416  04F0  0858               	movf	?___awtoft+1,w
  3417  04F1  00B0               	movwf	___ftadd@f2+1
  3418  04F2  0859               	movf	?___awtoft+2,w
  3419  04F3  00B1               	movwf	___ftadd@f2+2
  3420  04F4  0141               	movlb	1	; select bank1
  3421  04F5  0827               	movf	(_errorant+1)^(0+128),w
  3422  04F6  0140               	movlb	0	; select bank0
  3423  04F7  00D8               	movwf	___awtoft@c+1
  3424  04F8  0141               	movlb	1	; select bank1
  3425  04F9  0826               	movf	_errorant^(0+128),w
  3426  04FA  0140               	movlb	0	; select bank0
  3427  04FB  00D7               	movwf	___awtoft@c
  3428  04FC  3187  27AA  3180   	fcall	___awtoft
  3429  04FF  0140               	movlb	0	; select bank0
  3430  0500  0857               	movf	?___awtoft,w
  3431  0501  00DD               	movwf	___ftneg@f1
  3432  0502  0858               	movf	?___awtoft+1,w
  3433  0503  00DE               	movwf	___ftneg@f1+1
  3434  0504  0859               	movf	?___awtoft+2,w
  3435  0505  00DF               	movwf	___ftneg@f1+2
  3436  0506  3187  27EC  3180   	fcall	___ftneg
  3437  0509  0140               	movlb	0	; select bank0
  3438  050A  085D               	movf	?___ftneg,w
  3439  050B  00AC               	movwf	___ftadd@f1
  3440  050C  085E               	movf	?___ftneg+1,w
  3441  050D  00AD               	movwf	___ftadd@f1+1
  3442  050E  085F               	movf	?___ftneg+2,w
  3443  050F  00AE               	movwf	___ftadd@f1+2
  3444  0510  3186  26B4  3180   	fcall	___ftadd
  3445  0513  0140               	movlb	0	; select bank0
  3446  0514  082C               	movf	?___ftadd,w
  3447  0515  00A3               	movwf	___ftmul@f2
  3448  0516  082D               	movf	?___ftadd+1,w
  3449  0517  00A4               	movwf	___ftmul@f2+1
  3450  0518  082E               	movf	?___ftadd+2,w
  3451  0519  00A5               	movwf	___ftmul@f2+2
  3452  051A  0141               	movlb	1	; select bank1
  3453  051B  0837               	movf	_kd^(0+128),w
  3454  051C  0140               	movlb	0	; select bank0
  3455  051D  00A0               	movwf	___ftmul@f1
  3456  051E  0141               	movlb	1	; select bank1
  3457  051F  0838               	movf	(_kd+1)^(0+128),w
  3458  0520  0140               	movlb	0	; select bank0
  3459  0521  00A1               	movwf	___ftmul@f1+1
  3460  0522  0141               	movlb	1	; select bank1
  3461  0523  0839               	movf	(_kd+2)^(0+128),w
  3462  0524  0140               	movlb	0	; select bank0
  3463  0525  00A2               	movwf	___ftmul@f1+2
  3464  0526  318C  24F1  3180   	fcall	___ftmul
  3465  0529  0140               	movlb	0	; select bank0
  3466  052A  0820               	movf	?___ftmul,w
  3467  052B  00E5               	movwf	_formula$1014
  3468  052C  0821               	movf	?___ftmul+1,w
  3469  052D  00E6               	movwf	_formula$1014+1
  3470  052E  0822               	movf	?___ftmul+2,w
  3471  052F  00E7               	movwf	_formula$1014+2
  3472                           
  3473                           ;main.c: 113: CCPR2=velocidad+(int)((-1)*((kp*(double)error)+kd*((double)error-(double)e
      +                          rrorant)));
  3474  0530  086F               	movf	_error+1,w
  3475  0531  00D8               	movwf	___awtoft@c+1
  3476  0532  086E               	movf	_error,w
  3477  0533  00D7               	movwf	___awtoft@c
  3478  0534  3187  27AA  3180   	fcall	___awtoft
  3479  0537  0140               	movlb	0	; select bank0
  3480  0538  0857               	movf	?___awtoft,w
  3481  0539  00A3               	movwf	___ftmul@f2
  3482  053A  0858               	movf	?___awtoft+1,w
  3483  053B  00A4               	movwf	___ftmul@f2+1
  3484  053C  0859               	movf	?___awtoft+2,w
  3485  053D  00A5               	movwf	___ftmul@f2+2
  3486  053E  0141               	movlb	1	; select bank1
  3487  053F  083A               	movf	_kp^(0+128),w
  3488  0540  0140               	movlb	0	; select bank0
  3489  0541  00A0               	movwf	___ftmul@f1
  3490  0542  0141               	movlb	1	; select bank1
  3491  0543  083B               	movf	(_kp+1)^(0+128),w
  3492  0544  0140               	movlb	0	; select bank0
  3493  0545  00A1               	movwf	___ftmul@f1+1
  3494  0546  0141               	movlb	1	; select bank1
  3495  0547  083C               	movf	(_kp+2)^(0+128),w
  3496  0548  0140               	movlb	0	; select bank0
  3497  0549  00A2               	movwf	___ftmul@f1+2
  3498  054A  318C  24F1  3180   	fcall	___ftmul
  3499  054D  0140               	movlb	0	; select bank0
  3500  054E  0820               	movf	?___ftmul,w
  3501  054F  00AF               	movwf	___ftadd@f2
  3502  0550  0821               	movf	?___ftmul+1,w
  3503  0551  00B0               	movwf	___ftadd@f2+1
  3504  0552  0822               	movf	?___ftmul+2,w
  3505  0553  00B1               	movwf	___ftadd@f2+2
  3506  0554  0865               	movf	_formula$1014,w
  3507  0555  00AC               	movwf	___ftadd@f1
  3508  0556  0866               	movf	_formula$1014+1,w
  3509  0557  00AD               	movwf	___ftadd@f1+1
  3510  0558  0867               	movf	_formula$1014+2,w
  3511  0559  00AE               	movwf	___ftadd@f1+2
  3512  055A  3186  26B4  3180   	fcall	___ftadd
  3513  055D  0140               	movlb	0	; select bank0
  3514  055E  082C               	movf	?___ftadd,w
  3515  055F  00E2               	movwf	_formula$1015
  3516  0560  082D               	movf	?___ftadd+1,w
  3517  0561  00E3               	movwf	_formula$1015+1
  3518  0562  082E               	movf	?___ftadd+2,w
  3519  0563  00E4               	movwf	_formula$1015+2
  3520                           
  3521                           ;main.c: 113: CCPR2=velocidad+(int)((-1)*((kp*(double)error)+kd*((double)error-(double)e
      +                          rrorant)));
  3522  0564  0862               	movf	_formula$1015,w
  3523  0565  00A3               	movwf	___ftmul@f2
  3524  0566  0863               	movf	_formula$1015+1,w
  3525  0567  00A4               	movwf	___ftmul@f2+1
  3526  0568  0864               	movf	_formula$1015+2,w
  3527  0569  00A5               	movwf	___ftmul@f2+2
  3528  056A  3000               	movlw	0
  3529  056B  00A0               	movwf	___ftmul@f1
  3530  056C  3080               	movlw	128
  3531  056D  00A1               	movwf	___ftmul@f1+1
  3532  056E  30BF               	movlw	191
  3533  056F  00A2               	movwf	___ftmul@f1+2
  3534  0570  318C  24F1  3180   	fcall	___ftmul
  3535  0573  0140               	movlb	0	; select bank0
  3536  0574  0820               	movf	?___ftmul,w
  3537  0575  00C9               	movwf	___fttol@f1
  3538  0576  0821               	movf	?___ftmul+1,w
  3539  0577  00CA               	movwf	___fttol@f1+1
  3540  0578  0822               	movf	?___ftmul+2,w
  3541  0579  00CB               	movwf	___fttol@f1+2
  3542  057A  318B  23C1         	fcall	___fttol
  3543  057C  0141               	movlb	1	; select bank1
  3544  057D  083D               	movf	_velocidad^(0+128),w
  3545  057E  0140               	movlb	0	; select bank0
  3546  057F  0749               	addwf	?___fttol,w
  3547  0580  00E0               	movwf	??_formula
  3548  0581  0141               	movlb	1	; select bank1
  3549  0582  083E               	movf	(_velocidad+1)^(0+128),w
  3550  0583  0140               	movlb	0	; select bank0
  3551  0584  3D4A               	addwfc	?___fttol+1,w
  3552  0585  00E1               	movwf	??_formula+1
  3553  0586  0860               	movf	??_formula,w
  3554  0587  0146               	movlb	6	; select bank6
  3555  0588  0090               	movwf	16	;volatile
  3556  0589  0140               	movlb	0	; select bank0
  3557  058A  0861               	movf	??_formula+1,w
  3558  058B  0146               	movlb	6	; select bank6
  3559  058C  0091               	movwf	17	;volatile
  3560                           
  3561                           ;main.c: 114: }else{
  3562  058D  0008               	return
  3563  058E                     l1317:	
  3564                           
  3565                           ;main.c: 115: CCPR1=velocidad+(int)((kp*(double)error)+kd*((double)error-(double)erroran
      +                          t));
  3566  058E  0140               	movlb	0	; select bank0
  3567  058F  086F               	movf	_error+1,w
  3568  0590  00D8               	movwf	___awtoft@c+1
  3569  0591  086E               	movf	_error,w
  3570  0592  00D7               	movwf	___awtoft@c
  3571  0593  3187  27AA  3180   	fcall	___awtoft
  3572  0596  0140               	movlb	0	; select bank0
  3573  0597  0857               	movf	?___awtoft,w
  3574  0598  00AF               	movwf	___ftadd@f2
  3575  0599  0858               	movf	?___awtoft+1,w
  3576  059A  00B0               	movwf	___ftadd@f2+1
  3577  059B  0859               	movf	?___awtoft+2,w
  3578  059C  00B1               	movwf	___ftadd@f2+2
  3579  059D  0141               	movlb	1	; select bank1
  3580  059E  0827               	movf	(_errorant+1)^(0+128),w
  3581  059F  0140               	movlb	0	; select bank0
  3582  05A0  00D8               	movwf	___awtoft@c+1
  3583  05A1  0141               	movlb	1	; select bank1
  3584  05A2  0826               	movf	_errorant^(0+128),w
  3585  05A3  0140               	movlb	0	; select bank0
  3586  05A4  00D7               	movwf	___awtoft@c
  3587  05A5  3187  27AA  3180   	fcall	___awtoft
  3588  05A8  0140               	movlb	0	; select bank0
  3589  05A9  0857               	movf	?___awtoft,w
  3590  05AA  00DD               	movwf	___ftneg@f1
  3591  05AB  0858               	movf	?___awtoft+1,w
  3592  05AC  00DE               	movwf	___ftneg@f1+1
  3593  05AD  0859               	movf	?___awtoft+2,w
  3594  05AE  00DF               	movwf	___ftneg@f1+2
  3595  05AF  3187  27EC  3180   	fcall	___ftneg
  3596  05B2  0140               	movlb	0	; select bank0
  3597  05B3  085D               	movf	?___ftneg,w
  3598  05B4  00AC               	movwf	___ftadd@f1
  3599  05B5  085E               	movf	?___ftneg+1,w
  3600  05B6  00AD               	movwf	___ftadd@f1+1
  3601  05B7  085F               	movf	?___ftneg+2,w
  3602  05B8  00AE               	movwf	___ftadd@f1+2
  3603  05B9  3186  26B4  3180   	fcall	___ftadd
  3604  05BC  0140               	movlb	0	; select bank0
  3605  05BD  082C               	movf	?___ftadd,w
  3606  05BE  00A3               	movwf	___ftmul@f2
  3607  05BF  082D               	movf	?___ftadd+1,w
  3608  05C0  00A4               	movwf	___ftmul@f2+1
  3609  05C1  082E               	movf	?___ftadd+2,w
  3610  05C2  00A5               	movwf	___ftmul@f2+2
  3611  05C3  0141               	movlb	1	; select bank1
  3612  05C4  0837               	movf	_kd^(0+128),w
  3613  05C5  0140               	movlb	0	; select bank0
  3614  05C6  00A0               	movwf	___ftmul@f1
  3615  05C7  0141               	movlb	1	; select bank1
  3616  05C8  0838               	movf	(_kd+1)^(0+128),w
  3617  05C9  0140               	movlb	0	; select bank0
  3618  05CA  00A1               	movwf	___ftmul@f1+1
  3619  05CB  0141               	movlb	1	; select bank1
  3620  05CC  0839               	movf	(_kd+2)^(0+128),w
  3621  05CD  0140               	movlb	0	; select bank0
  3622  05CE  00A2               	movwf	___ftmul@f1+2
  3623  05CF  318C  24F1  3180   	fcall	___ftmul
  3624  05D2  0140               	movlb	0	; select bank0
  3625  05D3  0820               	movf	?___ftmul,w
  3626  05D4  00E5               	movwf	_formula$1014
  3627  05D5  0821               	movf	?___ftmul+1,w
  3628  05D6  00E6               	movwf	_formula$1014+1
  3629  05D7  0822               	movf	?___ftmul+2,w
  3630  05D8  00E7               	movwf	_formula$1014+2
  3631                           
  3632                           ;main.c: 115: CCPR1=velocidad+(int)((kp*(double)error)+kd*((double)error-(double)erroran
      +                          t));
  3633  05D9  086F               	movf	_error+1,w
  3634  05DA  00D8               	movwf	___awtoft@c+1
  3635  05DB  086E               	movf	_error,w
  3636  05DC  00D7               	movwf	___awtoft@c
  3637  05DD  3187  27AA  3180   	fcall	___awtoft
  3638  05E0  0140               	movlb	0	; select bank0
  3639  05E1  0857               	movf	?___awtoft,w
  3640  05E2  00A3               	movwf	___ftmul@f2
  3641  05E3  0858               	movf	?___awtoft+1,w
  3642  05E4  00A4               	movwf	___ftmul@f2+1
  3643  05E5  0859               	movf	?___awtoft+2,w
  3644  05E6  00A5               	movwf	___ftmul@f2+2
  3645  05E7  0141               	movlb	1	; select bank1
  3646  05E8  083A               	movf	_kp^(0+128),w
  3647  05E9  0140               	movlb	0	; select bank0
  3648  05EA  00A0               	movwf	___ftmul@f1
  3649  05EB  0141               	movlb	1	; select bank1
  3650  05EC  083B               	movf	(_kp+1)^(0+128),w
  3651  05ED  0140               	movlb	0	; select bank0
  3652  05EE  00A1               	movwf	___ftmul@f1+1
  3653  05EF  0141               	movlb	1	; select bank1
  3654  05F0  083C               	movf	(_kp+2)^(0+128),w
  3655  05F1  0140               	movlb	0	; select bank0
  3656  05F2  00A2               	movwf	___ftmul@f1+2
  3657  05F3  318C  24F1  3180   	fcall	___ftmul
  3658  05F6  0140               	movlb	0	; select bank0
  3659  05F7  0820               	movf	?___ftmul,w
  3660  05F8  00AF               	movwf	___ftadd@f2
  3661  05F9  0821               	movf	?___ftmul+1,w
  3662  05FA  00B0               	movwf	___ftadd@f2+1
  3663  05FB  0822               	movf	?___ftmul+2,w
  3664  05FC  00B1               	movwf	___ftadd@f2+2
  3665  05FD  0865               	movf	_formula$1014,w
  3666  05FE  00AC               	movwf	___ftadd@f1
  3667  05FF  0866               	movf	_formula$1014+1,w
  3668  0600  00AD               	movwf	___ftadd@f1+1
  3669  0601  0867               	movf	_formula$1014+2,w
  3670  0602  00AE               	movwf	___ftadd@f1+2
  3671  0603  3186  26B4  3180   	fcall	___ftadd
  3672  0606  0140               	movlb	0	; select bank0
  3673  0607  082C               	movf	?___ftadd,w
  3674  0608  00C9               	movwf	___fttol@f1
  3675  0609  082D               	movf	?___ftadd+1,w
  3676  060A  00CA               	movwf	___fttol@f1+1
  3677  060B  082E               	movf	?___ftadd+2,w
  3678  060C  00CB               	movwf	___fttol@f1+2
  3679  060D  318B  23C1  3180   	fcall	___fttol
  3680  0610  0141               	movlb	1	; select bank1
  3681  0611  083D               	movf	_velocidad^(0+128),w
  3682  0612  0140               	movlb	0	; select bank0
  3683  0613  0749               	addwf	?___fttol,w
  3684  0614  00E0               	movwf	??_formula
  3685  0615  0141               	movlb	1	; select bank1
  3686  0616  083E               	movf	(_velocidad+1)^(0+128),w
  3687  0617  0140               	movlb	0	; select bank0
  3688  0618  3D4A               	addwfc	?___fttol+1,w
  3689  0619  00E1               	movwf	??_formula+1
  3690  061A  0860               	movf	??_formula,w
  3691  061B  0146               	movlb	6	; select bank6
  3692  061C  008C               	movwf	12	;volatile
  3693  061D  0140               	movlb	0	; select bank0
  3694  061E  0861               	movf	??_formula+1,w
  3695  061F  0146               	movlb	6	; select bank6
  3696  0620  008D               	movwf	13	;volatile
  3697                           
  3698                           ;main.c: 116: CCPR2=velocidad+(int)((kp*(double)error)+kd*((double)error-(double)erroran
      +                          t));
  3699  0621  0140               	movlb	0	; select bank0
  3700  0622  086F               	movf	_error+1,w
  3701  0623  00D8               	movwf	___awtoft@c+1
  3702  0624  086E               	movf	_error,w
  3703  0625  00D7               	movwf	___awtoft@c
  3704  0626  3187  27AA  3180   	fcall	___awtoft
  3705  0629  0140               	movlb	0	; select bank0
  3706  062A  0857               	movf	?___awtoft,w
  3707  062B  00AF               	movwf	___ftadd@f2
  3708  062C  0858               	movf	?___awtoft+1,w
  3709  062D  00B0               	movwf	___ftadd@f2+1
  3710  062E  0859               	movf	?___awtoft+2,w
  3711  062F  00B1               	movwf	___ftadd@f2+2
  3712  0630  0141               	movlb	1	; select bank1
  3713  0631  0827               	movf	(_errorant+1)^(0+128),w
  3714  0632  0140               	movlb	0	; select bank0
  3715  0633  00D8               	movwf	___awtoft@c+1
  3716  0634  0141               	movlb	1	; select bank1
  3717  0635  0826               	movf	_errorant^(0+128),w
  3718  0636  0140               	movlb	0	; select bank0
  3719  0637  00D7               	movwf	___awtoft@c
  3720  0638  3187  27AA  3180   	fcall	___awtoft
  3721  063B  0140               	movlb	0	; select bank0
  3722  063C  0857               	movf	?___awtoft,w
  3723  063D  00DD               	movwf	___ftneg@f1
  3724  063E  0858               	movf	?___awtoft+1,w
  3725  063F  00DE               	movwf	___ftneg@f1+1
  3726  0640  0859               	movf	?___awtoft+2,w
  3727  0641  00DF               	movwf	___ftneg@f1+2
  3728  0642  3187  27EC  3180   	fcall	___ftneg
  3729  0645  0140               	movlb	0	; select bank0
  3730  0646  085D               	movf	?___ftneg,w
  3731  0647  00AC               	movwf	___ftadd@f1
  3732  0648  085E               	movf	?___ftneg+1,w
  3733  0649  00AD               	movwf	___ftadd@f1+1
  3734  064A  085F               	movf	?___ftneg+2,w
  3735  064B  00AE               	movwf	___ftadd@f1+2
  3736  064C  3186  26B4  3180   	fcall	___ftadd
  3737  064F  0140               	movlb	0	; select bank0
  3738  0650  082C               	movf	?___ftadd,w
  3739  0651  00A3               	movwf	___ftmul@f2
  3740  0652  082D               	movf	?___ftadd+1,w
  3741  0653  00A4               	movwf	___ftmul@f2+1
  3742  0654  082E               	movf	?___ftadd+2,w
  3743  0655  00A5               	movwf	___ftmul@f2+2
  3744  0656  0141               	movlb	1	; select bank1
  3745  0657  0837               	movf	_kd^(0+128),w
  3746  0658  0140               	movlb	0	; select bank0
  3747  0659  00A0               	movwf	___ftmul@f1
  3748  065A  0141               	movlb	1	; select bank1
  3749  065B  0838               	movf	(_kd+1)^(0+128),w
  3750  065C  0140               	movlb	0	; select bank0
  3751  065D  00A1               	movwf	___ftmul@f1+1
  3752  065E  0141               	movlb	1	; select bank1
  3753  065F  0839               	movf	(_kd+2)^(0+128),w
  3754  0660  0140               	movlb	0	; select bank0
  3755  0661  00A2               	movwf	___ftmul@f1+2
  3756  0662  318C  24F1  3180   	fcall	___ftmul
  3757  0665  0140               	movlb	0	; select bank0
  3758  0666  0820               	movf	?___ftmul,w
  3759  0667  00E5               	movwf	_formula$1014
  3760  0668  0821               	movf	?___ftmul+1,w
  3761  0669  00E6               	movwf	_formula$1014+1
  3762  066A  0822               	movf	?___ftmul+2,w
  3763  066B  00E7               	movwf	_formula$1014+2
  3764                           
  3765                           ;main.c: 116: CCPR2=velocidad+(int)((kp*(double)error)+kd*((double)error-(double)erroran
      +                          t));
  3766  066C  086F               	movf	_error+1,w
  3767  066D  00D8               	movwf	___awtoft@c+1
  3768  066E  086E               	movf	_error,w
  3769  066F  00D7               	movwf	___awtoft@c
  3770  0670  3187  27AA  3180   	fcall	___awtoft
  3771  0673  0140               	movlb	0	; select bank0
  3772  0674  0857               	movf	?___awtoft,w
  3773  0675  00A3               	movwf	___ftmul@f2
  3774  0676  0858               	movf	?___awtoft+1,w
  3775  0677  00A4               	movwf	___ftmul@f2+1
  3776  0678  0859               	movf	?___awtoft+2,w
  3777  0679  00A5               	movwf	___ftmul@f2+2
  3778  067A  0141               	movlb	1	; select bank1
  3779  067B  083A               	movf	_kp^(0+128),w
  3780  067C  0140               	movlb	0	; select bank0
  3781  067D  00A0               	movwf	___ftmul@f1
  3782  067E  0141               	movlb	1	; select bank1
  3783  067F  083B               	movf	(_kp+1)^(0+128),w
  3784  0680  0140               	movlb	0	; select bank0
  3785  0681  00A1               	movwf	___ftmul@f1+1
  3786  0682  0141               	movlb	1	; select bank1
  3787  0683  083C               	movf	(_kp+2)^(0+128),w
  3788  0684  0140               	movlb	0	; select bank0
  3789  0685  00A2               	movwf	___ftmul@f1+2
  3790  0686  318C  24F1  3180   	fcall	___ftmul
  3791  0689  0140               	movlb	0	; select bank0
  3792  068A  0820               	movf	?___ftmul,w
  3793  068B  00AF               	movwf	___ftadd@f2
  3794  068C  0821               	movf	?___ftmul+1,w
  3795  068D  00B0               	movwf	___ftadd@f2+1
  3796  068E  0822               	movf	?___ftmul+2,w
  3797  068F  00B1               	movwf	___ftadd@f2+2
  3798  0690  0865               	movf	_formula$1014,w
  3799  0691  00AC               	movwf	___ftadd@f1
  3800  0692  0866               	movf	_formula$1014+1,w
  3801  0693  00AD               	movwf	___ftadd@f1+1
  3802  0694  0867               	movf	_formula$1014+2,w
  3803  0695  00AE               	movwf	___ftadd@f1+2
  3804  0696  3186  26B4  3180   	fcall	___ftadd
  3805  0699  0140               	movlb	0	; select bank0
  3806  069A  082C               	movf	?___ftadd,w
  3807  069B  00C9               	movwf	___fttol@f1
  3808  069C  082D               	movf	?___ftadd+1,w
  3809  069D  00CA               	movwf	___fttol@f1+1
  3810  069E  082E               	movf	?___ftadd+2,w
  3811  069F  00CB               	movwf	___fttol@f1+2
  3812  06A0  318B  23C1         	fcall	___fttol
  3813  06A2  0141               	movlb	1	; select bank1
  3814  06A3  083D               	movf	_velocidad^(0+128),w
  3815  06A4  0140               	movlb	0	; select bank0
  3816  06A5  0749               	addwf	?___fttol,w
  3817  06A6  00E0               	movwf	??_formula
  3818  06A7  0141               	movlb	1	; select bank1
  3819  06A8  083E               	movf	(_velocidad+1)^(0+128),w
  3820  06A9  0140               	movlb	0	; select bank0
  3821  06AA  3D4A               	addwfc	?___fttol+1,w
  3822  06AB  00E1               	movwf	??_formula+1
  3823  06AC  0860               	movf	??_formula,w
  3824  06AD  0146               	movlb	6	; select bank6
  3825  06AE  0090               	movwf	16	;volatile
  3826  06AF  0140               	movlb	0	; select bank0
  3827  06B0  0861               	movf	??_formula+1,w
  3828  06B1  0146               	movlb	6	; select bank6
  3829  06B2  0091               	movwf	17	;volatile
  3830  06B3  0008               	return
  3831  06B4                     __end_of_formula:	
  3832                           
  3833                           	psect	text5
  3834  0BC1                     __ptext5:	
  3835 ;; *************** function ___fttol *****************
  3836 ;; Defined at:
  3837 ;;		line 44 in file "C:\Program Files (x86)\Microchip\xc8\v1.45\sources\common\fttol.c"
  3838 ;; Parameters:    Size  Location     Type
  3839 ;;  f1              3   41[BANK0 ] float 
  3840 ;; Auto vars:     Size  Location     Type
  3841 ;;  lval            4   50[BANK0 ] unsigned long 
  3842 ;;  exp1            1   54[BANK0 ] unsigned char 
  3843 ;;  sign1           1   49[BANK0 ] unsigned char 
  3844 ;; Return value:  Size  Location     Type
  3845 ;;                  4   41[BANK0 ] long 
  3846 ;; Registers used:
  3847 ;;		wreg, status,2, status,0
  3848 ;; Tracked objects:
  3849 ;;		On entry : 0/0
  3850 ;;		On exit  : 0/0
  3851 ;;		Unchanged: 0/0
  3852 ;; Data sizes:     COMMON   BANK0   BANK1   BANK2   BANK3   BANK4   BANK5   BANK6   BANK7   BANK8   BANK9  BANK10  BANK1
      +1  BANK12  BANK13  BANK14  BANK15  BANK16  BANK17  BANK18  BANK19  BANK20  BANK21  BANK22  BANK23  BANK24  BANK25  BANK2
      +6  BANK27  BANK28  BANK29  BANK30  BANK31  BANK32  BANK33  BANK34  BANK35  BANK36  BANK37  BANK38  BANK39  BANK40  BANK4
      +1  BANK42  BANK43  BANK44  BANK45  BANK46  BANK47  BANK48  BANK49  BANK50
  3853 ;;      Params:         0       4       0       0       0       0       0       0       0       0       0       0       
      +0       0       0       0       0       0       0       0       0       0       0       0       0       0       0       
      +0       0       0       0       0       0       0       0       0       0       0       0       0       0       0       
      +0       0       0       0       0       0       0       0       0       0
  3854 ;;      Locals:         0       6       0       0       0       0       0       0       0       0       0       0       
      +0       0       0       0       0       0       0       0       0       0       0       0       0       0       0       
      +0       0       0       0       0       0       0       0       0       0       0       0       0       0       0       
      +0       0       0       0       0       0       0       0       0       0
  3855 ;;      Temps:          0       4       0       0       0       0       0       0       0       0       0       0       
      +0       0       0       0       0       0       0       0       0       0       0       0       0       0       0       
      +0       0       0       0       0       0       0       0       0       0       0       0       0       0       0       
      +0       0       0       0       0       0       0       0       0       0
  3856 ;;      Totals:         0      14       0       0       0       0       0       0       0       0       0       0       
      +0       0       0       0       0       0       0       0       0       0       0       0       0       0       0       
      +0       0       0       0       0       0       0       0       0       0       0       0       0       0       0       
      +0       0       0       0       0       0       0       0       0       0
  3857 ;;Total ram usage:       14 bytes
  3858 ;; Hardware stack levels used:    1
  3859 ;; Hardware stack levels required when called:    1
  3860 ;; This function calls:
  3861 ;;		Nothing
  3862 ;; This function is called by:
  3863 ;;		_geterror
  3864 ;;		_formula
  3865 ;; This function uses a non-reentrant model
  3866 ;;
  3867                           
  3868                           
  3869                           ;psect for function ___fttol
  3870  0BC1                     ___fttol:	
  3871                           
  3872                           ;incstack = 0
  3873                           ; Regs used in ___fttol: [wreg+status,2+status,0]
  3874  0BC1  0140               	movlb	0	; select bank0
  3875  0BC2  0849               	movf	___fttol@f1,w
  3876  0BC3  00CD               	movwf	??___fttol
  3877  0BC4  084A               	movf	___fttol@f1+1,w
  3878  0BC5  00CE               	movwf	??___fttol+1
  3879  0BC6  084B               	movf	___fttol@f1+2,w
  3880  0BC7  00CF               	movwf	??___fttol+2
  3881  0BC8  1003               	clrc
  3882  0BC9  0D4E               	rlf	??___fttol+1,w
  3883  0BCA  0D4F               	rlf	??___fttol+2,w
  3884  0BCB  00D0               	movwf	??___fttol+3
  3885  0BCC  0850               	movf	??___fttol+3,w
  3886  0BCD  00D6               	movwf	___fttol@exp1
  3887  0BCE  0856               	movf	___fttol@exp1,w
  3888  0BCF  1D03               	btfss	3,2
  3889  0BD0  2BDA               	goto	l1219
  3890  0BD1  3000               	movlw	0
  3891  0BD2  00CC               	movwf	?___fttol+3
  3892  0BD3  3000               	movlw	0
  3893  0BD4  00CB               	movwf	?___fttol+2
  3894  0BD5  3000               	movlw	0
  3895  0BD6  00CA               	movwf	?___fttol+1
  3896  0BD7  3000               	movlw	0
  3897  0BD8  00C9               	movwf	?___fttol
  3898  0BD9  0008               	return
  3899  0BDA                     l1219:	
  3900  0BDA  0849               	movf	___fttol@f1,w
  3901  0BDB  00CD               	movwf	??___fttol
  3902  0BDC  084A               	movf	___fttol@f1+1,w
  3903  0BDD  00CE               	movwf	??___fttol+1
  3904  0BDE  084B               	movf	___fttol@f1+2,w
  3905  0BDF  00CF               	movwf	??___fttol+2
  3906  0BE0  3017               	movlw	23
  3907  0BE1                     u1375:	
  3908  0BE1  36CF               	lsrf	??___fttol+2,f
  3909  0BE2  0CCE               	rrf	??___fttol+1,f
  3910  0BE3  0CCD               	rrf	??___fttol,f
  3911  0BE4  0B89               	decfsz	9,f
  3912  0BE5  2BE1               	goto	u1375
  3913  0BE6  084D               	movf	??___fttol,w
  3914  0BE7  00D0               	movwf	??___fttol+3
  3915  0BE8  0850               	movf	??___fttol+3,w
  3916  0BE9  00D1               	movwf	___fttol@sign1
  3917  0BEA  17CA               	bsf	___fttol@f1+1,7
  3918  0BEB  30FF               	movlw	255
  3919  0BEC  05C9               	andwf	___fttol@f1,f
  3920  0BED  30FF               	movlw	255
  3921  0BEE  05CA               	andwf	___fttol@f1+1,f
  3922  0BEF  3000               	movlw	0
  3923  0BF0  05CB               	andwf	___fttol@f1+2,f
  3924  0BF1  0849               	movf	___fttol@f1,w
  3925  0BF2  00D2               	movwf	___fttol@lval
  3926  0BF3  084A               	movf	___fttol@f1+1,w
  3927  0BF4  00D3               	movwf	___fttol@lval+1
  3928  0BF5  084B               	movf	___fttol@f1+2,w
  3929  0BF6  00D4               	movwf	___fttol@lval+2
  3930  0BF7  01D5               	clrf	___fttol@lval+3
  3931  0BF8  308E               	movlw	142
  3932  0BF9  02D6               	subwf	___fttol@exp1,f
  3933  0BFA  1FD6               	btfss	___fttol@exp1,7
  3934  0BFB  2C18               	goto	l1239
  3935  0BFC  0856               	movf	___fttol@exp1,w
  3936  0BFD  3A80               	xorlw	128
  3937  0BFE  3E8F               	addlw	143
  3938  0BFF  1803               	skipnc
  3939  0C00  2C0A               	goto	l1237
  3940  0C01  3000               	movlw	0
  3941  0C02  00CC               	movwf	?___fttol+3
  3942  0C03  3000               	movlw	0
  3943  0C04  00CB               	movwf	?___fttol+2
  3944  0C05  3000               	movlw	0
  3945  0C06  00CA               	movwf	?___fttol+1
  3946  0C07  3000               	movlw	0
  3947  0C08  00C9               	movwf	?___fttol
  3948  0C09  0008               	return
  3949  0C0A                     l1237:	
  3950  0C0A  3001               	movlw	1
  3951  0C0B                     u1405:	
  3952  0C0B  36D5               	lsrf	___fttol@lval+3,f
  3953  0C0C  0CD4               	rrf	___fttol@lval+2,f
  3954  0C0D  0CD3               	rrf	___fttol@lval+1,f
  3955  0C0E  0CD2               	rrf	___fttol@lval,f
  3956  0C0F  0B89               	decfsz	9,f
  3957  0C10  2C0B               	goto	u1405
  3958  0C11  3001               	movlw	1
  3959  0C12  00CD               	movwf	??___fttol
  3960  0C13  084D               	movf	??___fttol,w
  3961  0C14  07D6               	addwf	___fttol@exp1,f
  3962  0C15  1903               	btfsc	3,2
  3963  0C16  2C31               	goto	l1247
  3964  0C17  2C0A               	goto	l1237
  3965  0C18                     l1239:	
  3966  0C18  3018               	movlw	24
  3967  0C19  0256               	subwf	___fttol@exp1,w
  3968  0C1A  1C03               	skipc
  3969  0C1B  2C2E               	goto	l463
  3970  0C1C  3000               	movlw	0
  3971  0C1D  00CC               	movwf	?___fttol+3
  3972  0C1E  3000               	movlw	0
  3973  0C1F  00CB               	movwf	?___fttol+2
  3974  0C20  3000               	movlw	0
  3975  0C21  00CA               	movwf	?___fttol+1
  3976  0C22  3000               	movlw	0
  3977  0C23  00C9               	movwf	?___fttol
  3978  0C24  0008               	return
  3979  0C25                     l1245:	
  3980  0C25  3001               	movlw	1
  3981  0C26                     u1435:	
  3982  0C26  35D2               	lslf	___fttol@lval,f
  3983  0C27  0DD3               	rlf	___fttol@lval+1,f
  3984  0C28  0DD4               	rlf	___fttol@lval+2,f
  3985  0C29  0DD5               	rlf	___fttol@lval+3,f
  3986  0C2A  0B89               	decfsz	9,f
  3987  0C2B  2C26               	goto	u1435
  3988  0C2C  3001               	movlw	1
  3989  0C2D  02D6               	subwf	___fttol@exp1,f
  3990  0C2E                     l463:	
  3991  0C2E  0856               	movf	___fttol@exp1,w
  3992  0C2F  1D03               	btfss	3,2
  3993  0C30  2C25               	goto	l1245
  3994  0C31                     l1247:	
  3995  0C31  0851               	movf	___fttol@sign1,w
  3996  0C32  1903               	btfsc	3,2
  3997  0C33  2C3F               	goto	l1251
  3998  0C34  09D2               	comf	___fttol@lval,f
  3999  0C35  09D3               	comf	___fttol@lval+1,f
  4000  0C36  09D4               	comf	___fttol@lval+2,f
  4001  0C37  09D5               	comf	___fttol@lval+3,f
  4002  0C38  0AD2               	incf	___fttol@lval,f
  4003  0C39  1903               	skipnz
  4004  0C3A  0AD3               	incf	___fttol@lval+1,f
  4005  0C3B  1903               	skipnz
  4006  0C3C  0AD4               	incf	___fttol@lval+2,f
  4007  0C3D  1903               	skipnz
  4008  0C3E  0AD5               	incf	___fttol@lval+3,f
  4009  0C3F                     l1251:	
  4010  0C3F  0855               	movf	___fttol@lval+3,w
  4011  0C40  00CC               	movwf	?___fttol+3
  4012  0C41  0854               	movf	___fttol@lval+2,w
  4013  0C42  00CB               	movwf	?___fttol+2
  4014  0C43  0853               	movf	___fttol@lval+1,w
  4015  0C44  00CA               	movwf	?___fttol+1
  4016  0C45  0852               	movf	___fttol@lval,w
  4017  0C46  00C9               	movwf	?___fttol
  4018  0C47  0008               	return
  4019  0C48                     __end_of___fttol:	
  4020                           
  4021                           	psect	text6
  4022  07EC                     __ptext6:	
  4023 ;; *************** function ___ftneg *****************
  4024 ;; Defined at:
  4025 ;;		line 15 in file "C:\Program Files (x86)\Microchip\xc8\v1.45\sources\common\ftneg.c"
  4026 ;; Parameters:    Size  Location     Type
  4027 ;;  f1              3   61[BANK0 ] float 
  4028 ;; Auto vars:     Size  Location     Type
  4029 ;;		None
  4030 ;; Return value:  Size  Location     Type
  4031 ;;                  3   61[BANK0 ] float 
  4032 ;; Registers used:
  4033 ;;		wreg
  4034 ;; Tracked objects:
  4035 ;;		On entry : 0/0
  4036 ;;		On exit  : 0/0
  4037 ;;		Unchanged: 0/0
  4038 ;; Data sizes:     COMMON   BANK0   BANK1   BANK2   BANK3   BANK4   BANK5   BANK6   BANK7   BANK8   BANK9  BANK10  BANK1
      +1  BANK12  BANK13  BANK14  BANK15  BANK16  BANK17  BANK18  BANK19  BANK20  BANK21  BANK22  BANK23  BANK24  BANK25  BANK2
      +6  BANK27  BANK28  BANK29  BANK30  BANK31  BANK32  BANK33  BANK34  BANK35  BANK36  BANK37  BANK38  BANK39  BANK40  BANK4
      +1  BANK42  BANK43  BANK44  BANK45  BANK46  BANK47  BANK48  BANK49  BANK50
  4039 ;;      Params:         0       3       0       0       0       0       0       0       0       0       0       0       
      +0       0       0       0       0       0       0       0       0       0       0       0       0       0       0       
      +0       0       0       0       0       0       0       0       0       0       0       0       0       0       0       
      +0       0       0       0       0       0       0       0       0       0
  4040 ;;      Locals:         0       0       0       0       0       0       0       0       0       0       0       0       
      +0       0       0       0       0       0       0       0       0       0       0       0       0       0       0       
      +0       0       0       0       0       0       0       0       0       0       0       0       0       0       0       
      +0       0       0       0       0       0       0       0       0       0
  4041 ;;      Temps:          0       0       0       0       0       0       0       0       0       0       0       0       
      +0       0       0       0       0       0       0       0       0       0       0       0       0       0       0       
      +0       0       0       0       0       0       0       0       0       0       0       0       0       0       0       
      +0       0       0       0       0       0       0       0       0       0
  4042 ;;      Totals:         0       3       0       0       0       0       0       0       0       0       0       0       
      +0       0       0       0       0       0       0       0       0       0       0       0       0       0       0       
      +0       0       0       0       0       0       0       0       0       0       0       0       0       0       0       
      +0       0       0       0       0       0       0       0       0       0
  4043 ;;Total ram usage:        3 bytes
  4044 ;; Hardware stack levels used:    1
  4045 ;; Hardware stack levels required when called:    1
  4046 ;; This function calls:
  4047 ;;		Nothing
  4048 ;; This function is called by:
  4049 ;;		_formula
  4050 ;; This function uses a non-reentrant model
  4051 ;;
  4052                           
  4053                           
  4054                           ;psect for function ___ftneg
  4055  07EC                     ___ftneg:	
  4056                           
  4057                           ;incstack = 0
  4058                           ; Regs used in ___ftneg: [wreg]
  4059  07EC  0140               	movlb	0	; select bank0
  4060  07ED  085F               	movf	___ftneg@f1+2,w
  4061  07EE  045E               	iorwf	___ftneg@f1+1,w
  4062  07EF  045D               	iorwf	___ftneg@f1,w
  4063  07F0  1903               	skipnz
  4064  07F1  0008               	return
  4065  07F2  3080               	movlw	128
  4066  07F3  06DF               	xorwf	___ftneg@f1+2,f
  4067  07F4  0008               	return
  4068  07F5                     __end_of___ftneg:	
  4069                           
  4070                           	psect	text7
  4071  0CF1                     __ptext7:	
  4072 ;; *************** function ___ftmul *****************
  4073 ;; Defined at:
  4074 ;;		line 62 in file "C:\Program Files (x86)\Microchip\xc8\v1.45\sources\common\ftmul.c"
  4075 ;; Parameters:    Size  Location     Type
  4076 ;;  f1              3    0[BANK0 ] float 
  4077 ;;  f2              3    3[BANK0 ] float 
  4078 ;; Auto vars:     Size  Location     Type
  4079 ;;  f3_as_produc    3    7[BANK0 ] unsigned um
  4080 ;;  sign            1   11[BANK0 ] unsigned char 
  4081 ;;  cntr            1   10[BANK0 ] unsigned char 
  4082 ;;  exp             1    6[BANK0 ] unsigned char 
  4083 ;; Return value:  Size  Location     Type
  4084 ;;                  3    0[BANK0 ] float 
  4085 ;; Registers used:
  4086 ;;		wreg, status,2, status,0, pclath, cstack
  4087 ;; Tracked objects:
  4088 ;;		On entry : 0/0
  4089 ;;		On exit  : 0/0
  4090 ;;		Unchanged: 0/0
  4091 ;; Data sizes:     COMMON   BANK0   BANK1   BANK2   BANK3   BANK4   BANK5   BANK6   BANK7   BANK8   BANK9  BANK10  BANK1
      +1  BANK12  BANK13  BANK14  BANK15  BANK16  BANK17  BANK18  BANK19  BANK20  BANK21  BANK22  BANK23  BANK24  BANK25  BANK2
      +6  BANK27  BANK28  BANK29  BANK30  BANK31  BANK32  BANK33  BANK34  BANK35  BANK36  BANK37  BANK38  BANK39  BANK40  BANK4
      +1  BANK42  BANK43  BANK44  BANK45  BANK46  BANK47  BANK48  BANK49  BANK50
  4092 ;;      Params:         0       6       0       0       0       0       0       0       0       0       0       0       
      +0       0       0       0       0       0       0       0       0       0       0       0       0       0       0       
      +0       0       0       0       0       0       0       0       0       0       0       0       0       0       0       
      +0       0       0       0       0       0       0       0       0       0
  4093 ;;      Locals:         0       6       0       0       0       0       0       0       0       0       0       0       
      +0       0       0       0       0       0       0       0       0       0       0       0       0       0       0       
      +0       0       0       0       0       0       0       0       0       0       0       0       0       0       0       
      +0       0       0       0       0       0       0       0       0       0
  4094 ;;      Temps:          4       0       0       0       0       0       0       0       0       0       0       0       
      +0       0       0       0       0       0       0       0       0       0       0       0       0       0       0       
      +0       0       0       0       0       0       0       0       0       0       0       0       0       0       0       
      +0       0       0       0       0       0       0       0       0       0
  4095 ;;      Totals:         4      12       0       0       0       0       0       0       0       0       0       0       
      +0       0       0       0       0       0       0       0       0       0       0       0       0       0       0       
      +0       0       0       0       0       0       0       0       0       0       0       0       0       0       0       
      +0       0       0       0       0       0       0       0       0       0
  4096 ;;Total ram usage:       16 bytes
  4097 ;; Hardware stack levels used:    1
  4098 ;; Hardware stack levels required when called:    2
  4099 ;; This function calls:
  4100 ;;		___ftpack
  4101 ;; This function is called by:
  4102 ;;		_geterror
  4103 ;;		_formula
  4104 ;; This function uses a non-reentrant model
  4105 ;;
  4106                           
  4107                           
  4108                           ;psect for function ___ftmul
  4109  0CF1                     ___ftmul:	
  4110                           
  4111                           ;incstack = 0
  4112                           ; Regs used in ___ftmul: [wreg+status,2+status,0+pclath+cstack]
  4113  0CF1  0140               	movlb	0	; select bank0
  4114  0CF2  0820               	movf	___ftmul@f1,w
  4115  0CF3  00F9               	movwf	??___ftmul
  4116  0CF4  0821               	movf	___ftmul@f1+1,w
  4117  0CF5  00FA               	movwf	??___ftmul+1
  4118  0CF6  0822               	movf	___ftmul@f1+2,w
  4119  0CF7  00FB               	movwf	??___ftmul+2
  4120  0CF8  1003               	clrc
  4121  0CF9  0D7A               	rlf	??___ftmul+1,w
  4122  0CFA  0D7B               	rlf	??___ftmul+2,w
  4123  0CFB  00FC               	movwf	??___ftmul+3
  4124  0CFC  087C               	movf	??___ftmul+3,w
  4125  0CFD  00A6               	movwf	___ftmul@exp
  4126  0CFE  0826               	movf	___ftmul@exp,w
  4127  0CFF  1D03               	btfss	3,2
  4128  0D00  2D08               	goto	l1161
  4129  0D01  3000               	movlw	0
  4130  0D02  00A0               	movwf	?___ftmul
  4131  0D03  3000               	movlw	0
  4132  0D04  00A1               	movwf	?___ftmul+1
  4133  0D05  3000               	movlw	0
  4134  0D06  00A2               	movwf	?___ftmul+2
  4135  0D07  0008               	return
  4136  0D08                     l1161:	
  4137  0D08  0823               	movf	___ftmul@f2,w
  4138  0D09  00F9               	movwf	??___ftmul
  4139  0D0A  0824               	movf	___ftmul@f2+1,w
  4140  0D0B  00FA               	movwf	??___ftmul+1
  4141  0D0C  0825               	movf	___ftmul@f2+2,w
  4142  0D0D  00FB               	movwf	??___ftmul+2
  4143  0D0E  1003               	clrc
  4144  0D0F  0D7A               	rlf	??___ftmul+1,w
  4145  0D10  0D7B               	rlf	??___ftmul+2,w
  4146  0D11  00FC               	movwf	??___ftmul+3
  4147  0D12  087C               	movf	??___ftmul+3,w
  4148  0D13  00AB               	movwf	___ftmul@sign
  4149  0D14  082B               	movf	___ftmul@sign,w
  4150  0D15  1D03               	btfss	3,2
  4151  0D16  2D1E               	goto	l1167
  4152  0D17  3000               	movlw	0
  4153  0D18  00A0               	movwf	?___ftmul
  4154  0D19  3000               	movlw	0
  4155  0D1A  00A1               	movwf	?___ftmul+1
  4156  0D1B  3000               	movlw	0
  4157  0D1C  00A2               	movwf	?___ftmul+2
  4158  0D1D  0008               	return
  4159  0D1E                     l1167:	
  4160  0D1E  082B               	movf	___ftmul@sign,w
  4161  0D1F  3E7B               	addlw	123
  4162  0D20  00F9               	movwf	??___ftmul
  4163  0D21  0879               	movf	??___ftmul,w
  4164  0D22  07A6               	addwf	___ftmul@exp,f
  4165  0D23  0820               	movf	___ftmul@f1,w
  4166  0D24  00F9               	movwf	??___ftmul
  4167  0D25  0821               	movf	___ftmul@f1+1,w
  4168  0D26  00FA               	movwf	??___ftmul+1
  4169  0D27  0822               	movf	___ftmul@f1+2,w
  4170  0D28  00FB               	movwf	??___ftmul+2
  4171  0D29  3010               	movlw	16
  4172  0D2A                     u1255:	
  4173  0D2A  36FB               	lsrf	??___ftmul+2,f
  4174  0D2B  0CFA               	rrf	??___ftmul+1,f
  4175  0D2C  0CF9               	rrf	??___ftmul,f
  4176  0D2D  0B89               	decfsz	9,f
  4177  0D2E  2D2A               	goto	u1255
  4178  0D2F  0879               	movf	??___ftmul,w
  4179  0D30  00FC               	movwf	??___ftmul+3
  4180  0D31  087C               	movf	??___ftmul+3,w
  4181  0D32  00AB               	movwf	___ftmul@sign
  4182  0D33  0823               	movf	___ftmul@f2,w
  4183  0D34  00F9               	movwf	??___ftmul
  4184  0D35  0824               	movf	___ftmul@f2+1,w
  4185  0D36  00FA               	movwf	??___ftmul+1
  4186  0D37  0825               	movf	___ftmul@f2+2,w
  4187  0D38  00FB               	movwf	??___ftmul+2
  4188  0D39  3010               	movlw	16
  4189  0D3A                     u1265:	
  4190  0D3A  36FB               	lsrf	??___ftmul+2,f
  4191  0D3B  0CFA               	rrf	??___ftmul+1,f
  4192  0D3C  0CF9               	rrf	??___ftmul,f
  4193  0D3D  0B89               	decfsz	9,f
  4194  0D3E  2D3A               	goto	u1265
  4195  0D3F  0879               	movf	??___ftmul,w
  4196  0D40  00FC               	movwf	??___ftmul+3
  4197  0D41  087C               	movf	??___ftmul+3,w
  4198  0D42  06AB               	xorwf	___ftmul@sign,f
  4199  0D43  3080               	movlw	128
  4200  0D44  00F9               	movwf	??___ftmul
  4201  0D45  0879               	movf	??___ftmul,w
  4202  0D46  05AB               	andwf	___ftmul@sign,f
  4203  0D47  17A1               	bsf	___ftmul@f1+1,7
  4204  0D48  17A4               	bsf	___ftmul@f2+1,7
  4205  0D49  30FF               	movlw	255
  4206  0D4A  05A3               	andwf	___ftmul@f2,f
  4207  0D4B  30FF               	movlw	255
  4208  0D4C  05A4               	andwf	___ftmul@f2+1,f
  4209  0D4D  3000               	movlw	0
  4210  0D4E  05A5               	andwf	___ftmul@f2+2,f
  4211  0D4F  3000               	movlw	0
  4212  0D50  00A7               	movwf	___ftmul@f3_as_product
  4213  0D51  3000               	movlw	0
  4214  0D52  00A8               	movwf	___ftmul@f3_as_product+1
  4215  0D53  3000               	movlw	0
  4216  0D54  00A9               	movwf	___ftmul@f3_as_product+2
  4217  0D55  3007               	movlw	7
  4218  0D56  00F9               	movwf	??___ftmul
  4219  0D57  0879               	movf	??___ftmul,w
  4220  0D58  00AA               	movwf	___ftmul@cntr
  4221  0D59                     l1179:	
  4222  0D59  1C20               	btfss	___ftmul@f1,0
  4223  0D5A  2D61               	goto	l1183
  4224  0D5B  0823               	movf	___ftmul@f2,w
  4225  0D5C  07A7               	addwf	___ftmul@f3_as_product,f
  4226  0D5D  0824               	movf	___ftmul@f2+1,w
  4227  0D5E  3DA8               	addwfc	___ftmul@f3_as_product+1,f
  4228  0D5F  0825               	movf	___ftmul@f2+2,w
  4229  0D60  3DA9               	addwfc	___ftmul@f3_as_product+2,f
  4230  0D61                     l1183:	
  4231  0D61  3001               	movlw	1
  4232  0D62                     u1285:	
  4233  0D62  36A2               	lsrf	___ftmul@f1+2,f
  4234  0D63  0CA1               	rrf	___ftmul@f1+1,f
  4235  0D64  0CA0               	rrf	___ftmul@f1,f
  4236  0D65  0B89               	decfsz	9,f
  4237  0D66  2D62               	goto	u1285
  4238  0D67  3001               	movlw	1
  4239  0D68                     u1295:	
  4240  0D68  35A3               	lslf	___ftmul@f2,f
  4241  0D69  0DA4               	rlf	___ftmul@f2+1,f
  4242  0D6A  0DA5               	rlf	___ftmul@f2+2,f
  4243  0D6B  0B89               	decfsz	9,f
  4244  0D6C  2D68               	goto	u1295
  4245  0D6D  3001               	movlw	1
  4246  0D6E  02AA               	subwf	___ftmul@cntr,f
  4247  0D6F  1D03               	btfss	3,2
  4248  0D70  2D59               	goto	l1179
  4249  0D71  3009               	movlw	9
  4250  0D72  00F9               	movwf	??___ftmul
  4251  0D73  0879               	movf	??___ftmul,w
  4252  0D74  00AA               	movwf	___ftmul@cntr
  4253  0D75                     l1191:	
  4254  0D75  1C20               	btfss	___ftmul@f1,0
  4255  0D76  2D7D               	goto	l1195
  4256  0D77  0823               	movf	___ftmul@f2,w
  4257  0D78  07A7               	addwf	___ftmul@f3_as_product,f
  4258  0D79  0824               	movf	___ftmul@f2+1,w
  4259  0D7A  3DA8               	addwfc	___ftmul@f3_as_product+1,f
  4260  0D7B  0825               	movf	___ftmul@f2+2,w
  4261  0D7C  3DA9               	addwfc	___ftmul@f3_as_product+2,f
  4262  0D7D                     l1195:	
  4263  0D7D  3001               	movlw	1
  4264  0D7E                     u1325:	
  4265  0D7E  36A2               	lsrf	___ftmul@f1+2,f
  4266  0D7F  0CA1               	rrf	___ftmul@f1+1,f
  4267  0D80  0CA0               	rrf	___ftmul@f1,f
  4268  0D81  0B89               	decfsz	9,f
  4269  0D82  2D7E               	goto	u1325
  4270  0D83  3001               	movlw	1
  4271  0D84                     u1335:	
  4272  0D84  36A9               	lsrf	___ftmul@f3_as_product+2,f
  4273  0D85  0CA8               	rrf	___ftmul@f3_as_product+1,f
  4274  0D86  0CA7               	rrf	___ftmul@f3_as_product,f
  4275  0D87  0B89               	decfsz	9,f
  4276  0D88  2D84               	goto	u1335
  4277  0D89  3001               	movlw	1
  4278  0D8A  02AA               	subwf	___ftmul@cntr,f
  4279  0D8B  1D03               	btfss	3,2
  4280  0D8C  2D75               	goto	l1191
  4281  0D8D  0827               	movf	___ftmul@f3_as_product,w
  4282  0D8E  00F1               	movwf	___ftpack@arg
  4283  0D8F  0828               	movf	___ftmul@f3_as_product+1,w
  4284  0D90  00F2               	movwf	___ftpack@arg+1
  4285  0D91  0829               	movf	___ftmul@f3_as_product+2,w
  4286  0D92  00F3               	movwf	___ftpack@arg+2
  4287  0D93  0826               	movf	___ftmul@exp,w
  4288  0D94  00F9               	movwf	??___ftmul
  4289  0D95  0879               	movf	??___ftmul,w
  4290  0D96  00F4               	movwf	___ftpack@exp
  4291  0D97  082B               	movf	___ftmul@sign,w
  4292  0D98  00FA               	movwf	??___ftmul+1
  4293  0D99  087A               	movf	??___ftmul+1,w
  4294  0D9A  00F5               	movwf	___ftpack@sign
  4295  0D9B  318A  22E5         	fcall	___ftpack
  4296  0D9D  0871               	movf	?___ftpack,w
  4297  0D9E  0140               	movlb	0	; select bank0
  4298  0D9F  00A0               	movwf	?___ftmul
  4299  0DA0  0872               	movf	?___ftpack+1,w
  4300  0DA1  00A1               	movwf	?___ftmul+1
  4301  0DA2  0873               	movf	?___ftpack+2,w
  4302  0DA3  00A2               	movwf	?___ftmul+2
  4303  0DA4  0008               	return
  4304  0DA5                     __end_of___ftmul:	
  4305                           
  4306                           	psect	text8
  4307  06B4                     __ptext8:	
  4308 ;; *************** function ___ftadd *****************
  4309 ;; Defined at:
  4310 ;;		line 86 in file "C:\Program Files (x86)\Microchip\xc8\v1.45\sources\common\ftadd.c"
  4311 ;; Parameters:    Size  Location     Type
  4312 ;;  f1              3   12[BANK0 ] float 
  4313 ;;  f2              3   15[BANK0 ] float 
  4314 ;; Auto vars:     Size  Location     Type
  4315 ;;  exp1            1   24[BANK0 ] unsigned char 
  4316 ;;  exp2            1   23[BANK0 ] unsigned char 
  4317 ;;  sign            1   22[BANK0 ] unsigned char 
  4318 ;; Return value:  Size  Location     Type
  4319 ;;                  3   12[BANK0 ] float 
  4320 ;; Registers used:
  4321 ;;		wreg, status,2, status,0, pclath, cstack
  4322 ;; Tracked objects:
  4323 ;;		On entry : 0/0
  4324 ;;		On exit  : 0/0
  4325 ;;		Unchanged: 0/0
  4326 ;; Data sizes:     COMMON   BANK0   BANK1   BANK2   BANK3   BANK4   BANK5   BANK6   BANK7   BANK8   BANK9  BANK10  BANK1
      +1  BANK12  BANK13  BANK14  BANK15  BANK16  BANK17  BANK18  BANK19  BANK20  BANK21  BANK22  BANK23  BANK24  BANK25  BANK2
      +6  BANK27  BANK28  BANK29  BANK30  BANK31  BANK32  BANK33  BANK34  BANK35  BANK36  BANK37  BANK38  BANK39  BANK40  BANK4
      +1  BANK42  BANK43  BANK44  BANK45  BANK46  BANK47  BANK48  BANK49  BANK50
  4327 ;;      Params:         0       6       0       0       0       0       0       0       0       0       0       0       
      +0       0       0       0       0       0       0       0       0       0       0       0       0       0       0       
      +0       0       0       0       0       0       0       0       0       0       0       0       0       0       0       
      +0       0       0       0       0       0       0       0       0       0
  4328 ;;      Locals:         0       3       0       0       0       0       0       0       0       0       0       0       
      +0       0       0       0       0       0       0       0       0       0       0       0       0       0       0       
      +0       0       0       0       0       0       0       0       0       0       0       0       0       0       0       
      +0       0       0       0       0       0       0       0       0       0
  4329 ;;      Temps:          0       4       0       0       0       0       0       0       0       0       0       0       
      +0       0       0       0       0       0       0       0       0       0       0       0       0       0       0       
      +0       0       0       0       0       0       0       0       0       0       0       0       0       0       0       
      +0       0       0       0       0       0       0       0       0       0
  4330 ;;      Totals:         0      13       0       0       0       0       0       0       0       0       0       0       
      +0       0       0       0       0       0       0       0       0       0       0       0       0       0       0       
      +0       0       0       0       0       0       0       0       0       0       0       0       0       0       0       
      +0       0       0       0       0       0       0       0       0       0
  4331 ;;Total ram usage:       13 bytes
  4332 ;; Hardware stack levels used:    1
  4333 ;; Hardware stack levels required when called:    2
  4334 ;; This function calls:
  4335 ;;		___ftpack
  4336 ;; This function is called by:
  4337 ;;		_geterror
  4338 ;;		_formula
  4339 ;; This function uses a non-reentrant model
  4340 ;;
  4341                           
  4342                           
  4343                           ;psect for function ___ftadd
  4344  06B4                     ___ftadd:	
  4345                           
  4346                           ;incstack = 0
  4347                           ; Regs used in ___ftadd: [wreg+status,2+status,0+pclath+cstack]
  4348  06B4  0140               	movlb	0	; select bank0
  4349  06B5  082C               	movf	___ftadd@f1,w
  4350  06B6  00B2               	movwf	??___ftadd
  4351  06B7  082D               	movf	___ftadd@f1+1,w
  4352  06B8  00B3               	movwf	??___ftadd+1
  4353  06B9  082E               	movf	___ftadd@f1+2,w
  4354  06BA  00B4               	movwf	??___ftadd+2
  4355  06BB  1003               	clrc
  4356  06BC  0D33               	rlf	??___ftadd+1,w
  4357  06BD  0D34               	rlf	??___ftadd+2,w
  4358  06BE  00B5               	movwf	??___ftadd+3
  4359  06BF  0835               	movf	??___ftadd+3,w
  4360  06C0  00B8               	movwf	___ftadd@exp1
  4361  06C1  082F               	movf	___ftadd@f2,w
  4362  06C2  00B2               	movwf	??___ftadd
  4363  06C3  0830               	movf	___ftadd@f2+1,w
  4364  06C4  00B3               	movwf	??___ftadd+1
  4365  06C5  0831               	movf	___ftadd@f2+2,w
  4366  06C6  00B4               	movwf	??___ftadd+2
  4367  06C7  1003               	clrc
  4368  06C8  0D33               	rlf	??___ftadd+1,w
  4369  06C9  0D34               	rlf	??___ftadd+2,w
  4370  06CA  00B5               	movwf	??___ftadd+3
  4371  06CB  0835               	movf	??___ftadd+3,w
  4372  06CC  00B7               	movwf	___ftadd@exp2
  4373  06CD  0838               	movf	___ftadd@exp1,w
  4374  06CE  1903               	btfsc	3,2
  4375  06CF  2EDC               	goto	l1049
  4376  06D0  0837               	movf	___ftadd@exp2,w
  4377  06D1  0238               	subwf	___ftadd@exp1,w
  4378  06D2  1803               	skipnc
  4379  06D3  2EE3               	goto	l1053
  4380  06D4  0338               	decf	___ftadd@exp1,w
  4381  06D5  3AFF               	xorlw	255
  4382  06D6  0737               	addwf	___ftadd@exp2,w
  4383  06D7  00B2               	movwf	??___ftadd
  4384  06D8  3019               	movlw	25
  4385  06D9  0232               	subwf	??___ftadd,w
  4386  06DA  1C03               	skipc
  4387  06DB  2EE3               	goto	l1053
  4388  06DC                     l1049:	
  4389  06DC  082F               	movf	___ftadd@f2,w
  4390  06DD  00AC               	movwf	?___ftadd
  4391  06DE  0830               	movf	___ftadd@f2+1,w
  4392  06DF  00AD               	movwf	?___ftadd+1
  4393  06E0  0831               	movf	___ftadd@f2+2,w
  4394  06E1  00AE               	movwf	?___ftadd+2
  4395  06E2  0008               	return
  4396  06E3                     l1053:	
  4397  06E3  0837               	movf	___ftadd@exp2,w
  4398  06E4  1903               	btfsc	3,2
  4399  06E5  0008               	return
  4400  06E6  0838               	movf	___ftadd@exp1,w
  4401  06E7  0237               	subwf	___ftadd@exp2,w
  4402  06E8  1803               	skipnc
  4403  06E9  2EF2               	goto	l1059
  4404  06EA  0337               	decf	___ftadd@exp2,w
  4405  06EB  3AFF               	xorlw	255
  4406  06EC  0738               	addwf	___ftadd@exp1,w
  4407  06ED  00B2               	movwf	??___ftadd
  4408  06EE  3019               	movlw	25
  4409  06EF  0232               	subwf	??___ftadd,w
  4410  06F0  1803               	btfsc	3,0
  4411  06F1  0008               	return
  4412  06F2                     l1059:	
  4413  06F2  3006               	movlw	6
  4414  06F3  00B2               	movwf	??___ftadd
  4415  06F4  0832               	movf	??___ftadd,w
  4416  06F5  00B6               	movwf	___ftadd@sign
  4417  06F6  1BAE               	btfsc	___ftadd@f1+2,7
  4418  06F7  17B6               	bsf	___ftadd@sign,7
  4419  06F8  1BB1               	btfsc	___ftadd@f2+2,7
  4420  06F9  1736               	bsf	___ftadd@sign,6
  4421  06FA  17AD               	bsf	___ftadd@f1+1,7
  4422  06FB  30FF               	movlw	255
  4423  06FC  05AC               	andwf	___ftadd@f1,f
  4424  06FD  30FF               	movlw	255
  4425  06FE  05AD               	andwf	___ftadd@f1+1,f
  4426  06FF  3000               	movlw	0
  4427  0700  05AE               	andwf	___ftadd@f1+2,f
  4428  0701  17B0               	bsf	___ftadd@f2+1,7
  4429  0702  30FF               	movlw	255
  4430  0703  05AF               	andwf	___ftadd@f2,f
  4431  0704  30FF               	movlw	255
  4432  0705  05B0               	andwf	___ftadd@f2+1,f
  4433  0706  3000               	movlw	0
  4434  0707  05B1               	andwf	___ftadd@f2+2,f
  4435  0708  0837               	movf	___ftadd@exp2,w
  4436  0709  0238               	subwf	___ftadd@exp1,w
  4437  070A  1803               	skipnc
  4438  070B  2F2E               	goto	l1081
  4439  070C                     l1071:	
  4440  070C  3001               	movlw	1
  4441  070D                     u1015:	
  4442  070D  35AF               	lslf	___ftadd@f2,f
  4443  070E  0DB0               	rlf	___ftadd@f2+1,f
  4444  070F  0DB1               	rlf	___ftadd@f2+2,f
  4445  0710  0B89               	decfsz	9,f
  4446  0711  2F0D               	goto	u1015
  4447  0712  3001               	movlw	1
  4448  0713  02B7               	subwf	___ftadd@exp2,f
  4449  0714  0837               	movf	___ftadd@exp2,w
  4450  0715  0638               	xorwf	___ftadd@exp1,w
  4451  0716  1903               	skipnz
  4452  0717  2F29               	goto	l1079
  4453  0718  3001               	movlw	1
  4454  0719  02B6               	subwf	___ftadd@sign,f
  4455  071A  0836               	movf	___ftadd@sign,w
  4456  071B  3907               	andlw	7
  4457  071C  1903               	btfsc	3,2
  4458  071D  2F29               	goto	l1079
  4459  071E  2F0C               	goto	l1071
  4460  071F                     l1077:	
  4461  071F  3001               	movlw	1
  4462  0720                     u1045:	
  4463  0720  36AE               	lsrf	___ftadd@f1+2,f
  4464  0721  0CAD               	rrf	___ftadd@f1+1,f
  4465  0722  0CAC               	rrf	___ftadd@f1,f
  4466  0723  0B89               	decfsz	9,f
  4467  0724  2F20               	goto	u1045
  4468  0725  3001               	movlw	1
  4469  0726  00B2               	movwf	??___ftadd
  4470  0727  0832               	movf	??___ftadd,w
  4471  0728  07B8               	addwf	___ftadd@exp1,f
  4472  0729                     l1079:	
  4473  0729  0838               	movf	___ftadd@exp1,w
  4474  072A  0637               	xorwf	___ftadd@exp2,w
  4475  072B  1903               	btfsc	3,2
  4476  072C  2F53               	goto	l403
  4477  072D  2F1F               	goto	l1077
  4478  072E                     l1081:	
  4479  072E  0838               	movf	___ftadd@exp1,w
  4480  072F  0237               	subwf	___ftadd@exp2,w
  4481  0730  1803               	skipnc
  4482  0731  2F53               	goto	l403
  4483  0732                     l1083:	
  4484  0732  3001               	movlw	1
  4485  0733                     u1075:	
  4486  0733  35AC               	lslf	___ftadd@f1,f
  4487  0734  0DAD               	rlf	___ftadd@f1+1,f
  4488  0735  0DAE               	rlf	___ftadd@f1+2,f
  4489  0736  0B89               	decfsz	9,f
  4490  0737  2F33               	goto	u1075
  4491  0738  3001               	movlw	1
  4492  0739  02B8               	subwf	___ftadd@exp1,f
  4493  073A  0837               	movf	___ftadd@exp2,w
  4494  073B  0638               	xorwf	___ftadd@exp1,w
  4495  073C  1903               	skipnz
  4496  073D  2F4F               	goto	l1091
  4497  073E  3001               	movlw	1
  4498  073F  02B6               	subwf	___ftadd@sign,f
  4499  0740  0836               	movf	___ftadd@sign,w
  4500  0741  3907               	andlw	7
  4501  0742  1903               	btfsc	3,2
  4502  0743  2F4F               	goto	l1091
  4503  0744  2F32               	goto	l1083
  4504  0745                     l1089:	
  4505  0745  3001               	movlw	1
  4506  0746                     u1105:	
  4507  0746  36B1               	lsrf	___ftadd@f2+2,f
  4508  0747  0CB0               	rrf	___ftadd@f2+1,f
  4509  0748  0CAF               	rrf	___ftadd@f2,f
  4510  0749  0B89               	decfsz	9,f
  4511  074A  2F46               	goto	u1105
  4512  074B  3001               	movlw	1
  4513  074C  00B2               	movwf	??___ftadd
  4514  074D  0832               	movf	??___ftadd,w
  4515  074E  07B7               	addwf	___ftadd@exp2,f
  4516  074F                     l1091:	
  4517  074F  0838               	movf	___ftadd@exp1,w
  4518  0750  0637               	xorwf	___ftadd@exp2,w
  4519  0751  1D03               	skipz
  4520  0752  2F45               	goto	l1089
  4521  0753                     l403:	
  4522  0753  1FB6               	btfss	___ftadd@sign,7
  4523  0754  2F65               	goto	l1095
  4524  0755  30FF               	movlw	255
  4525  0756  06AC               	xorwf	___ftadd@f1,f
  4526  0757  30FF               	movlw	255
  4527  0758  06AD               	xorwf	___ftadd@f1+1,f
  4528  0759  30FF               	movlw	255
  4529  075A  06AE               	xorwf	___ftadd@f1+2,f
  4530  075B  3001               	movlw	1
  4531  075C  07AC               	addwf	___ftadd@f1,f
  4532  075D  3000               	movlw	0
  4533  075E  1803               	skipnc
  4534  075F  3001               	movlw	1
  4535  0760  07AD               	addwf	___ftadd@f1+1,f
  4536  0761  3000               	movlw	0
  4537  0762  1803               	skipnc
  4538  0763  3001               	movlw	1
  4539  0764  07AE               	addwf	___ftadd@f1+2,f
  4540  0765                     l1095:	
  4541  0765  1F36               	btfss	___ftadd@sign,6
  4542  0766  2F77               	goto	l1099
  4543  0767  30FF               	movlw	255
  4544  0768  06AF               	xorwf	___ftadd@f2,f
  4545  0769  30FF               	movlw	255
  4546  076A  06B0               	xorwf	___ftadd@f2+1,f
  4547  076B  30FF               	movlw	255
  4548  076C  06B1               	xorwf	___ftadd@f2+2,f
  4549  076D  3001               	movlw	1
  4550  076E  07AF               	addwf	___ftadd@f2,f
  4551  076F  3000               	movlw	0
  4552  0770  1803               	skipnc
  4553  0771  3001               	movlw	1
  4554  0772  07B0               	addwf	___ftadd@f2+1,f
  4555  0773  3000               	movlw	0
  4556  0774  1803               	skipnc
  4557  0775  3001               	movlw	1
  4558  0776  07B1               	addwf	___ftadd@f2+2,f
  4559  0777                     l1099:	
  4560  0777  01B6               	clrf	___ftadd@sign
  4561  0778  082C               	movf	___ftadd@f1,w
  4562  0779  07AF               	addwf	___ftadd@f2,f
  4563  077A  082D               	movf	___ftadd@f1+1,w
  4564  077B  3DB0               	addwfc	___ftadd@f2+1,f
  4565  077C  082E               	movf	___ftadd@f1+2,w
  4566  077D  3DB1               	addwfc	___ftadd@f2+2,f
  4567  077E  1FB1               	btfss	___ftadd@f2+2,7
  4568  077F  2F92               	goto	l1109
  4569  0780  30FF               	movlw	255
  4570  0781  06AF               	xorwf	___ftadd@f2,f
  4571  0782  30FF               	movlw	255
  4572  0783  06B0               	xorwf	___ftadd@f2+1,f
  4573  0784  30FF               	movlw	255
  4574  0785  06B1               	xorwf	___ftadd@f2+2,f
  4575  0786  3001               	movlw	1
  4576  0787  07AF               	addwf	___ftadd@f2,f
  4577  0788  3000               	movlw	0
  4578  0789  1803               	skipnc
  4579  078A  3001               	movlw	1
  4580  078B  07B0               	addwf	___ftadd@f2+1,f
  4581  078C  3000               	movlw	0
  4582  078D  1803               	skipnc
  4583  078E  3001               	movlw	1
  4584  078F  07B1               	addwf	___ftadd@f2+2,f
  4585  0790  01B6               	clrf	___ftadd@sign
  4586  0791  0AB6               	incf	___ftadd@sign,f
  4587  0792                     l1109:	
  4588  0792  082F               	movf	___ftadd@f2,w
  4589  0793  00F1               	movwf	___ftpack@arg
  4590  0794  0830               	movf	___ftadd@f2+1,w
  4591  0795  00F2               	movwf	___ftpack@arg+1
  4592  0796  0831               	movf	___ftadd@f2+2,w
  4593  0797  00F3               	movwf	___ftpack@arg+2
  4594  0798  0838               	movf	___ftadd@exp1,w
  4595  0799  00B2               	movwf	??___ftadd
  4596  079A  0832               	movf	??___ftadd,w
  4597  079B  00F4               	movwf	___ftpack@exp
  4598  079C  0836               	movf	___ftadd@sign,w
  4599  079D  00B3               	movwf	??___ftadd+1
  4600  079E  0833               	movf	??___ftadd+1,w
  4601  079F  00F5               	movwf	___ftpack@sign
  4602  07A0  318A  22E5         	fcall	___ftpack
  4603  07A2  0871               	movf	?___ftpack,w
  4604  07A3  0140               	movlb	0	; select bank0
  4605  07A4  00AC               	movwf	?___ftadd
  4606  07A5  0872               	movf	?___ftpack+1,w
  4607  07A6  00AD               	movwf	?___ftadd+1
  4608  07A7  0873               	movf	?___ftpack+2,w
  4609  07A8  00AE               	movwf	?___ftadd+2
  4610  07A9  0008               	return
  4611  07AA                     __end_of___ftadd:	
  4612                           
  4613                           	psect	text9
  4614  07AA                     __ptext9:	
  4615 ;; *************** function ___awtoft *****************
  4616 ;; Defined at:
  4617 ;;		line 32 in file "C:\Program Files (x86)\Microchip\xc8\v1.45\sources\common\awtoft.c"
  4618 ;; Parameters:    Size  Location     Type
  4619 ;;  c               2   55[BANK0 ] int 
  4620 ;; Auto vars:     Size  Location     Type
  4621 ;;  sign            1   60[BANK0 ] unsigned char 
  4622 ;; Return value:  Size  Location     Type
  4623 ;;                  3   55[BANK0 ] float 
  4624 ;; Registers used:
  4625 ;;		wreg, status,2, status,0, pclath, cstack
  4626 ;; Tracked objects:
  4627 ;;		On entry : 0/0
  4628 ;;		On exit  : 0/0
  4629 ;;		Unchanged: 0/0
  4630 ;; Data sizes:     COMMON   BANK0   BANK1   BANK2   BANK3   BANK4   BANK5   BANK6   BANK7   BANK8   BANK9  BANK10  BANK1
      +1  BANK12  BANK13  BANK14  BANK15  BANK16  BANK17  BANK18  BANK19  BANK20  BANK21  BANK22  BANK23  BANK24  BANK25  BANK2
      +6  BANK27  BANK28  BANK29  BANK30  BANK31  BANK32  BANK33  BANK34  BANK35  BANK36  BANK37  BANK38  BANK39  BANK40  BANK4
      +1  BANK42  BANK43  BANK44  BANK45  BANK46  BANK47  BANK48  BANK49  BANK50
  4631 ;;      Params:         0       3       0       0       0       0       0       0       0       0       0       0       
      +0       0       0       0       0       0       0       0       0       0       0       0       0       0       0       
      +0       0       0       0       0       0       0       0       0       0       0       0       0       0       0       
      +0       0       0       0       0       0       0       0       0       0
  4632 ;;      Locals:         0       1       0       0       0       0       0       0       0       0       0       0       
      +0       0       0       0       0       0       0       0       0       0       0       0       0       0       0       
      +0       0       0       0       0       0       0       0       0       0       0       0       0       0       0       
      +0       0       0       0       0       0       0       0       0       0
  4633 ;;      Temps:          0       2       0       0       0       0       0       0       0       0       0       0       
      +0       0       0       0       0       0       0       0       0       0       0       0       0       0       0       
      +0       0       0       0       0       0       0       0       0       0       0       0       0       0       0       
      +0       0       0       0       0       0       0       0       0       0
  4634 ;;      Totals:         0       6       0       0       0       0       0       0       0       0       0       0       
      +0       0       0       0       0       0       0       0       0       0       0       0       0       0       0       
      +0       0       0       0       0       0       0       0       0       0       0       0       0       0       0       
      +0       0       0       0       0       0       0       0       0       0
  4635 ;;Total ram usage:        6 bytes
  4636 ;; Hardware stack levels used:    1
  4637 ;; Hardware stack levels required when called:    2
  4638 ;; This function calls:
  4639 ;;		___ftpack
  4640 ;; This function is called by:
  4641 ;;		_geterror
  4642 ;;		_formula
  4643 ;; This function uses a non-reentrant model
  4644 ;;
  4645                           
  4646                           
  4647                           ;psect for function ___awtoft
  4648  07AA                     ___awtoft:	
  4649                           
  4650                           ;incstack = 0
  4651                           ; Regs used in ___awtoft: [wreg+status,2+status,0+pclath+cstack]
  4652  07AA  0140               	movlb	0	; select bank0
  4653  07AB  01DC               	clrf	___awtoft@sign
  4654  07AC  1FD8               	btfss	___awtoft@c+1,7
  4655  07AD  2FB5               	goto	l1039
  4656  07AE  09D7               	comf	___awtoft@c,f
  4657  07AF  09D8               	comf	___awtoft@c+1,f
  4658  07B0  0AD7               	incf	___awtoft@c,f
  4659  07B1  1903               	skipnz
  4660  07B2  0AD8               	incf	___awtoft@c+1,f
  4661  07B3  01DC               	clrf	___awtoft@sign
  4662  07B4  0ADC               	incf	___awtoft@sign,f
  4663  07B5                     l1039:	
  4664  07B5  0857               	movf	___awtoft@c,w
  4665  07B6  00F1               	movwf	___ftpack@arg
  4666  07B7  0858               	movf	___awtoft@c+1,w
  4667  07B8  00F2               	movwf	___ftpack@arg+1
  4668  07B9  01F3               	clrf	___ftpack@arg+2
  4669  07BA  308E               	movlw	142
  4670  07BB  00DA               	movwf	??___awtoft
  4671  07BC  085A               	movf	??___awtoft,w
  4672  07BD  00F4               	movwf	___ftpack@exp
  4673  07BE  085C               	movf	___awtoft@sign,w
  4674  07BF  00DB               	movwf	??___awtoft+1
  4675  07C0  085B               	movf	??___awtoft+1,w
  4676  07C1  00F5               	movwf	___ftpack@sign
  4677  07C2  318A  22E5         	fcall	___ftpack
  4678  07C4  0871               	movf	?___ftpack,w
  4679  07C5  0140               	movlb	0	; select bank0
  4680  07C6  00D7               	movwf	?___awtoft
  4681  07C7  0872               	movf	?___ftpack+1,w
  4682  07C8  00D8               	movwf	?___awtoft+1
  4683  07C9  0873               	movf	?___ftpack+2,w
  4684  07CA  00D9               	movwf	?___awtoft+2
  4685  07CB  0008               	return
  4686  07CC                     __end_of___awtoft:	
  4687                           
  4688                           	psect	text10
  4689  0AE5                     __ptext10:	
  4690 ;; *************** function ___ftpack *****************
  4691 ;; Defined at:
  4692 ;;		line 62 in file "C:\Program Files (x86)\Microchip\xc8\v1.45\sources\common\float.c"
  4693 ;; Parameters:    Size  Location     Type
  4694 ;;  arg             3    1[COMMON] unsigned um
  4695 ;;  exp             1    4[COMMON] unsigned char 
  4696 ;;  sign            1    5[COMMON] unsigned char 
  4697 ;; Auto vars:     Size  Location     Type
  4698 ;;		None
  4699 ;; Return value:  Size  Location     Type
  4700 ;;                  3    1[COMMON] float 
  4701 ;; Registers used:
  4702 ;;		wreg, status,2, status,0
  4703 ;; Tracked objects:
  4704 ;;		On entry : 0/0
  4705 ;;		On exit  : 0/0
  4706 ;;		Unchanged: 0/0
  4707 ;; Data sizes:     COMMON   BANK0   BANK1   BANK2   BANK3   BANK4   BANK5   BANK6   BANK7   BANK8   BANK9  BANK10  BANK1
      +1  BANK12  BANK13  BANK14  BANK15  BANK16  BANK17  BANK18  BANK19  BANK20  BANK21  BANK22  BANK23  BANK24  BANK25  BANK2
      +6  BANK27  BANK28  BANK29  BANK30  BANK31  BANK32  BANK33  BANK34  BANK35  BANK36  BANK37  BANK38  BANK39  BANK40  BANK4
      +1  BANK42  BANK43  BANK44  BANK45  BANK46  BANK47  BANK48  BANK49  BANK50
  4708 ;;      Params:         5       0       0       0       0       0       0       0       0       0       0       0       
      +0       0       0       0       0       0       0       0       0       0       0       0       0       0       0       
      +0       0       0       0       0       0       0       0       0       0       0       0       0       0       0       
      +0       0       0       0       0       0       0       0       0       0
  4709 ;;      Locals:         0       0       0       0       0       0       0       0       0       0       0       0       
      +0       0       0       0       0       0       0       0       0       0       0       0       0       0       0       
      +0       0       0       0       0       0       0       0       0       0       0       0       0       0       0       
      +0       0       0       0       0       0       0       0       0       0
  4710 ;;      Temps:          3       0       0       0       0       0       0       0       0       0       0       0       
      +0       0       0       0       0       0       0       0       0       0       0       0       0       0       0       
      +0       0       0       0       0       0       0       0       0       0       0       0       0       0       0       
      +0       0       0       0       0       0       0       0       0       0
  4711 ;;      Totals:         8       0       0       0       0       0       0       0       0       0       0       0       
      +0       0       0       0       0       0       0       0       0       0       0       0       0       0       0       
      +0       0       0       0       0       0       0       0       0       0       0       0       0       0       0       
      +0       0       0       0       0       0       0       0       0       0
  4712 ;;Total ram usage:        8 bytes
  4713 ;; Hardware stack levels used:    1
  4714 ;; Hardware stack levels required when called:    1
  4715 ;; This function calls:
  4716 ;;		Nothing
  4717 ;; This function is called by:
  4718 ;;		___awtoft
  4719 ;;		___ftadd
  4720 ;;		___ftdiv
  4721 ;;		___ftmul
  4722 ;;		___lwtoft
  4723 ;; This function uses a non-reentrant model
  4724 ;;
  4725                           
  4726                           
  4727                           ;psect for function ___ftpack
  4728  0AE5                     ___ftpack:	
  4729                           
  4730                           ;incstack = 0
  4731                           ; Regs used in ___ftpack: [wreg+status,2+status,0]
  4732  0AE5  0874               	movf	___ftpack@exp,w
  4733  0AE6  1903               	btfsc	3,2
  4734  0AE7  2AED               	goto	l1003
  4735  0AE8  0873               	movf	___ftpack@arg+2,w
  4736  0AE9  0472               	iorwf	___ftpack@arg+1,w
  4737  0AEA  0471               	iorwf	___ftpack@arg,w
  4738  0AEB  1D03               	skipz
  4739  0AEC  2AFE               	goto	l1009
  4740  0AED                     l1003:	
  4741  0AED  3000               	movlw	0
  4742  0AEE  00F1               	movwf	?___ftpack
  4743  0AEF  3000               	movlw	0
  4744  0AF0  00F2               	movwf	?___ftpack+1
  4745  0AF1  3000               	movlw	0
  4746  0AF2  00F3               	movwf	?___ftpack+2
  4747  0AF3  0008               	return
  4748  0AF4                     l1007:	
  4749  0AF4  3001               	movlw	1
  4750  0AF5  00F6               	movwf	??___ftpack
  4751  0AF6  0876               	movf	??___ftpack,w
  4752  0AF7  07F4               	addwf	___ftpack@exp,f
  4753  0AF8  3001               	movlw	1
  4754  0AF9                     u815:	
  4755  0AF9  36F3               	lsrf	___ftpack@arg+2,f
  4756  0AFA  0CF2               	rrf	___ftpack@arg+1,f
  4757  0AFB  0CF1               	rrf	___ftpack@arg,f
  4758  0AFC  0B89               	decfsz	9,f
  4759  0AFD  2AF9               	goto	u815
  4760  0AFE                     l1009:	
  4761  0AFE  30FE               	movlw	254
  4762  0AFF  0573               	andwf	___ftpack@arg+2,w
  4763  0B00  1903               	btfsc	3,2
  4764  0B01  2B17               	goto	l372
  4765  0B02  2AF4               	goto	l1007
  4766  0B03                     l1011:	
  4767  0B03  3001               	movlw	1
  4768  0B04  00F6               	movwf	??___ftpack
  4769  0B05  0876               	movf	??___ftpack,w
  4770  0B06  07F4               	addwf	___ftpack@exp,f
  4771  0B07  3001               	movlw	1
  4772  0B08  07F1               	addwf	___ftpack@arg,f
  4773  0B09  3000               	movlw	0
  4774  0B0A  1803               	skipnc
  4775  0B0B  3001               	movlw	1
  4776  0B0C  07F2               	addwf	___ftpack@arg+1,f
  4777  0B0D  3000               	movlw	0
  4778  0B0E  1803               	skipnc
  4779  0B0F  3001               	movlw	1
  4780  0B10  07F3               	addwf	___ftpack@arg+2,f
  4781  0B11  3001               	movlw	1
  4782  0B12                     u835:	
  4783  0B12  36F3               	lsrf	___ftpack@arg+2,f
  4784  0B13  0CF2               	rrf	___ftpack@arg+1,f
  4785  0B14  0CF1               	rrf	___ftpack@arg,f
  4786  0B15  0B89               	decfsz	9,f
  4787  0B16  2B12               	goto	u835
  4788  0B17                     l372:	
  4789  0B17  30FF               	movlw	255
  4790  0B18  0573               	andwf	___ftpack@arg+2,w
  4791  0B19  1903               	btfsc	3,2
  4792  0B1A  2B24               	goto	l1019
  4793  0B1B  2B03               	goto	l1011
  4794  0B1C                     l1017:	
  4795  0B1C  3001               	movlw	1
  4796  0B1D  02F4               	subwf	___ftpack@exp,f
  4797  0B1E  3001               	movlw	1
  4798  0B1F                     u855:	
  4799  0B1F  35F1               	lslf	___ftpack@arg,f
  4800  0B20  0DF2               	rlf	___ftpack@arg+1,f
  4801  0B21  0DF3               	rlf	___ftpack@arg+2,f
  4802  0B22  0B89               	decfsz	9,f
  4803  0B23  2B1F               	goto	u855
  4804  0B24                     l1019:	
  4805  0B24  1BF2               	btfsc	___ftpack@arg+1,7
  4806  0B25  2B2A               	goto	l379
  4807  0B26  3002               	movlw	2
  4808  0B27  0274               	subwf	___ftpack@exp,w
  4809  0B28  1803               	skipnc
  4810  0B29  2B1C               	goto	l1017
  4811  0B2A                     l379:	
  4812  0B2A  1874               	btfsc	___ftpack@exp,0
  4813  0B2B  2B32               	goto	l380
  4814  0B2C  30FF               	movlw	255
  4815  0B2D  05F1               	andwf	___ftpack@arg,f
  4816  0B2E  307F               	movlw	127
  4817  0B2F  05F2               	andwf	___ftpack@arg+1,f
  4818  0B30  30FF               	movlw	255
  4819  0B31  05F3               	andwf	___ftpack@arg+2,f
  4820  0B32                     l380:	
  4821  0B32  1003               	clrc
  4822  0B33  0CF4               	rrf	___ftpack@exp,f
  4823  0B34  0874               	movf	___ftpack@exp,w
  4824  0B35  00F6               	movwf	??___ftpack
  4825  0B36  01F7               	clrf	??___ftpack+1
  4826  0B37  01F8               	clrf	??___ftpack+2
  4827  0B38  3010               	movlw	16
  4828  0B39                     u895:	
  4829  0B39  35F6               	lslf	??___ftpack,f
  4830  0B3A  0DF7               	rlf	??___ftpack+1,f
  4831  0B3B  0DF8               	rlf	??___ftpack+2,f
  4832  0B3C  0B89               	decfsz	9,f
  4833  0B3D  2B39               	goto	u895
  4834  0B3E  0876               	movf	??___ftpack,w
  4835  0B3F  04F1               	iorwf	___ftpack@arg,f
  4836  0B40  0877               	movf	??___ftpack+1,w
  4837  0B41  04F2               	iorwf	___ftpack@arg+1,f
  4838  0B42  0878               	movf	??___ftpack+2,w
  4839  0B43  04F3               	iorwf	___ftpack@arg+2,f
  4840  0B44  0875               	movf	___ftpack@sign,w
  4841  0B45  1903               	btfsc	3,2
  4842  0B46  0008               	return
  4843  0B47  17F3               	bsf	___ftpack@arg+2,7
  4844  0B48  0008               	return
  4845  0B49                     __end_of___ftpack:	
  4846                           
  4847                           	psect	intentry
  4848  0004                     __pintentry:	
  4849 ;; *************** function _interrupcion *****************
  4850 ;; Defined at:
  4851 ;;		line 122 in file "main.c"
  4852 ;; Parameters:    Size  Location     Type
  4853 ;;		None
  4854 ;; Auto vars:     Size  Location     Type
  4855 ;;		None
  4856 ;; Return value:  Size  Location     Type
  4857 ;;                  1    wreg      void 
  4858 ;; Registers used:
  4859 ;;		None
  4860 ;; Tracked objects:
  4861 ;;		On entry : 0/0
  4862 ;;		On exit  : 0/0
  4863 ;;		Unchanged: 0/0
  4864 ;; Data sizes:     COMMON   BANK0   BANK1   BANK2   BANK3   BANK4   BANK5   BANK6   BANK7   BANK8   BANK9  BANK10  BANK1
      +1  BANK12  BANK13  BANK14  BANK15  BANK16  BANK17  BANK18  BANK19  BANK20  BANK21  BANK22  BANK23  BANK24  BANK25  BANK2
      +6  BANK27  BANK28  BANK29  BANK30  BANK31  BANK32  BANK33  BANK34  BANK35  BANK36  BANK37  BANK38  BANK39  BANK40  BANK4
      +1  BANK42  BANK43  BANK44  BANK45  BANK46  BANK47  BANK48  BANK49  BANK50
  4865 ;;      Params:         0       0       0       0       0       0       0       0       0       0       0       0       
      +0       0       0       0       0       0       0       0       0       0       0       0       0       0       0       
      +0       0       0       0       0       0       0       0       0       0       0       0       0       0       0       
      +0       0       0       0       0       0       0       0       0       0
  4866 ;;      Locals:         0       0       0       0       0       0       0       0       0       0       0       0       
      +0       0       0       0       0       0       0       0       0       0       0       0       0       0       0       
      +0       0       0       0       0       0       0       0       0       0       0       0       0       0       0       
      +0       0       0       0       0       0       0       0       0       0
  4867 ;;      Temps:          1       0       0       0       0       0       0       0       0       0       0       0       
      +0       0       0       0       0       0       0       0       0       0       0       0       0       0       0       
      +0       0       0       0       0       0       0       0       0       0       0       0       0       0       0       
      +0       0       0       0       0       0       0       0       0       0
  4868 ;;      Totals:         1       0       0       0       0       0       0       0       0       0       0       0       
      +0       0       0       0       0       0       0       0       0       0       0       0       0       0       0       
      +0       0       0       0       0       0       0       0       0       0       0       0       0       0       0       
      +0       0       0       0       0       0       0       0       0       0
  4869 ;;Total ram usage:        1 bytes
  4870 ;; Hardware stack levels used:    1
  4871 ;; This function calls:
  4872 ;;		Nothing
  4873 ;; This function is called by:
  4874 ;;		Interrupt level 1
  4875 ;; This function uses a non-reentrant model
  4876 ;;
  4877                           
  4878  0004                     _interrupcion:	
  4879                           
  4880                           ;incstack = 0
  4881  0004  147E               	bsf	126,0	;set compiler interrupt flag (level 1)
  4882                           
  4883                           ; Regs used in _interrupcion: []
  4884  0005  3180               	pagesel	$
  4885  0006  0140               	movlb	0	; select bank0
  4886  0007  087F               	movf	127,w
  4887  0008  00F0               	movwf	??_interrupcion
  4888                           
  4889                           ;main.c: 124: PIR4bits.TMR1IF=0;
  4890  0009  014E               	movlb	14	; select bank14
  4891  000A  1010               	bcf	16,0	;volatile
  4892  000B  0870               	movf	??_interrupcion,w
  4893  000C  0140               	movlb	0	; select bank0
  4894  000D  00FF               	movwf	127
  4895  000E  107E               	bcf	126,0	;clear compiler interrupt flag (level 1)
  4896  000F  0009               	retfie
  4897  0010                     __end_of_interrupcion:	
  4898  007E                     btemp	set	126	;btemp
  4899  007E                     int$flags	set	126
  4900  007E                     wtemp0	set	126


Data Sizes:
    Strings     0
    Constant    0
    Data        13
    BSS         22
    Persistent  0
    Stack       0

Auto Spaces:
    Space          Size  Autos    Used
    COMMON           14     13      13
    BANK0            80     78      80
    BANK1            80      0      33
    BANK2            80      0       0
    BANK3            80      0       0
    BANK4            80      0       0
    BANK5            80      0       0
    BANK6            80      0       0
    BANK7            80      0       0
    BANK8            80      0       0
    BANK9            80      0       0
    BANK10           80      0       0
    BANK11           80      0       0
    BANK12           80      0       0
    BANK13           80      0       0
    BANK14           80      0       0
    BANK15           80      0       0
    BANK16           80      0       0
    BANK17           80      0       0
    BANK18           80      0       0
    BANK19           80      0       0
    BANK20           80      0       0
    BANK21           80      0       0
    BANK22           80      0       0
    BANK23           80      0       0
    BANK24           80      0       0
    BANK25           80      0       0
    BANK26           80      0       0
    BANK27           80      0       0
    BANK28           80      0       0
    BANK29           80      0       0
    BANK30           80      0       0
    BANK31           80      0       0
    BANK32           80      0       0
    BANK33           80      0       0
    BANK34           80      0       0
    BANK35           80      0       0
    BANK36           80      0       0
    BANK37           80      0       0
    BANK38           80      0       0
    BANK39           80      0       0
    BANK40           80      0       0
    BANK41           80      0       0
    BANK42           80      0       0
    BANK43           80      0       0
    BANK44           80      0       0
    BANK45           80      0       0
    BANK46           80      0       0
    BANK47           80      0       0
    BANK48           80      0       0
    BANK49           80      0       0
    BANK50           80      0       0

Pointer List with Targets:

    None.

Critical Paths under _main in COMMON

    _geterror->___ftmul
    _geterror->___lwtoft
    ___lwtoft->___ftpack
    ___ftdiv->___ftmul
    ___ftdiv->___lwtoft
    _formula->___ftmul
    ___fttol->___ftmul
    ___ftneg->___ftmul
    ___ftmul->___ftpack
    ___ftmul->___ftpack
    ___ftadd->___ftmul
    ___awtoft->___ftmul

Critical Paths under _interrupcion in COMMON

    None.

Critical Paths under _main in BANK0

    _main->_formula
    _geterror->___awtoft
    ___ftdiv->___ftadd
    _formula->___ftneg
    ___fttol->___ftdiv
    ___ftneg->___awtoft
    ___ftadd->___ftmul
    ___awtoft->___fttol

Critical Paths under _interrupcion in BANK0

    None.

Critical Paths under _main in BANK1

    None.

Critical Paths under _interrupcion in BANK1

    None.

Critical Paths under _main in BANK2

    None.

Critical Paths under _interrupcion in BANK2

    None.

Critical Paths under _main in BANK3

    None.

Critical Paths under _interrupcion in BANK3

    None.

Critical Paths under _main in BANK4

    None.

Critical Paths under _interrupcion in BANK4

    None.

Critical Paths under _main in BANK5

    None.

Critical Paths under _interrupcion in BANK5

    None.

Critical Paths under _main in BANK6

    None.

Critical Paths under _interrupcion in BANK6

    None.

Critical Paths under _main in BANK7

    None.

Critical Paths under _interrupcion in BANK7

    None.

Critical Paths under _main in BANK8

    None.

Critical Paths under _interrupcion in BANK8

    None.

Critical Paths under _main in BANK9

    None.

Critical Paths under _interrupcion in BANK9

    None.

Critical Paths under _main in BANK10

    None.

Critical Paths under _interrupcion in BANK10

    None.

Critical Paths under _main in BANK11

    None.

Critical Paths under _interrupcion in BANK11

    None.

Critical Paths under _main in BANK12

    None.

Critical Paths under _interrupcion in BANK12

    None.

Critical Paths under _main in BANK13

    None.

Critical Paths under _interrupcion in BANK13

    None.

Critical Paths under _main in BANK14

    None.

Critical Paths under _interrupcion in BANK14

    None.

Critical Paths under _main in BANK15

    None.

Critical Paths under _interrupcion in BANK15

    None.

Critical Paths under _main in BANK16

    None.

Critical Paths under _interrupcion in BANK16

    None.

Critical Paths under _main in BANK17

    None.

Critical Paths under _interrupcion in BANK17

    None.

Critical Paths under _main in BANK18

    None.

Critical Paths under _interrupcion in BANK18

    None.

Critical Paths under _main in BANK19

    None.

Critical Paths under _interrupcion in BANK19

    None.

Critical Paths under _main in BANK20

    None.

Critical Paths under _interrupcion in BANK20

    None.

Critical Paths under _main in BANK21

    None.

Critical Paths under _interrupcion in BANK21

    None.

Critical Paths under _main in BANK22

    None.

Critical Paths under _interrupcion in BANK22

    None.

Critical Paths under _main in BANK23

    None.

Critical Paths under _interrupcion in BANK23

    None.

Critical Paths under _main in BANK24

    None.

Critical Paths under _interrupcion in BANK24

    None.

Critical Paths under _main in BANK25

    None.

Critical Paths under _interrupcion in BANK25

    None.

Critical Paths under _main in BANK26

    None.

Critical Paths under _interrupcion in BANK26

    None.

Critical Paths under _main in BANK27

    None.

Critical Paths under _interrupcion in BANK27

    None.

Critical Paths under _main in BANK28

    None.

Critical Paths under _interrupcion in BANK28

    None.

Critical Paths under _main in BANK29

    None.

Critical Paths under _interrupcion in BANK29

    None.

Critical Paths under _main in BANK30

    None.

Critical Paths under _interrupcion in BANK30

    None.

Critical Paths under _main in BANK31

    None.

Critical Paths under _interrupcion in BANK31

    None.

Critical Paths under _main in BANK32

    None.

Critical Paths under _interrupcion in BANK32

    None.

Critical Paths under _main in BANK33

    None.

Critical Paths under _interrupcion in BANK33

    None.

Critical Paths under _main in BANK34

    None.

Critical Paths under _interrupcion in BANK34

    None.

Critical Paths under _main in BANK35

    None.

Critical Paths under _interrupcion in BANK35

    None.

Critical Paths under _main in BANK36

    None.

Critical Paths under _interrupcion in BANK36

    None.

Critical Paths under _main in BANK37

    None.

Critical Paths under _interrupcion in BANK37

    None.

Critical Paths under _main in BANK38

    None.

Critical Paths under _interrupcion in BANK38

    None.

Critical Paths under _main in BANK39

    None.

Critical Paths under _interrupcion in BANK39

    None.

Critical Paths under _main in BANK40

    None.

Critical Paths under _interrupcion in BANK40

    None.

Critical Paths under _main in BANK41

    None.

Critical Paths under _interrupcion in BANK41

    None.

Critical Paths under _main in BANK42

    None.

Critical Paths under _interrupcion in BANK42

    None.

Critical Paths under _main in BANK43

    None.

Critical Paths under _interrupcion in BANK43

    None.

Critical Paths under _main in BANK44

    None.

Critical Paths under _interrupcion in BANK44

    None.

Critical Paths under _main in BANK45

    None.

Critical Paths under _interrupcion in BANK45

    None.

Critical Paths under _main in BANK46

    None.

Critical Paths under _interrupcion in BANK46

    None.

Critical Paths under _main in BANK47

    None.

Critical Paths under _interrupcion in BANK47

    None.

Critical Paths under _main in BANK48

    None.

Critical Paths under _interrupcion in BANK48

    None.

Critical Paths under _main in BANK49

    None.

Critical Paths under _interrupcion in BANK49

    None.

Critical Paths under _main in BANK50

    None.

Critical Paths under _interrupcion in BANK50

    None.

Call Graph Tables:

 ---------------------------------------------------------------------------------
 (Depth) Function   	        Calls       Base Space   Used Autos Params    Refs
 ---------------------------------------------------------------------------------
 (0) _main                                                 6     2      4   36192
                                             72 BANK0      6     2      4
                            _formula
                           _geterror
 ---------------------------------------------------------------------------------
 (1) _geterror                                             8     8      0   19995
                                             61 BANK0      8     8      0
                           ___awtoft
                            ___ftadd
                            ___ftdiv
                            ___ftmul
                            ___fttol
                           ___lwtoft
 ---------------------------------------------------------------------------------
 (2) ___lwtoft                                             4     1      3    1927
                                              9 COMMON     4     1      3
                           ___ftpack
 ---------------------------------------------------------------------------------
 (2) ___ftdiv                                             16    10      6    2768
                                             25 BANK0     16    10      6
                            ___ftadd (ARG)
                            ___ftmul (ARG)
                           ___ftpack
                           ___lwtoft (ARG)
 ---------------------------------------------------------------------------------
 (1) _formula                                              8     8      0   16197
                                             64 BANK0      8     8      0
                           ___awtoft
                            ___ftadd
                            ___ftmul
                            ___ftneg
                            ___fttol
 ---------------------------------------------------------------------------------
 (2) ___fttol                                             14    10      4     994
                                             41 BANK0     14    10      4
                            ___ftadd (ARG)
                            ___ftdiv (ARG)
                            ___ftmul (ARG)
                           ___ftpack (ARG)
 ---------------------------------------------------------------------------------
 (2) ___ftneg                                              3     0      3     575
                                             61 BANK0      3     0      3
                           ___awtoft (ARG)
                            ___ftadd (ARG)
                            ___ftmul (ARG)
                            ___fttol (ARG)
 ---------------------------------------------------------------------------------
 (2) ___ftmul                                             16    10      6    5464
                                              9 COMMON     4     4      0
                                              0 BANK0     12     6      6
                           ___ftpack
                           ___ftpack (ARG)
 ---------------------------------------------------------------------------------
 (2) ___ftadd                                             13     7      6    5210
                                             12 BANK0     13     7      6
                            ___ftmul (ARG)
                           ___ftpack
                           ___ftpack (ARG)
 ---------------------------------------------------------------------------------
 (2) ___awtoft                                             6     3      3    3586
                                             55 BANK0      6     3      3
                            ___ftadd (ARG)
                            ___ftdiv (ARG)
                            ___ftmul (ARG)
                           ___ftpack
                            ___fttol (ARG)
 ---------------------------------------------------------------------------------
 (3) ___ftpack                                             8     3      5    1746
                                              1 COMMON     8     3      5
 ---------------------------------------------------------------------------------
 Estimated maximum stack depth 3
 ---------------------------------------------------------------------------------
 (Depth) Function   	        Calls       Base Space   Used Autos Params    Refs
 ---------------------------------------------------------------------------------
 (4) _interrupcion                                         1     1      0       0
                                              0 COMMON     1     1      0
 ---------------------------------------------------------------------------------
 Estimated maximum stack depth 4
 ---------------------------------------------------------------------------------

 Call Graph Graphs:

 _main (ROOT)
   _formula
     ___awtoft
       ___ftadd (ARG)
         ___ftmul (ARG)
           ___ftpack
           ___ftpack (ARG)
         ___ftpack (ARG)
         ___ftpack (ARG)
       ___ftdiv (ARG)
         ___ftadd (ARG)
           ___ftmul (ARG)
             ___ftpack
             ___ftpack (ARG)
           ___ftpack (ARG)
           ___ftpack (ARG)
         ___ftmul (ARG)
           ___ftpack
           ___ftpack (ARG)
         ___ftpack (ARG)
         ___lwtoft (ARG)
           ___ftpack
       ___ftmul (ARG)
         ___ftpack
         ___ftpack (ARG)
       ___ftpack (ARG)
       ___fttol (ARG)
         ___ftadd (ARG)
           ___ftmul (ARG)
             ___ftpack
             ___ftpack (ARG)
           ___ftpack (ARG)
           ___ftpack (ARG)
         ___ftdiv (ARG)
           ___ftadd (ARG)
             ___ftmul (ARG)
               ___ftpack
               ___ftpack (ARG)
             ___ftpack (ARG)
             ___ftpack (ARG)
           ___ftmul (ARG)
             ___ftpack
             ___ftpack (ARG)
           ___ftpack (ARG)
           ___lwtoft (ARG)
             ___ftpack
         ___ftmul (ARG)
           ___ftpack
           ___ftpack (ARG)
         ___ftpack (ARG)
     ___ftadd
       ___ftmul (ARG)
         ___ftpack
         ___ftpack (ARG)
       ___ftpack (ARG)
       ___ftpack (ARG)
     ___ftmul
       ___ftpack
       ___ftpack (ARG)
     ___ftneg
       ___awtoft (ARG)
         ___ftadd (ARG)
           ___ftmul (ARG)
             ___ftpack
             ___ftpack (ARG)
           ___ftpack (ARG)
           ___ftpack (ARG)
         ___ftdiv (ARG)
           ___ftadd (ARG)
             ___ftmul (ARG)
               ___ftpack
               ___ftpack (ARG)
             ___ftpack (ARG)
             ___ftpack (ARG)
           ___ftmul (ARG)
             ___ftpack
             ___ftpack (ARG)
           ___ftpack (ARG)
           ___lwtoft (ARG)
             ___ftpack
         ___ftmul (ARG)
           ___ftpack
           ___ftpack (ARG)
         ___ftpack (ARG)
         ___fttol (ARG)
           ___ftadd (ARG)
             ___ftmul (ARG)
               ___ftpack
               ___ftpack (ARG)
             ___ftpack (ARG)
             ___ftpack (ARG)
           ___ftdiv (ARG)
             ___ftadd (ARG)
               ___ftmul (ARG)
                 ___ftpack
                 ___ftpack (ARG)
               ___ftpack (ARG)
               ___ftpack (ARG)
             ___ftmul (ARG)
               ___ftpack
               ___ftpack (ARG)
             ___ftpack (ARG)
             ___lwtoft (ARG)
               ___ftpack
           ___ftmul (ARG)
             ___ftpack
             ___ftpack (ARG)
           ___ftpack (ARG)
       ___ftadd (ARG)
         ___ftmul (ARG)
           ___ftpack
           ___ftpack (ARG)
         ___ftpack (ARG)
         ___ftpack (ARG)
       ___ftmul (ARG)
         ___ftpack
         ___ftpack (ARG)
       ___fttol (ARG)
         ___ftadd (ARG)
           ___ftmul (ARG)
             ___ftpack
             ___ftpack (ARG)
           ___ftpack (ARG)
           ___ftpack (ARG)
         ___ftdiv (ARG)
           ___ftadd (ARG)
             ___ftmul (ARG)
               ___ftpack
               ___ftpack (ARG)
             ___ftpack (ARG)
             ___ftpack (ARG)
           ___ftmul (ARG)
             ___ftpack
             ___ftpack (ARG)
           ___ftpack (ARG)
           ___lwtoft (ARG)
             ___ftpack
         ___ftmul (ARG)
           ___ftpack
           ___ftpack (ARG)
         ___ftpack (ARG)
     ___fttol
       ___ftadd (ARG)
         ___ftmul (ARG)
           ___ftpack
           ___ftpack (ARG)
         ___ftpack (ARG)
         ___ftpack (ARG)
       ___ftdiv (ARG)
         ___ftadd (ARG)
           ___ftmul (ARG)
             ___ftpack
             ___ftpack (ARG)
           ___ftpack (ARG)
           ___ftpack (ARG)
         ___ftmul (ARG)
           ___ftpack
           ___ftpack (ARG)
         ___ftpack (ARG)
         ___lwtoft (ARG)
           ___ftpack
       ___ftmul (ARG)
         ___ftpack
         ___ftpack (ARG)
       ___ftpack (ARG)
   _geterror
     ___awtoft
       ___ftadd (ARG)
         ___ftmul (ARG)
           ___ftpack
           ___ftpack (ARG)
         ___ftpack (ARG)
         ___ftpack (ARG)
       ___ftdiv (ARG)
         ___ftadd (ARG)
           ___ftmul (ARG)
             ___ftpack
             ___ftpack (ARG)
           ___ftpack (ARG)
           ___ftpack (ARG)
         ___ftmul (ARG)
           ___ftpack
           ___ftpack (ARG)
         ___ftpack (ARG)
         ___lwtoft (ARG)
           ___ftpack
       ___ftmul (ARG)
         ___ftpack
         ___ftpack (ARG)
       ___ftpack (ARG)
       ___fttol (ARG)
         ___ftadd (ARG)
           ___ftmul (ARG)
             ___ftpack
             ___ftpack (ARG)
           ___ftpack (ARG)
           ___ftpack (ARG)
         ___ftdiv (ARG)
           ___ftadd (ARG)
             ___ftmul (ARG)
               ___ftpack
               ___ftpack (ARG)
             ___ftpack (ARG)
             ___ftpack (ARG)
           ___ftmul (ARG)
             ___ftpack
             ___ftpack (ARG)
           ___ftpack (ARG)
           ___lwtoft (ARG)
             ___ftpack
         ___ftmul (ARG)
           ___ftpack
           ___ftpack (ARG)
         ___ftpack (ARG)
     ___ftadd
       ___ftmul (ARG)
         ___ftpack
         ___ftpack (ARG)
       ___ftpack (ARG)
       ___ftpack (ARG)
     ___ftdiv
       ___ftadd (ARG)
         ___ftmul (ARG)
           ___ftpack
           ___ftpack (ARG)
         ___ftpack (ARG)
         ___ftpack (ARG)
       ___ftmul (ARG)
         ___ftpack
         ___ftpack (ARG)
       ___ftpack (ARG)
       ___lwtoft (ARG)
         ___ftpack
     ___ftmul
       ___ftpack
       ___ftpack (ARG)
     ___fttol
       ___ftadd (ARG)
         ___ftmul (ARG)
           ___ftpack
           ___ftpack (ARG)
         ___ftpack (ARG)
         ___ftpack (ARG)
       ___ftdiv (ARG)
         ___ftadd (ARG)
           ___ftmul (ARG)
             ___ftpack
             ___ftpack (ARG)
           ___ftpack (ARG)
           ___ftpack (ARG)
         ___ftmul (ARG)
           ___ftpack
           ___ftpack (ARG)
         ___ftpack (ARG)
         ___lwtoft (ARG)
           ___ftpack
       ___ftmul (ARG)
         ___ftpack
         ___ftpack (ARG)
       ___ftpack (ARG)
     ___lwtoft
       ___ftpack

 _interrupcion (ROOT)

 Address spaces:
Name               Size   Autos  Total    Cost      Usage
BIGRAM             FF0      0       0       0        0.0%
EEDATA             100      0       0       0        0.0%
NULL                 0      0       0       0        0.0%
CODE                 0      0       0       0        0.0%
BITCOMMON            E      0       0       1        0.0%
BITSFR0              0      0       0       1        0.0%
SFR0                 0      0       0       1        0.0%
COMMON               E      D       D       2       92.9%
BITSFR1              0      0       0       2        0.0%
SFR1                 0      0       0       2        0.0%
BITSFR2              0      0       0       3        0.0%
SFR2                 0      0       0       3        0.0%
STACK                0      0       0       3        0.0%
BITBANK0            50      0       0       4        0.0%
BITSFR3              0      0       0       4        0.0%
SFR3                 0      0       0       4        0.0%
BANK0               50     4E      50       5      100.0%
BITSFR4              0      0       0       5        0.0%
SFR4                 0      0       0       5        0.0%
BITBANK1            50      0       0       6        0.0%
BITSFR5              0      0       0       6        0.0%
SFR5                 0      0       0       6        0.0%
BANK1               50      0      21       7       41.3%
BITSFR6              0      0       0       7        0.0%
SFR6                 0      0       0       7        0.0%
BITBANK2            50      0       0       8        0.0%
BITSFR7              0      0       0       8        0.0%
SFR7                 0      0       0       8        0.0%
BANK2               50      0       0       9        0.0%
BITSFR8              0      0       0       9        0.0%
SFR8                 0      0       0       9        0.0%
BITBANK3            50      0       0      10        0.0%
BITSFR9              0      0       0      10        0.0%
SFR9                 0      0       0      10        0.0%
BANK3               50      0       0      11        0.0%
BITSFR10             0      0       0      11        0.0%
SFR10                0      0       0      11        0.0%
BITBANK4            50      0       0      12        0.0%
BITSFR11             0      0       0      12        0.0%
SFR11                0      0       0      12        0.0%
BANK4               50      0       0      13        0.0%
BITSFR12             0      0       0      13        0.0%
SFR12                0      0       0      13        0.0%
BITBANK5            50      0       0      14        0.0%
BITSFR13             0      0       0      14        0.0%
SFR13                0      0       0      14        0.0%
BANK5               50      0       0      15        0.0%
BITSFR14             0      0       0      15        0.0%
SFR14                0      0       0      15        0.0%
BITBANK6            50      0       0      16        0.0%
BITSFR15             0      0       0      16        0.0%
SFR15                0      0       0      16        0.0%
BANK6               50      0       0      17        0.0%
BITSFR16             0      0       0      17        0.0%
SFR16                0      0       0      17        0.0%
BITBANK7            50      0       0      18        0.0%
BITSFR17             0      0       0      18        0.0%
SFR17                0      0       0      18        0.0%
BANK7               50      0       0      19        0.0%
BITSFR18             0      0       0      19        0.0%
SFR18                0      0       0      19        0.0%
BITBANK8            50      0       0      20        0.0%
BITSFR19             0      0       0      20        0.0%
SFR19                0      0       0      20        0.0%
BANK8               50      0       0      21        0.0%
BITSFR20             0      0       0      21        0.0%
SFR20                0      0       0      21        0.0%
BITBANK9            50      0       0      22        0.0%
BITSFR21             0      0       0      22        0.0%
SFR21                0      0       0      22        0.0%
BANK9               50      0       0      23        0.0%
BITSFR22             0      0       0      23        0.0%
SFR22                0      0       0      23        0.0%
BITBANK10           50      0       0      24        0.0%
BITSFR23             0      0       0      24        0.0%
SFR23                0      0       0      24        0.0%
BANK10              50      0       0      25        0.0%
BITSFR24             0      0       0      25        0.0%
SFR24                0      0       0      25        0.0%
BITBANK11           50      0       0      26        0.0%
BITSFR25             0      0       0      26        0.0%
SFR25                0      0       0      26        0.0%
BANK11              50      0       0      27        0.0%
BITSFR26             0      0       0      27        0.0%
SFR26                0      0       0      27        0.0%
BITSFR27             0      0       0      28        0.0%
SFR27                0      0       0      28        0.0%
ABS                  0      0      7E      28        0.0%
BITBANK12           50      0       0      29        0.0%
BITSFR28             0      0       0      29        0.0%
SFR28                0      0       0      29        0.0%
BANK12              50      0       0      30        0.0%
BITSFR29             0      0       0      30        0.0%
SFR29                0      0       0      30        0.0%
BITBANK13           50      0       0      31        0.0%
BITSFR30             0      0       0      31        0.0%
SFR30                0      0       0      31        0.0%
BANK13              50      0       0      32        0.0%
BITSFR31             0      0       0      32        0.0%
SFR31                0      0       0      32        0.0%
BITBANK14           50      0       0      33        0.0%
BITSFR32             0      0       0      33        0.0%
SFR32                0      0       0      33        0.0%
BANK14              50      0       0      34        0.0%
BITSFR33             0      0       0      34        0.0%
SFR33                0      0       0      34        0.0%
BITBANK15           50      0       0      35        0.0%
BITSFR34             0      0       0      35        0.0%
SFR34                0      0       0      35        0.0%
BANK15              50      0       0      36        0.0%
BITSFR35             0      0       0      36        0.0%
SFR35                0      0       0      36        0.0%
BITBANK16           50      0       0      37        0.0%
BITSFR36             0      0       0      37        0.0%
SFR36                0      0       0      37        0.0%
BANK16              50      0       0      38        0.0%
BITSFR37             0      0       0      38        0.0%
SFR37                0      0       0      38        0.0%
BITBANK17           50      0       0      39        0.0%
BITSFR38             0      0       0      39        0.0%
SFR38                0      0       0      39        0.0%
BANK17              50      0       0      40        0.0%
BITSFR39             0      0       0      40        0.0%
SFR39                0      0       0      40        0.0%
BITBANK18           50      0       0      41        0.0%
BITSFR40             0      0       0      41        0.0%
SFR40                0      0       0      41        0.0%
BANK18              50      0       0      42        0.0%
BITSFR41             0      0       0      42        0.0%
SFR41                0      0       0      42        0.0%
BITBANK19           50      0       0      43        0.0%
BITSFR42             0      0       0      43        0.0%
SFR42                0      0       0      43        0.0%
BANK19              50      0       0      44        0.0%
BITSFR43             0      0       0      44        0.0%
SFR43                0      0       0      44        0.0%
BITBANK20           50      0       0      45        0.0%
BITSFR44             0      0       0      45        0.0%
SFR44                0      0       0      45        0.0%
BANK20              50      0       0      46        0.0%
BITSFR45             0      0       0      46        0.0%
SFR45                0      0       0      46        0.0%
BITBANK21           50      0       0      47        0.0%
BITSFR46             0      0       0      47        0.0%
SFR46                0      0       0      47        0.0%
BANK21              50      0       0      48        0.0%
BITSFR47             0      0       0      48        0.0%
SFR47                0      0       0      48        0.0%
BITBANK22           50      0       0      49        0.0%
BITSFR48             0      0       0      49        0.0%
SFR48                0      0       0      49        0.0%
BANK22              50      0       0      50        0.0%
BITSFR49             0      0       0      50        0.0%
SFR49                0      0       0      50        0.0%
BITBANK23           50      0       0      51        0.0%
BITSFR50             0      0       0      51        0.0%
SFR50                0      0       0      51        0.0%
BANK23              50      0       0      52        0.0%
BITSFR51             0      0       0      52        0.0%
SFR51                0      0       0      52        0.0%
BITBANK24           50      0       0      53        0.0%
BITSFR52             0      0       0      53        0.0%
SFR52                0      0       0      53        0.0%
BANK24              50      0       0      54        0.0%
BITSFR53             0      0       0      54        0.0%
SFR53                0      0       0      54        0.0%
BITBANK25           50      0       0      55        0.0%
BITSFR54             0      0       0      55        0.0%
SFR54                0      0       0      55        0.0%
BANK25              50      0       0      56        0.0%
BITSFR55             0      0       0      56        0.0%
SFR55                0      0       0      56        0.0%
BITBANK26           50      0       0      57        0.0%
BITSFR56             0      0       0      57        0.0%
SFR56                0      0       0      57        0.0%
BANK26              50      0       0      58        0.0%
BITSFR57             0      0       0      58        0.0%
SFR57                0      0       0      58        0.0%
BITSFR58             0      0       0      59        0.0%
SFR58                0      0       0      59        0.0%
DATA                 0      0      7E      59        0.0%
BITBANK27           50      0       0      60        0.0%
BITSFR59             0      0       0      60        0.0%
SFR59                0      0       0      60        0.0%
BANK27              50      0       0      61        0.0%
BITSFR60             0      0       0      61        0.0%
SFR60                0      0       0      61        0.0%
BITBANK28           50      0       0      62        0.0%
BITSFR61             0      0       0      62        0.0%
SFR61                0      0       0      62        0.0%
BANK28              50      0       0      63        0.0%
BITSFR62             0      0       0      63        0.0%
SFR62                0      0       0      63        0.0%
BITBANK29           50      0       0      64        0.0%
BITSFR63             0      0       0      64        0.0%
SFR63                0      0       0      64        0.0%
BANK29              50      0       0      65        0.0%
BITBANK30           50      0       0      66        0.0%
BANK30              50      0       0      67        0.0%
BITBANK31           50      0       0      68        0.0%
BANK31              50      0       0      69        0.0%
BITBANK32           50      0       0      70        0.0%
BANK32              50      0       0      71        0.0%
BITBANK33           50      0       0      72        0.0%
BANK33              50      0       0      73        0.0%
BITBANK34           50      0       0      74        0.0%
BANK34              50      0       0      75        0.0%
BITBANK35           50      0       0      76        0.0%
BANK35              50      0       0      77        0.0%
BITBANK36           50      0       0      78        0.0%
BANK36              50      0       0      79        0.0%
BITBANK37           50      0       0      80        0.0%
BANK37              50      0       0      81        0.0%
BITBANK38           50      0       0      82        0.0%
BANK38              50      0       0      83        0.0%
BITBANK39           50      0       0      84        0.0%
BANK39              50      0       0      85        0.0%
BITBANK40           50      0       0      86        0.0%
BANK40              50      0       0      87        0.0%
BITBANK41           50      0       0      88        0.0%
BANK41              50      0       0      89        0.0%
BITBANK42           50      0       0      90        0.0%
BANK42              50      0       0      91        0.0%
BITBANK43           50      0       0      92        0.0%
BANK43              50      0       0      93        0.0%
BITBANK44           50      0       0      94        0.0%
BANK44              50      0       0      95        0.0%
BITBANK45           50      0       0      96        0.0%
BANK45              50      0       0      97        0.0%
BITBANK46           50      0       0      98        0.0%
BANK46              50      0       0      99        0.0%
BITBANK47           50      0       0     100        0.0%
BANK47              50      0       0     101        0.0%
BITBANK48           50      0       0     102        0.0%
BANK48              50      0       0     103        0.0%
BITBANK49           50      0       0     104        0.0%
BANK49              50      0       0     105        0.0%
BITBANK50           50      0       0     106        0.0%
BANK50              50      0       0     107        0.0%


Microchip Technology PIC Macro Assembler V1.45 build -152302408 
Symbol Table                                                                                   Tue Oct 30 09:55:45 2018

            __CFG_CP$OFF 0000                       l90 0DB4                       l93 0E38  
                     l87 0DB0                       l96 0E3C                       l99 0EC0  
                     _kd 00B7                       _ki 00B4                       _kp 00BA  
           ___ftadd@exp1 0038             ___ftadd@exp2 0037              __CFG_LVP$ON 0000  
           ___ftadd@sign 0036                      l102 0EC4                      l112 0436  
                    l403 0753                      l380 0B32                      l372 0B17  
                    l463 0C2E                      l379 0B2A                      _PR2 028D  
           __CFG_CPD$OFF 0000                      u815 0AF9                      u835 0B12  
                    u855 0B1F                      u895 0B39             __CFG_BORV$LO 0000  
                    wreg 0009             __CFG_ZCD$OFF 0000             ___ftdiv@cntr 0043  
           ___ftdiv@sign 0048                     l1011 0B03                     l1003 0AED  
                   l1007 0AF4                     l1017 0B1C                     l1009 0AFE  
                   l1019 0B24                     l1109 0792                     l1053 06E3  
                   l1125 0C75                     l1039 07B5                     l1071 070C  
                   l1303 019E                     l1119 0C5F                     l1081 072E  
                   l1049 06DC                     l1161 0D08                     l1091 074F  
                   l1083 0732                     l1059 06F2                     l1251 0C3F  
                   l1219 0BDA                     l1147 0CCF                     l1139 0CB6  
                   l1403 0BB2                     l1077 071F                     l1245 0C25  
                   l1237 0C0A                     l1317 058E                     l1309 0300  
                   l1095 0765                     l1079 0729                     l1191 0D75  
                   l1183 0D61                     l1167 0D1E                     l1247 0C31  
                   l1239 0C18                     l1089 0745                     l1099 0777  
                   l1195 0D7D                     l1179 0D59                     u1015 070D  
                   u1105 0746                     u1045 0720                     u1205 0CC6  
                   u1215 0CD0                     u1075 0733                     u1325 0D7E  
                   u1405 0C0B                     u1335 0D84                     u1255 0D2A  
                   u1175 0C87                     u1265 0D3A                     u1185 0C97  
                   u1435 0C26                     u1195 0CB7                     u1285 0D62  
                   u1525 003A                     u1295 0D68                     u1375 0BE1  
                   u1535 0046                     u1607 0EBB                     u1545 01A8  
                   u1555 030A                     u1577 0BAC                     u1587 0DAB  
                   u1597 0E33                     _TMR1 020C             __CFG_WRT$OFF 0000  
          __CFG_FCMEN$ON 0000                     _main 0B49             ___ftpack@arg 0071  
           ___ftpack@exp 0074                     fsr0h 0005                     fsr1h 0007  
                   indf0 0000                     fsr0l 0004                     fsr1l 0006  
                   btemp 007E            __CFG_BOREN$ON 0000                     start 0010  
          __CFG_CSWEN$ON 0000            __CFG_MCLRE$ON 0000             ___ftmul@cntr 002A  
           ___ftmul@sign 002B             ___fttol@exp1 0056             ___fttol@lval 0052  
                  ?_main 0068          __end_of___ftadd 07AA                    _CCPR1 030C  
                  _CCPR2 0310            __CFG_WDTE$OFF 0000          __end_of___ftdiv 0CF1  
        __end_of___ftneg 07F5          __end_of___ftmul 0DA5          __end_of___fttol 0C48  
                  _PORTA 000C                    _PORTB 000D                    _TRISB 0012  
          __CFG_PWRTE$ON 0000            ___awtoft@sign 005C                    _error 006E  
        __end_of_formula 06B4            ___ftpack@sign 0075                    status 0003  
                  wtemp0 007E          __initialization 0012             __end_of_main 0BC1  
                 ??_main 006C            ___fttol@sign1 0051         __end_of___awtoft 07CC  
                 _ANSELA 1F38                   _ANSELB 1F43         __end_of___ftpack 0B49  
                 _RB0PPS 1F18                   _RB1PPS 1F19                   _RB2PPS 1F1A  
                 _RB3PPS 1F1B           __CFG_WDTCCS$SC 0000         __end_of___lwtoft 07DF  
           _CCPTMRS0bits 021E         __end_of_geterror 1000                ??___ftadd 0032  
         __CFG_STVREN$ON 0000                ??___ftdiv 003F                ??___ftneg 007D  
              ??___ftmul 0079                ??___fttol 004D    ___ftmul@f3_as_product 0027  
              ??_formula 0060  __end_of__initialization 0027               ___ftadd@f1 002C  
             ___ftadd@f2 002F               ___ftdiv@f1 003C               ___ftdiv@f2 0039  
             ___ftdiv@f3 0044               ___ftneg@f1 005D               ___awtoft@c 0057  
             ___ftmul@f1 0020               ___ftmul@f2 0023               ___fttol@f1 0049  
         __pcstackCOMMON 0070            ?_interrupcion 0070             __pidataBANK1 07DF  
             ___lwtoft@c 0079               __pbssBANK0 006E               __pbssBANK1 00A0  
         ??_interrupcion 0070               __pmaintext 0B49          __CFG_PPS1WAY$ON 0000  
             __pintentry 0004                ?___awtoft 0057                ?___ftpack 0071  
    __CFG_RSTOSC$HFINT32 0000                ?___lwtoft 0079               _distancia1 00A8  
             _distancia2 00A3               _distancia3 00A0                ?_geterror 0070  
   __CFG_SCANE$available 0000                  ___ftadd 06B4                  ___ftdiv 0C48  
                ___ftneg 07EC                  ___ftmul 0CF1                  ___fttol 0BC1  
             ??___awtoft 005A               ??___ftpack 0076                  __ptext1 0DA5  
                __ptext2 07CC                  __ptext3 0C48                  __ptext4 002B  
                __ptext5 0BC1                  __ptext6 07EC                  __ptext7 0CF1  
                __ptext8 06B4                  __ptext9 07AA               ??___lwtoft 007C  
              _T1CLKbits 0211                _T1CONbits 020E                _T2CONbits 028E  
                _formula 002B                  _tiempo1 00B1                  _tiempo2 00AE  
                _tiempo3 00AB                  clrloop0 0AE0     end_of_initialization 0027  
             ??_geterror 005D                  init_ram 07F5                  initloop 07F6  
  __CFG_WDTCPS$WDTCPS_31 0000                _PORTAbits 000C                _TRISAbits 0011  
              _TRISBbits 0012     __end_of_interrupcion 0010         __CFG_FEXTOSC$OFF 0000  
            _CCP1CONbits 030E              ___ftdiv@exp 0047              _CCP2CONbits 0312  
            ___ftmul@exp 0026      start_initialization 0012         __CFG_LPBOREN$OFF 0000  
            _calibracion 00BF              __pdataBANK1 00B4        __size_of___awtoft 0022  
      __size_of___ftpack 0064             _formula$1014 0065             _formula$1015 0062  
              ___latbits 0004        __size_of___lwtoft 0013            __pcstackBANK0 0020  
      __size_of_geterror 025B                 ?___ftadd 002C                 ?___ftdiv 0039  
               ?___ftneg 005D                 ?___ftmul 0020                 ?___fttol 0049  
  __size_of_interrupcion 000C                 ?_formula 0070                 _T2CLKCON 0290  
               _LATAbits 0016                clear_ram0 0ADF                 _PIE4bits 071A  
               _PIR4bits 0710             _interrupcion 0004                _velocidad 00BD  
       __size_of___ftadd 00F6         __size_of___ftdiv 00A9         __size_of___ftneg 0009  
       __size_of___ftmul 00B4         __size_of___fttol 0087                 ___awtoft 07AA  
               ___ftpack 0AE5                 ___lwtoft 07CC         __size_of_formula 0689  
               __ptext10 0AE5                 _geterror 0DA5            __size_of_main 0078  
               _errorant 00A6     __CFG_WDTCWS$WDTCWS_7 0000                 int$flags 007E  
               main@argc 0068                 main@argv 006A               _INTCONbits 000B  
               intlevel1 0000        __CFG_CLKOUTEN$OFF 0000               _OSCFRQbits 0893  
          _geterror$1012 005F            _geterror$1013 0062  
