

Microchip Technology PIC LITE Macro Assembler V1.45 build -152302408 
                                                                                               Tue Oct 30 08:04:43 2018

Microchip Technology Omniscient Code Generator v1.45 (Free mode) build 201711160504
     1                           	processor	16F18877
     2                           	opt	pw 120
     3                           	opt	lm
     4                           	psect	idataBANK1,global,class=CODE,delta=2
     5                           	psect	cinit,global,class=CODE,merge=1,delta=2
     6                           	psect	bssBANK0,global,class=BANK0,space=1,delta=1
     7                           	psect	bssBANK1,global,class=BANK1,space=1,delta=1
     8                           	psect	dataBANK1,global,class=BANK1,space=1,delta=1
     9                           	psect	inittext,global,class=CODE,delta=2
    10                           	psect	clrtext,global,class=CODE,delta=2
    11                           	psect	cstackCOMMON,global,class=COMMON,space=1,delta=1
    12                           	psect	cstackBANK0,global,class=BANK0,space=1,delta=1
    13                           	psect	maintext,global,class=CODE,merge=1,split=1,delta=2
    14                           	psect	text1,local,class=CODE,merge=1,delta=2
    15                           	psect	text2,local,class=CODE,merge=1,delta=2,group=2
    16                           	psect	text3,local,class=CODE,merge=1,delta=2,group=2
    17                           	psect	text4,local,class=CODE,merge=1,delta=2,group=2
    18                           	psect	text5,local,class=CODE,merge=1,delta=2,group=2
    19                           	psect	text6,local,class=CODE,merge=1,delta=2,group=2
    20                           	psect	text7,local,class=CODE,merge=1,delta=2,group=2
    21                           	psect	text8,local,class=CODE,merge=1,delta=2,group=2
    22                           	psect	text9,local,class=CODE,merge=1,delta=2
    23                           	psect	intentry,global,class=CODE,delta=2
    24                           	dabs	1,0x7E,2
    25  0000                     
    26                           ; Version 1.45
    27                           ; Generated 16/11/2017 GMT
    28                           ; 
    29                           ; Copyright © 2017, Microchip Technology Inc. and its subsidiaries ("Microchip")
    30                           ; All rights reserved.
    31                           ; 
    32                           ; This software is developed by Microchip Technology Inc. and its subsidiaries ("Microch
      +                          ip").
    33                           ; 
    34                           ; Redistribution and use in source and binary forms, with or without modification, are
    35                           ; permitted provided that the following conditions are met:
    36                           ; 
    37                           ;     1. Redistributions of source code must retain the above copyright notice, this lis
      +                          t of
    38                           ;        conditions and the following disclaimer.
    39                           ; 
    40                           ;     2. Redistributions in binary form must reproduce the above copyright notice, this 
      +                          list
    41                           ;        of conditions and the following disclaimer in the documentation and/or other
    42                           ;        materials provided with the distribution.
    43                           ; 
    44                           ;     3. Microchip's name may not be used to endorse or promote products derived from th
      +                          is
    45                           ;        software without specific prior written permission.
    46                           ; 
    47                           ; THIS SOFTWARE IS PROVIDED BY MICROCHIP "AS IS" AND ANY EXPRESS OR IMPLIED WARRANTIES,
    48                           ; INCLUDING, BUT NOT LIMITED TO, THE IMPLIED WARRANTIES OF MERCHANTABILITY AND FITNESS F
      +                          OR
    49                           ; PURPOSE ARE DISCLAIMED.  IN NO EVENT SHALL MICROCHIP BE LIABLE FOR ANY DIRECT, INDIREC
      +                          T,
    50                           ; INCIDENTAL, SPECIAL, EXEMPLARY, OR CONSEQUENTIAL DAMAGES (INCLUDING BUT NOT LIMITED TO
    51                           ; PROCUREMENT OF SUBSTITUTE GOODS OR SERVICES; LOSS OF USE, DATA OR PROFITS; OR BUSINESS
    52                           ; INTERRUPTION) HOWSOEVER CAUSED AND ON ANY THEORY OF LIABILITY, WHETHER IN CONTRACT, ST
      +                          RICT
    53                           ; LIABILITY, OR TORT (INCLUDING NEGLIGENCE OR OTHERWISE) ARISING IN ANY WAY OUT OF THE U
      +                          SE OF
    54                           ; THIS SOFTWARE, EVEN IF ADVISED OF THE POSSIBILITY OF SUCH DAMAGE.
    55                           ; 
    56                           ; 
    57                           ; Code-generator required, PIC16F18877 Definitions
    58                           ; 
    59                           ; SFR Addresses
    60  0000                     	;# 
    61  0001                     	;# 
    62  0002                     	;# 
    63  0003                     	;# 
    64  0004                     	;# 
    65  0005                     	;# 
    66  0006                     	;# 
    67  0007                     	;# 
    68  0008                     	;# 
    69  0009                     	;# 
    70  000A                     	;# 
    71  000B                     	;# 
    72  000C                     	;# 
    73  000D                     	;# 
    74  000E                     	;# 
    75  000F                     	;# 
    76  0010                     	;# 
    77  0011                     	;# 
    78  0012                     	;# 
    79  0013                     	;# 
    80  0014                     	;# 
    81  0015                     	;# 
    82  0016                     	;# 
    83  0017                     	;# 
    84  0018                     	;# 
    85  0019                     	;# 
    86  001A                     	;# 
    87  001C                     	;# 
    88  001C                     	;# 
    89  001D                     	;# 
    90  001D                     	;# 
    91  001E                     	;# 
    92  001F                     	;# 
    93  008C                     	;# 
    94  008C                     	;# 
    95  008D                     	;# 
    96  008E                     	;# 
    97  008E                     	;# 
    98  008F                     	;# 
    99  0090                     	;# 
   100  0090                     	;# 
   101  0091                     	;# 
   102  0093                     	;# 
   103  0094                     	;# 
   104  0095                     	;# 
   105  0096                     	;# 
   106  0097                     	;# 
   107  0098                     	;# 
   108  0099                     	;# 
   109  009A                     	;# 
   110  009B                     	;# 
   111  009C                     	;# 
   112  009D                     	;# 
   113  009E                     	;# 
   114  010C                     	;# 
   115  010D                     	;# 
   116  010E                     	;# 
   117  010E                     	;# 
   118  010F                     	;# 
   119  0110                     	;# 
   120  0110                     	;# 
   121  0111                     	;# 
   122  0112                     	;# 
   123  0112                     	;# 
   124  0113                     	;# 
   125  0114                     	;# 
   126  0114                     	;# 
   127  0115                     	;# 
   128  0116                     	;# 
   129  0116                     	;# 
   130  0117                     	;# 
   131  0119                     	;# 
   132  0119                     	;# 
   133  0119                     	;# 
   134  011A                     	;# 
   135  011A                     	;# 
   136  011A                     	;# 
   137  011B                     	;# 
   138  011B                     	;# 
   139  011B                     	;# 
   140  011B                     	;# 
   141  011B                     	;# 
   142  011C                     	;# 
   143  011C                     	;# 
   144  011C                     	;# 
   145  011D                     	;# 
   146  011D                     	;# 
   147  011D                     	;# 
   148  011E                     	;# 
   149  011E                     	;# 
   150  011E                     	;# 
   151  011F                     	;# 
   152  011F                     	;# 
   153  011F                     	;# 
   154  011F                     	;# 
   155  011F                     	;# 
   156  018C                     	;# 
   157  018D                     	;# 
   158  018E                     	;# 
   159  018F                     	;# 
   160  0190                     	;# 
   161  0191                     	;# 
   162  0192                     	;# 
   163  0196                     	;# 
   164  0197                     	;# 
   165  0198                     	;# 
   166  0199                     	;# 
   167  019A                     	;# 
   168  019B                     	;# 
   169  019C                     	;# 
   170  020C                     	;# 
   171  020C                     	;# 
   172  020D                     	;# 
   173  020E                     	;# 
   174  020F                     	;# 
   175  020F                     	;# 
   176  0210                     	;# 
   177  0210                     	;# 
   178  0211                     	;# 
   179  0211                     	;# 
   180  0212                     	;# 
   181  0212                     	;# 
   182  0213                     	;# 
   183  0214                     	;# 
   184  0215                     	;# 
   185  0215                     	;# 
   186  0216                     	;# 
   187  0216                     	;# 
   188  0217                     	;# 
   189  0217                     	;# 
   190  0218                     	;# 
   191  0218                     	;# 
   192  0219                     	;# 
   193  021A                     	;# 
   194  021B                     	;# 
   195  021B                     	;# 
   196  021C                     	;# 
   197  021C                     	;# 
   198  021D                     	;# 
   199  021D                     	;# 
   200  021E                     	;# 
   201  021F                     	;# 
   202  028C                     	;# 
   203  028C                     	;# 
   204  028D                     	;# 
   205  028D                     	;# 
   206  028E                     	;# 
   207  028F                     	;# 
   208  0290                     	;# 
   209  0290                     	;# 
   210  0291                     	;# 
   211  0292                     	;# 
   212  0292                     	;# 
   213  0293                     	;# 
   214  0293                     	;# 
   215  0294                     	;# 
   216  0295                     	;# 
   217  0296                     	;# 
   218  0296                     	;# 
   219  0297                     	;# 
   220  0298                     	;# 
   221  0298                     	;# 
   222  0299                     	;# 
   223  0299                     	;# 
   224  029A                     	;# 
   225  029B                     	;# 
   226  029C                     	;# 
   227  029C                     	;# 
   228  029D                     	;# 
   229  030C                     	;# 
   230  030C                     	;# 
   231  030D                     	;# 
   232  030E                     	;# 
   233  030F                     	;# 
   234  0310                     	;# 
   235  0310                     	;# 
   236  0311                     	;# 
   237  0312                     	;# 
   238  0313                     	;# 
   239  0314                     	;# 
   240  0314                     	;# 
   241  0315                     	;# 
   242  0316                     	;# 
   243  0317                     	;# 
   244  0318                     	;# 
   245  0318                     	;# 
   246  0319                     	;# 
   247  031A                     	;# 
   248  031B                     	;# 
   249  031C                     	;# 
   250  031C                     	;# 
   251  031D                     	;# 
   252  031E                     	;# 
   253  031F                     	;# 
   254  038C                     	;# 
   255  038D                     	;# 
   256  038E                     	;# 
   257  0390                     	;# 
   258  0391                     	;# 
   259  0392                     	;# 
   260  040C                     	;# 
   261  040D                     	;# 
   262  040E                     	;# 
   263  040F                     	;# 
   264  0410                     	;# 
   265  0411                     	;# 
   266  0416                     	;# 
   267  0416                     	;# 
   268  0417                     	;# 
   269  0418                     	;# 
   270  0418                     	;# 
   271  0419                     	;# 
   272  041A                     	;# 
   273  041A                     	;# 
   274  041B                     	;# 
   275  041C                     	;# 
   276  041C                     	;# 
   277  041D                     	;# 
   278  041E                     	;# 
   279  041F                     	;# 
   280  048C                     	;# 
   281  048C                     	;# 
   282  048D                     	;# 
   283  048E                     	;# 
   284  048F                     	;# 
   285  048F                     	;# 
   286  0490                     	;# 
   287  0491                     	;# 
   288  0492                     	;# 
   289  0492                     	;# 
   290  0493                     	;# 
   291  0494                     	;# 
   292  0495                     	;# 
   293  0495                     	;# 
   294  0496                     	;# 
   295  0497                     	;# 
   296  0498                     	;# 
   297  0499                     	;# 
   298  049A                     	;# 
   299  049B                     	;# 
   300  049C                     	;# 
   301  049D                     	;# 
   302  050C                     	;# 
   303  050C                     	;# 
   304  050D                     	;# 
   305  050E                     	;# 
   306  050F                     	;# 
   307  050F                     	;# 
   308  0510                     	;# 
   309  0511                     	;# 
   310  0512                     	;# 
   311  0512                     	;# 
   312  0513                     	;# 
   313  0514                     	;# 
   314  0515                     	;# 
   315  0515                     	;# 
   316  0516                     	;# 
   317  0517                     	;# 
   318  0518                     	;# 
   319  0519                     	;# 
   320  051A                     	;# 
   321  051B                     	;# 
   322  051C                     	;# 
   323  051D                     	;# 
   324  058C                     	;# 
   325  058C                     	;# 
   326  058D                     	;# 
   327  058E                     	;# 
   328  058F                     	;# 
   329  058F                     	;# 
   330  0590                     	;# 
   331  0591                     	;# 
   332  0592                     	;# 
   333  0593                     	;# 
   334  060C                     	;# 
   335  060D                     	;# 
   336  060E                     	;# 
   337  060F                     	;# 
   338  0610                     	;# 
   339  0611                     	;# 
   340  0612                     	;# 
   341  0613                     	;# 
   342  0614                     	;# 
   343  0616                     	;# 
   344  0617                     	;# 
   345  0618                     	;# 
   346  0619                     	;# 
   347  061A                     	;# 
   348  061B                     	;# 
   349  061C                     	;# 
   350  061D                     	;# 
   351  061E                     	;# 
   352  068C                     	;# 
   353  068D                     	;# 
   354  068E                     	;# 
   355  068F                     	;# 
   356  0690                     	;# 
   357  0691                     	;# 
   358  0692                     	;# 
   359  0693                     	;# 
   360  0694                     	;# 
   361  070C                     	;# 
   362  070D                     	;# 
   363  070E                     	;# 
   364  070F                     	;# 
   365  0710                     	;# 
   366  0711                     	;# 
   367  0712                     	;# 
   368  0713                     	;# 
   369  0714                     	;# 
   370  0716                     	;# 
   371  0717                     	;# 
   372  0718                     	;# 
   373  0719                     	;# 
   374  071A                     	;# 
   375  071B                     	;# 
   376  071C                     	;# 
   377  071D                     	;# 
   378  071E                     	;# 
   379  0796                     	;# 
   380  0797                     	;# 
   381  0798                     	;# 
   382  0799                     	;# 
   383  079A                     	;# 
   384  079B                     	;# 
   385  080C                     	;# 
   386  080D                     	;# 
   387  080E                     	;# 
   388  080F                     	;# 
   389  0810                     	;# 
   390  0811                     	;# 
   391  0812                     	;# 
   392  0813                     	;# 
   393  0814                     	;# 
   394  081A                     	;# 
   395  081B                     	;# 
   396  081C                     	;# 
   397  081D                     	;# 
   398  081E                     	;# 
   399  081F                     	;# 
   400  088C                     	;# 
   401  088D                     	;# 
   402  088E                     	;# 
   403  088F                     	;# 
   404  0890                     	;# 
   405  0891                     	;# 
   406  0892                     	;# 
   407  0893                     	;# 
   408  0895                     	;# 
   409  0896                     	;# 
   410  0897                     	;# 
   411  0898                     	;# 
   412  0899                     	;# 
   413  089A                     	;# 
   414  089B                     	;# 
   415  090C                     	;# 
   416  090E                     	;# 
   417  090F                     	;# 
   418  091F                     	;# 
   419  098F                     	;# 
   420  098F                     	;# 
   421  0990                     	;# 
   422  0991                     	;# 
   423  0992                     	;# 
   424  0993                     	;# 
   425  0994                     	;# 
   426  0995                     	;# 
   427  0996                     	;# 
   428  0997                     	;# 
   429  1E0F                     	;# 
   430  1E10                     	;# 
   431  1E11                     	;# 
   432  1E12                     	;# 
   433  1E13                     	;# 
   434  1E14                     	;# 
   435  1E15                     	;# 
   436  1E16                     	;# 
   437  1E17                     	;# 
   438  1E18                     	;# 
   439  1E19                     	;# 
   440  1E1A                     	;# 
   441  1E1B                     	;# 
   442  1E1C                     	;# 
   443  1E1D                     	;# 
   444  1E1E                     	;# 
   445  1E1F                     	;# 
   446  1E20                     	;# 
   447  1E21                     	;# 
   448  1E22                     	;# 
   449  1E23                     	;# 
   450  1E24                     	;# 
   451  1E25                     	;# 
   452  1E26                     	;# 
   453  1E27                     	;# 
   454  1E28                     	;# 
   455  1E29                     	;# 
   456  1E2A                     	;# 
   457  1E2B                     	;# 
   458  1E2C                     	;# 
   459  1E2D                     	;# 
   460  1E2E                     	;# 
   461  1E2F                     	;# 
   462  1E30                     	;# 
   463  1E31                     	;# 
   464  1E32                     	;# 
   465  1E33                     	;# 
   466  1E34                     	;# 
   467  1E35                     	;# 
   468  1E36                     	;# 
   469  1E37                     	;# 
   470  1E8F                     	;# 
   471  1E90                     	;# 
   472  1E91                     	;# 
   473  1E92                     	;# 
   474  1E93                     	;# 
   475  1E94                     	;# 
   476  1E95                     	;# 
   477  1E96                     	;# 
   478  1E97                     	;# 
   479  1E9C                     	;# 
   480  1E9D                     	;# 
   481  1E9E                     	;# 
   482  1EA1                     	;# 
   483  1EA2                     	;# 
   484  1EA3                     	;# 
   485  1EA4                     	;# 
   486  1EA5                     	;# 
   487  1EA9                     	;# 
   488  1EAA                     	;# 
   489  1EAB                     	;# 
   490  1EAC                     	;# 
   491  1EB1                     	;# 
   492  1EB2                     	;# 
   493  1EB3                     	;# 
   494  1EB8                     	;# 
   495  1EB9                     	;# 
   496  1EBA                     	;# 
   497  1EBB                     	;# 
   498  1EBC                     	;# 
   499  1EBD                     	;# 
   500  1EBE                     	;# 
   501  1EC3                     	;# 
   502  1EC5                     	;# 
   503  1EC6                     	;# 
   504  1EC7                     	;# 
   505  1EC8                     	;# 
   506  1EC9                     	;# 
   507  1ECA                     	;# 
   508  1ECB                     	;# 
   509  1ECC                     	;# 
   510  1F10                     	;# 
   511  1F11                     	;# 
   512  1F12                     	;# 
   513  1F13                     	;# 
   514  1F14                     	;# 
   515  1F15                     	;# 
   516  1F16                     	;# 
   517  1F17                     	;# 
   518  1F18                     	;# 
   519  1F19                     	;# 
   520  1F1A                     	;# 
   521  1F1B                     	;# 
   522  1F1C                     	;# 
   523  1F1D                     	;# 
   524  1F1E                     	;# 
   525  1F1F                     	;# 
   526  1F20                     	;# 
   527  1F21                     	;# 
   528  1F22                     	;# 
   529  1F23                     	;# 
   530  1F24                     	;# 
   531  1F25                     	;# 
   532  1F26                     	;# 
   533  1F27                     	;# 
   534  1F28                     	;# 
   535  1F29                     	;# 
   536  1F2A                     	;# 
   537  1F2B                     	;# 
   538  1F2C                     	;# 
   539  1F2D                     	;# 
   540  1F2E                     	;# 
   541  1F2F                     	;# 
   542  1F30                     	;# 
   543  1F31                     	;# 
   544  1F32                     	;# 
   545  1F38                     	;# 
   546  1F39                     	;# 
   547  1F3A                     	;# 
   548  1F3B                     	;# 
   549  1F3C                     	;# 
   550  1F3D                     	;# 
   551  1F3E                     	;# 
   552  1F3F                     	;# 
   553  1F40                     	;# 
   554  1F41                     	;# 
   555  1F43                     	;# 
   556  1F44                     	;# 
   557  1F45                     	;# 
   558  1F46                     	;# 
   559  1F47                     	;# 
   560  1F48                     	;# 
   561  1F49                     	;# 
   562  1F4A                     	;# 
   563  1F4B                     	;# 
   564  1F4C                     	;# 
   565  1F4E                     	;# 
   566  1F4F                     	;# 
   567  1F50                     	;# 
   568  1F51                     	;# 
   569  1F52                     	;# 
   570  1F53                     	;# 
   571  1F54                     	;# 
   572  1F55                     	;# 
   573  1F56                     	;# 
   574  1F57                     	;# 
   575  1F59                     	;# 
   576  1F5A                     	;# 
   577  1F5B                     	;# 
   578  1F5C                     	;# 
   579  1F5D                     	;# 
   580  1F61                     	;# 
   581  1F62                     	;# 
   582  1F64                     	;# 
   583  1F65                     	;# 
   584  1F66                     	;# 
   585  1F67                     	;# 
   586  1F68                     	;# 
   587  1F69                     	;# 
   588  1F6A                     	;# 
   589  1F6B                     	;# 
   590  1F6C                     	;# 
   591  1F6D                     	;# 
   592  1FE4                     	;# 
   593  1FE5                     	;# 
   594  1FE6                     	;# 
   595  1FE7                     	;# 
   596  1FE8                     	;# 
   597  1FE9                     	;# 
   598  1FEA                     	;# 
   599  1FEB                     	;# 
   600  1FED                     	;# 
   601  1FEE                     	;# 
   602  1FEF                     	;# 
   603                           
   604                           	psect	idataBANK1
   605  067D                     __pidataBANK1:	
   606                           
   607                           ;initializer for _ki
   608  067D  3400               	retlw	0
   609  067E  3470               	retlw	112
   610  067F  3442               	retlw	66
   611                           
   612                           ;initializer for _kd
   613                           ;main.c: 29: double tiempo1=0,tiempo2=0,tiempo3=0;
   614                           ;main.c: 30: double distancia1=0,distancia2=0,distancia3=0;
   615                           ;main.c: 31: int calibracion=1;
   616                           ;main.c: 33: int error=0, errorant=0;
   617  0680  34E7               	retlw	231
   618  0681  347B               	retlw	123
   619  0682  343E               	retlw	62
   620                           
   621                           ;initializer for _kp
   622                           ;main.c: 29: double tiempo1=0,tiempo2=0,tiempo3=0;
   623                           ;main.c: 30: double distancia1=0,distancia2=0,distancia3=0;
   624                           ;main.c: 31: int calibracion=1;
   625                           ;main.c: 33: int error=0, errorant=0;
   626  0683  345A               	retlw	90
   627  0684  34E4               	retlw	228
   628  0685  343E               	retlw	62
   629                           
   630                           ;initializer for _velocidad
   631  0686  34BC               	retlw	188
   632  0687  3402               	retlw	2
   633                           
   634                           ;initializer for _calibracion
   635  0688  3401               	retlw	1
   636  0689  3400               	retlw	0
   637  000B                     _INTCONbits	set	11
   638  0012                     _TRISB	set	18
   639  000D                     _PORTB	set	13
   640  0011                     _TRISAbits	set	17
   641  000C                     _PORTA	set	12
   642  0017                     _LATBbits	set	23
   643  000C                     _PORTAbits	set	12
   644  0016                     _LATAbits	set	22
   645  020C                     _TMR1	set	524
   646  0211                     _T1CLKbits	set	529
   647  020E                     _T1CONbits	set	526
   648  071A                     _PIE4bits	set	1818
   649  0710                     _PIR4bits	set	1808
   650  1F43                     _ANSELB	set	8003
   651  1F38                     _ANSELA	set	7992
   652                           
   653                           ; #config settings
   654  0000                     
   655                           	psect	cinit
   656  0012                     start_initialization:	
   657  0012                     __initialization:	
   658                           
   659                           ; Initialize objects allocated to BANK1
   660  0012  307D               	movlw	low __pidataBANK1
   661  0013  0084               	movwf	4
   662  0014  3086               	movlw	(high __pidataBANK1)| (0+128)
   663  0015  0085               	movwf	5
   664  0016  30B1               	movlw	low __pdataBANK1
   665  0017  0086               	movwf	6
   666  0018  3000               	movlw	high __pdataBANK1
   667  0019  0087               	movwf	7
   668  001A  300D               	movlw	13
   669  001B  3186  268A  3180   	fcall	init_ram
   670                           
   671                           ; Clear objects allocated to BANK0
   672  001E  01EB               	clrf	__pbssBANK0& (0+127)
   673  001F  01EC               	clrf	(__pbssBANK0+1)& (0+127)
   674  0020  01ED               	clrf	(__pbssBANK0+2)& (0+127)
   675  0021  01EE               	clrf	(__pbssBANK0+3)& (0+127)
   676  0022  01EF               	clrf	(__pbssBANK0+4)& (0+127)
   677                           
   678                           ; Clear objects allocated to BANK1
   679  0023  30A0               	movlw	low __pbssBANK1
   680  0024  0084               	movwf	4
   681  0025  3000               	movlw	high __pbssBANK1
   682  0026  0085               	movwf	5
   683  0027  3011               	movlw	17
   684  0028  3186  2690         	fcall	clear_ram0
   685  002A                     end_of_initialization:	
   686                           ;End of C runtime variable initialization code
   687                           
   688  002A                     __end_of__initialization:	
   689  002A  107E               	bcf	int$flags,0	;clear compiler interrupt flag (level 1)
   690  002B  0140               	movlb	0
   691  002C  3186  2E08         	ljmp	_main	;jump to C main() function
   692                           
   693                           	psect	bssBANK0
   694  006B                     __pbssBANK0:	
   695  006B                     _distancia2:	
   696  006B                     	ds	3
   697  006E                     _error:	
   698  006E                     	ds	2
   699                           
   700                           	psect	bssBANK1
   701  00A0                     __pbssBANK1:	
   702  00A0                     _distancia3:	
   703  00A0                     	ds	3
   704  00A3                     _errorant:	
   705  00A3                     	ds	2
   706  00A5                     _distancia1:	
   707  00A5                     	ds	3
   708  00A8                     _tiempo3:	
   709  00A8                     	ds	3
   710  00AB                     _tiempo2:	
   711  00AB                     	ds	3
   712  00AE                     _tiempo1:	
   713  00AE                     	ds	3
   714                           
   715                           	psect	dataBANK1
   716  00B1                     __pdataBANK1:	
   717  00B1                     _ki:	
   718  00B1                     	ds	3
   719  00B4                     _kd:	
   720  00B4                     	ds	3
   721  00B7                     _kp:	
   722  00B7                     	ds	3
   723  00BA                     _velocidad:	
   724  00BA                     	ds	2
   725  00BC                     _calibracion:	
   726  00BC                     	ds	2
   727                           
   728                           	psect	inittext
   729  068A                     init_ram:	
   730  068A  00FE               	movwf	126
   731  068B                     initloop:	
   732  068B  0012               	moviw fsr0++
   733  068C  001E               	movwi fsr1++
   734  068D  0BFE               	decfsz	126,f
   735  068E  2E8B               	goto	initloop
   736  068F  3400               	retlw	0
   737                           
   738                           	psect	clrtext
   739  0690                     clear_ram0:	
   740                           ;	Called with FSR0 containing the base address, and
   741                           ;	WREG with the size to clear
   742                           
   743  0690  0064               	clrwdt	;clear the watchdog before getting into this loop
   744  0691                     clrloop0:	
   745  0691  0180               	clrf	0	;clear RAM location pointed to by FSR
   746  0692  3101               	addfsr 0,1
   747  0693  0B89               	decfsz	9,f	;Have we reached the end of clearing yet?
   748  0694  2E91               	goto	clrloop0	;have we reached the end yet?
   749  0695  3400               	retlw	0	;all done for this memory range, return
   750                           
   751                           	psect	cstackCOMMON
   752  0070                     __pcstackCOMMON:	
   753  0070                     ?_geterror:	
   754  0070                     ?_formula:	
   755                           ; 1 bytes @ 0x0
   756                           
   757  0070                     ?_interrupcion:	
   758                           ; 1 bytes @ 0x0
   759                           
   760  0070                     ??_interrupcion:	
   761                           ; 1 bytes @ 0x0
   762                           
   763                           
   764                           ; 1 bytes @ 0x0
   765  0070                     	ds	1
   766  0071                     ??_formula:	
   767  0071                     ?___ftpack:	
   768                           ; 1 bytes @ 0x1
   769                           
   770  0071                     ___ftpack@arg:	
   771                           ; 3 bytes @ 0x1
   772                           
   773                           
   774                           ; 3 bytes @ 0x1
   775  0071                     	ds	3
   776  0074                     ___ftpack@exp:	
   777                           
   778                           ; 1 bytes @ 0x4
   779  0074                     	ds	1
   780  0075                     ___ftpack@sign:	
   781                           
   782                           ; 1 bytes @ 0x5
   783  0075                     	ds	1
   784  0076                     ??___ftpack:	
   785                           
   786                           ; 1 bytes @ 0x6
   787  0076                     	ds	3
   788  0079                     ??___ftmul:	
   789  0079                     ?___lwtoft:	
   790                           ; 1 bytes @ 0x9
   791                           
   792  0079                     ___lwtoft@c:	
   793                           ; 3 bytes @ 0x9
   794                           
   795                           
   796                           ; 2 bytes @ 0x9
   797  0079                     	ds	3
   798  007C                     ??___lwtoft:	
   799                           
   800                           ; 1 bytes @ 0xC
   801  007C                     	ds	1
   802                           
   803                           	psect	cstackBANK0
   804  0020                     __pcstackBANK0:	
   805  0020                     ?___ftmul:	
   806  0020                     ___ftmul@f1:	
   807                           ; 3 bytes @ 0x0
   808                           
   809                           
   810                           ; 3 bytes @ 0x0
   811  0020                     	ds	3
   812  0023                     ___ftmul@f2:	
   813                           
   814                           ; 3 bytes @ 0x3
   815  0023                     	ds	3
   816  0026                     ___ftmul@exp:	
   817                           
   818                           ; 1 bytes @ 0x6
   819  0026                     	ds	1
   820  0027                     ___ftmul@f3_as_product:	
   821                           
   822                           ; 3 bytes @ 0x7
   823  0027                     	ds	3
   824  002A                     ___ftmul@cntr:	
   825                           
   826                           ; 1 bytes @ 0xA
   827  002A                     	ds	1
   828  002B                     ___ftmul@sign:	
   829                           
   830                           ; 1 bytes @ 0xB
   831  002B                     	ds	1
   832  002C                     ?___ftadd:	
   833  002C                     ___ftadd@f1:	
   834                           ; 3 bytes @ 0xC
   835                           
   836                           
   837                           ; 3 bytes @ 0xC
   838  002C                     	ds	3
   839  002F                     ___ftadd@f2:	
   840                           
   841                           ; 3 bytes @ 0xF
   842  002F                     	ds	3
   843  0032                     ??___ftadd:	
   844                           
   845                           ; 1 bytes @ 0x12
   846  0032                     	ds	4
   847  0036                     ___ftadd@sign:	
   848                           
   849                           ; 1 bytes @ 0x16
   850  0036                     	ds	1
   851  0037                     ___ftadd@exp2:	
   852                           
   853                           ; 1 bytes @ 0x17
   854  0037                     	ds	1
   855  0038                     ___ftadd@exp1:	
   856                           
   857                           ; 1 bytes @ 0x18
   858  0038                     	ds	1
   859  0039                     ?___ftdiv:	
   860  0039                     ___ftdiv@f2:	
   861                           ; 3 bytes @ 0x19
   862                           
   863                           
   864                           ; 3 bytes @ 0x19
   865  0039                     	ds	3
   866  003C                     ___ftdiv@f1:	
   867                           
   868                           ; 3 bytes @ 0x1C
   869  003C                     	ds	3
   870  003F                     ??___ftdiv:	
   871                           
   872                           ; 1 bytes @ 0x1F
   873  003F                     	ds	4
   874  0043                     ___ftdiv@cntr:	
   875                           
   876                           ; 1 bytes @ 0x23
   877  0043                     	ds	1
   878  0044                     ___ftdiv@f3:	
   879                           
   880                           ; 3 bytes @ 0x24
   881  0044                     	ds	3
   882  0047                     ___ftdiv@exp:	
   883                           
   884                           ; 1 bytes @ 0x27
   885  0047                     	ds	1
   886  0048                     ___ftdiv@sign:	
   887                           
   888                           ; 1 bytes @ 0x28
   889  0048                     	ds	1
   890  0049                     ?___fttol:	
   891  0049                     ___fttol@f1:	
   892                           ; 4 bytes @ 0x29
   893                           
   894                           
   895                           ; 3 bytes @ 0x29
   896  0049                     	ds	4
   897  004D                     ??___fttol:	
   898                           
   899                           ; 1 bytes @ 0x2D
   900  004D                     	ds	4
   901  0051                     ___fttol@sign1:	
   902                           
   903                           ; 1 bytes @ 0x31
   904  0051                     	ds	1
   905  0052                     ___fttol@lval:	
   906                           
   907                           ; 4 bytes @ 0x32
   908  0052                     	ds	4
   909  0056                     ___fttol@exp1:	
   910                           
   911                           ; 1 bytes @ 0x36
   912  0056                     	ds	1
   913  0057                     ?___awtoft:	
   914  0057                     ___awtoft@c:	
   915                           ; 3 bytes @ 0x37
   916                           
   917                           
   918                           ; 2 bytes @ 0x37
   919  0057                     	ds	3
   920  005A                     ??___awtoft:	
   921                           
   922                           ; 1 bytes @ 0x3A
   923  005A                     	ds	2
   924  005C                     ___awtoft@sign:	
   925                           
   926                           ; 1 bytes @ 0x3C
   927  005C                     	ds	1
   928  005D                     ??_geterror:	
   929                           
   930                           ; 1 bytes @ 0x3D
   931  005D                     	ds	2
   932  005F                     _geterror$764:	
   933                           
   934                           ; 3 bytes @ 0x3F
   935  005F                     	ds	3
   936  0062                     _geterror$765:	
   937                           
   938                           ; 3 bytes @ 0x42
   939  0062                     	ds	3
   940  0065                     ?_main:	
   941  0065                     main@argc:	
   942                           ; 2 bytes @ 0x45
   943                           
   944                           
   945                           ; 2 bytes @ 0x45
   946  0065                     	ds	2
   947  0067                     main@argv:	
   948                           
   949                           ; 2 bytes @ 0x47
   950  0067                     	ds	2
   951  0069                     ??_main:	
   952                           
   953                           ; 1 bytes @ 0x49
   954  0069                     	ds	2
   955                           
   956                           	psect	maintext
   957  0608                     __pmaintext:	
   958 ;;
   959 ;;Main: autosize = 0, tempsize = 2, incstack = 0, save=0
   960 ;;
   961 ;; *************** function _main *****************
   962 ;; Defined at:
   963 ;;		line 126 in file "main.c"
   964 ;; Parameters:    Size  Location     Type
   965 ;;  argc            2   69[BANK0 ] int 
   966 ;;  argv            2   71[BANK0 ] PTR PTR unsigned char 
   967 ;; Auto vars:     Size  Location     Type
   968 ;;		None
   969 ;; Return value:  Size  Location     Type
   970 ;;                  2   69[BANK0 ] int 
   971 ;; Registers used:
   972 ;;		wreg, status,2, status,0, pclath, cstack
   973 ;; Tracked objects:
   974 ;;		On entry : B3F/0
   975 ;;		On exit  : 0/0
   976 ;;		Unchanged: 0/0
   977 ;; Data sizes:     COMMON   BANK0   BANK1   BANK2   BANK3   BANK4   BANK5   BANK6   BANK7   BANK8   BANK9  BANK10  BANK1
      +1  BANK12  BANK13  BANK14  BANK15  BANK16  BANK17  BANK18  BANK19  BANK20  BANK21  BANK22  BANK23  BANK24  BANK25  BANK2
      +6  BANK27  BANK28  BANK29  BANK30  BANK31  BANK32  BANK33  BANK34  BANK35  BANK36  BANK37  BANK38  BANK39  BANK40  BANK4
      +1  BANK42  BANK43  BANK44  BANK45  BANK46  BANK47  BANK48  BANK49  BANK50
   978 ;;      Params:         0       4       0       0       0       0       0       0       0       0       0       0       
      +0       0       0       0       0       0       0       0       0       0       0       0       0       0       0       
      +0       0       0       0       0       0       0       0       0       0       0       0       0       0       0       
      +0       0       0       0       0       0       0       0       0       0
   979 ;;      Locals:         0       0       0       0       0       0       0       0       0       0       0       0       
      +0       0       0       0       0       0       0       0       0       0       0       0       0       0       0       
      +0       0       0       0       0       0       0       0       0       0       0       0       0       0       0       
      +0       0       0       0       0       0       0       0       0       0
   980 ;;      Temps:          0       2       0       0       0       0       0       0       0       0       0       0       
      +0       0       0       0       0       0       0       0       0       0       0       0       0       0       0       
      +0       0       0       0       0       0       0       0       0       0       0       0       0       0       0       
      +0       0       0       0       0       0       0       0       0       0
   981 ;;      Totals:         0       6       0       0       0       0       0       0       0       0       0       0       
      +0       0       0       0       0       0       0       0       0       0       0       0       0       0       0       
      +0       0       0       0       0       0       0       0       0       0       0       0       0       0       0       
      +0       0       0       0       0       0       0       0       0       0
   982 ;;Total ram usage:        6 bytes
   983 ;; Hardware stack levels required when called:    4
   984 ;; This function calls:
   985 ;;		_formula
   986 ;;		_geterror
   987 ;; This function is called by:
   988 ;;		Startup code after reset
   989 ;; This function uses a non-reentrant model
   990 ;;
   991                           
   992                           
   993                           ;psect for function _main
   994  0608                     _main:	
   995                           
   996                           ;main.c: 128: PORTA=0;
   997                           
   998                           ;incstack = 0
   999                           ; Regs used in _main: [wreg+status,2+status,0+pclath+cstack]
  1000  0608  0140               	movlb	0	; select bank0
  1001  0609  018C               	clrf	12	;volatile
  1002                           
  1003                           ;main.c: 129: ANSELA=0;
  1004  060A  017E               	movlb	62	; select bank62
  1005  060B  01B8               	clrf	56	;volatile
  1006                           
  1007                           ;main.c: 130: TRISAbits.TRISA0=0;
  1008  060C  0140               	movlb	0	; select bank0
  1009  060D  1011               	bcf	17,0	;volatile
  1010                           
  1011                           ;main.c: 131: TRISAbits.TRISA1=1;
  1012  060E  1491               	bsf	17,1	;volatile
  1013                           
  1014                           ;main.c: 133: TRISAbits.TRISA2=0;
  1015  060F  1111               	bcf	17,2	;volatile
  1016                           
  1017                           ;main.c: 134: TRISAbits.TRISA3=1;
  1018  0610  1591               	bsf	17,3	;volatile
  1019                           
  1020                           ;main.c: 136: TRISAbits.TRISA4=0;
  1021  0611  1211               	bcf	17,4	;volatile
  1022                           
  1023                           ;main.c: 137: TRISAbits.TRISA5=1;
  1024  0612  1691               	bsf	17,5	;volatile
  1025                           
  1026                           ;main.c: 139: PORTB=0;
  1027  0613  018D               	clrf	13	;volatile
  1028                           
  1029                           ;main.c: 140: ANSELB=0;
  1030  0614  017E               	movlb	62	; select bank62
  1031  0615  01C3               	clrf	67	;volatile
  1032                           
  1033                           ;main.c: 141: TRISB=0;
  1034  0616  0140               	movlb	0	; select bank0
  1035  0617  0192               	clrf	18	;volatile
  1036                           
  1037                           ;main.c: 144: PIR4bits.TMR1IF=0;
  1038  0618  014E               	movlb	14	; select bank14
  1039  0619  1010               	bcf	16,0	;volatile
  1040                           
  1041                           ;main.c: 145: PIE4bits.TMR1IE=1;
  1042  061A  141A               	bsf	26,0	;volatile
  1043                           
  1044                           ;main.c: 146: INTCONbits.GIE=1;
  1045  061B  178B               	bsf	11,7	;volatile
  1046                           
  1047                           ;main.c: 147: INTCONbits.PEIE=1;
  1048  061C  170B               	bsf	11,6	;volatile
  1049                           
  1050                           ;main.c: 148: PIE4bits.TMR1IE=1;
  1051  061D  141A               	bsf	26,0	;volatile
  1052                           
  1053                           ;main.c: 150: T1CONbits.CKPS=0b10;
  1054  061E  0144               	movlb	4	; select bank4
  1055  061F  080E               	movf	14,w	;volatile
  1056  0620  39CF               	andlw	-49
  1057  0621  3820               	iorlw	32
  1058  0622  008E               	movwf	14	;volatile
  1059                           
  1060                           ;main.c: 151: T1CLKbits.CS=0b0001;
  1061  0623  0811               	movf	17,w	;volatile
  1062  0624  39F0               	andlw	-16
  1063  0625  3801               	iorlw	1
  1064  0626  0091               	movwf	17	;volatile
  1065                           
  1066                           ;main.c: 152: T1CONbits.nSYNC=1;
  1067  0627  150E               	bsf	14,2	;volatile
  1068                           
  1069                           ;main.c: 154: LATBbits.LATB0=1;
  1070  0628  0140               	movlb	0	; select bank0
  1071  0629  1417               	bsf	23,0	;volatile
  1072                           
  1073                           ;main.c: 155: LATBbits.LATB1=0;
  1074  062A  1097               	bcf	23,1	;volatile
  1075                           
  1076                           ;main.c: 157: LATBbits.LATB2=1;
  1077  062B  1517               	bsf	23,2	;volatile
  1078                           
  1079                           ;main.c: 158: LATBbits.LATB3=0;
  1080  062C  1197               	bcf	23,3	;volatile
  1081                           
  1082                           ;main.c: 159: _delay((unsigned long)((1000)*(32000000/4000.0)));
  1083  062D  3029               	movlw	41
  1084  062E  0140               	movlb	0	; select bank0
  1085  062F  00EA               	movwf	??_main+1
  1086  0630  3096               	movlw	150
  1087  0631  00E9               	movwf	??_main
  1088  0632  307F               	movlw	127
  1089  0633                     u1537:	
  1090  0633  0B89               	decfsz	9,f
  1091  0634  2E33               	goto	u1537
  1092  0635  0BE9               	decfsz	??_main,f
  1093  0636  2E33               	goto	u1537
  1094  0637  0BEA               	decfsz	??_main+1,f
  1095  0638  2E33               	goto	u1537
  1096  0639                     l1243:	
  1097                           ;main.c: 160: while(1){
  1098                           
  1099                           
  1100                           ;main.c: 161: geterror();
  1101  0639  3180  202E  3186   	fcall	_geterror
  1102                           
  1103                           ;main.c: 162: formula();
  1104  063C  3185  25B6  3186   	fcall	_formula
  1105                           
  1106                           ;main.c: 163: errorant=error;
  1107  063F  0140               	movlb	0	; select bank0
  1108  0640  086F               	movf	_error+1,w
  1109  0641  0141               	movlb	1	; select bank1
  1110  0642  00A4               	movwf	(_errorant+1)^(0+128)
  1111  0643  0140               	movlb	0	; select bank0
  1112  0644  086E               	movf	_error,w
  1113  0645  0141               	movlb	1	; select bank1
  1114  0646  00A3               	movwf	_errorant^(0+128)
  1115  0647  2E39               	goto	l1243
  1116  0648                     __end_of_main:	
  1117                           ;main.c: 165: }
  1118                           ;main.c: 168: return (0);
  1119                           ;	Return value of _main is never used
  1120                           
  1121                           
  1122                           	psect	text1
  1123  002E                     __ptext1:	
  1124 ;; *************** function _geterror *****************
  1125 ;; Defined at:
  1126 ;;		line 37 in file "main.c"
  1127 ;; Parameters:    Size  Location     Type
  1128 ;;		None
  1129 ;; Auto vars:     Size  Location     Type
  1130 ;;		None
  1131 ;; Return value:  Size  Location     Type
  1132 ;;                  1    wreg      void 
  1133 ;; Registers used:
  1134 ;;		wreg, status,2, status,0, pclath, cstack
  1135 ;; Tracked objects:
  1136 ;;		On entry : 0/0
  1137 ;;		On exit  : 0/0
  1138 ;;		Unchanged: 0/0
  1139 ;; Data sizes:     COMMON   BANK0   BANK1   BANK2   BANK3   BANK4   BANK5   BANK6   BANK7   BANK8   BANK9  BANK10  BANK1
      +1  BANK12  BANK13  BANK14  BANK15  BANK16  BANK17  BANK18  BANK19  BANK20  BANK21  BANK22  BANK23  BANK24  BANK25  BANK2
      +6  BANK27  BANK28  BANK29  BANK30  BANK31  BANK32  BANK33  BANK34  BANK35  BANK36  BANK37  BANK38  BANK39  BANK40  BANK4
      +1  BANK42  BANK43  BANK44  BANK45  BANK46  BANK47  BANK48  BANK49  BANK50
  1140 ;;      Params:         0       0       0       0       0       0       0       0       0       0       0       0       
      +0       0       0       0       0       0       0       0       0       0       0       0       0       0       0       
      +0       0       0       0       0       0       0       0       0       0       0       0       0       0       0       
      +0       0       0       0       0       0       0       0       0       0
  1141 ;;      Locals:         0       6       0       0       0       0       0       0       0       0       0       0       
      +0       0       0       0       0       0       0       0       0       0       0       0       0       0       0       
      +0       0       0       0       0       0       0       0       0       0       0       0       0       0       0       
      +0       0       0       0       0       0       0       0       0       0
  1142 ;;      Temps:          0       2       0       0       0       0       0       0       0       0       0       0       
      +0       0       0       0       0       0       0       0       0       0       0       0       0       0       0       
      +0       0       0       0       0       0       0       0       0       0       0       0       0       0       0       
      +0       0       0       0       0       0       0       0       0       0
  1143 ;;      Totals:         0       8       0       0       0       0       0       0       0       0       0       0       
      +0       0       0       0       0       0       0       0       0       0       0       0       0       0       0       
      +0       0       0       0       0       0       0       0       0       0       0       0       0       0       0       
      +0       0       0       0       0       0       0       0       0       0
  1144 ;;Total ram usage:        8 bytes
  1145 ;; Hardware stack levels used:    1
  1146 ;; Hardware stack levels required when called:    3
  1147 ;; This function calls:
  1148 ;;		___awtoft
  1149 ;;		___ftadd
  1150 ;;		___ftdiv
  1151 ;;		___ftmul
  1152 ;;		___fttol
  1153 ;;		___lwtoft
  1154 ;; This function is called by:
  1155 ;;		_main
  1156 ;; This function uses a non-reentrant model
  1157 ;;
  1158                           
  1159                           
  1160                           ;psect for function _geterror
  1161  002E                     _geterror:	
  1162                           
  1163                           ;main.c: 39: TMR1=0;
  1164                           
  1165                           ;incstack = 0
  1166                           ; Regs used in _geterror: [wreg+status,2+status,0+pclath+cstack]
  1167  002E  0144               	movlb	4	; select bank4
  1168  002F  018C               	clrf	12	;volatile
  1169  0030  018D               	clrf	13	;volatile
  1170                           
  1171                           ;main.c: 40: LATAbits.LATA0=1;
  1172  0031  0140               	movlb	0	; select bank0
  1173  0032  1416               	bsf	22,0	;volatile
  1174                           
  1175                           ;main.c: 41: _delay((unsigned long)((10)*(32000000/4000000.0)));
  1176  0033  301A               	movlw	26
  1177  0034                     u1547:	
  1178  0034  0B89               	decfsz	9,f
  1179  0035  2834               	goto	u1547
  1180  0036  3200               	nop2
  1181                           
  1182                           ;main.c: 42: LATAbits.LATA0=0;
  1183  0037  0140               	movlb	0	; select bank0
  1184  0038  1016               	bcf	22,0	;volatile
  1185  0039                     l61:	
  1186                           ;main.c: 43: while(PORTAbits.RA1==0);
  1187                           
  1188  0039  1C8C               	btfss	12,1	;volatile
  1189  003A  2839               	goto	l61
  1190                           
  1191                           ;main.c: 44: T1CONbits.ON=1;
  1192  003B  0144               	movlb	4	; select bank4
  1193  003C  140E               	bsf	14,0	;volatile
  1194  003D                     l64:	
  1195                           ;main.c: 45: while(PORTAbits.RA1);
  1196                           
  1197  003D  0140               	movlb	0	; select bank0
  1198  003E  188C               	btfsc	12,1	;volatile
  1199  003F  283D               	goto	l64
  1200                           
  1201                           ;main.c: 46: T1CONbits.ON=0;
  1202  0040  0144               	movlb	4	; select bank4
  1203  0041  100E               	bcf	14,0	;volatile
  1204                           
  1205                           ;main.c: 47: tiempo1=((((double)TMR1))/2000000);
  1206  0042  3024               	movlw	36
  1207  0043  0140               	movlb	0	; select bank0
  1208  0044  00B9               	movwf	___ftdiv@f2
  1209  0045  30F4               	movlw	244
  1210  0046  00BA               	movwf	___ftdiv@f2+1
  1211  0047  3049               	movlw	73
  1212  0048  00BB               	movwf	___ftdiv@f2+2
  1213  0049  0144               	movlb	4	; select bank4
  1214  004A  080D               	movf	13,w	;volatile
  1215  004B  00FA               	movwf	___lwtoft@c+1
  1216  004C  080C               	movf	12,w	;volatile
  1217  004D  00F9               	movwf	___lwtoft@c
  1218  004E  3186  266A  3180   	fcall	___lwtoft
  1219  0051  0879               	movf	?___lwtoft,w
  1220  0052  0140               	movlb	0	; select bank0
  1221  0053  00BC               	movwf	___ftdiv@f1
  1222  0054  087A               	movf	?___lwtoft+1,w
  1223  0055  00BD               	movwf	___ftdiv@f1+1
  1224  0056  087B               	movf	?___lwtoft+2,w
  1225  0057  00BE               	movwf	___ftdiv@f1+2
  1226  0058  3184  2422  3180   	fcall	___ftdiv
  1227  005B  0140               	movlb	0	; select bank0
  1228  005C  0839               	movf	?___ftdiv,w
  1229  005D  0141               	movlb	1	; select bank1
  1230  005E  00AE               	movwf	_tiempo1^(0+128)
  1231  005F  0140               	movlb	0	; select bank0
  1232  0060  083A               	movf	?___ftdiv+1,w
  1233  0061  0141               	movlb	1	; select bank1
  1234  0062  00AF               	movwf	(_tiempo1+1)^(0+128)
  1235  0063  0140               	movlb	0	; select bank0
  1236  0064  083B               	movf	?___ftdiv+2,w
  1237  0065  0141               	movlb	1	; select bank1
  1238  0066  00B0               	movwf	(_tiempo1+2)^(0+128)
  1239                           
  1240                           ;main.c: 48: distancia1=(int)((34000*tiempo1)/2)-calibracion;
  1241  0067  093C               	comf	_calibracion^(0+128),w
  1242  0068  0140               	movlb	0	; select bank0
  1243  0069  00DD               	movwf	??_geterror
  1244  006A  0141               	movlb	1	; select bank1
  1245  006B  093D               	comf	(_calibracion+1)^(0+128),w
  1246  006C  0140               	movlb	0	; select bank0
  1247  006D  00DE               	movwf	??_geterror+1
  1248  006E  0ADD               	incf	??_geterror,f
  1249  006F  1903               	skipnz
  1250  0070  0ADE               	incf	??_geterror+1,f
  1251  0071  0141               	movlb	1	; select bank1
  1252  0072  082E               	movf	_tiempo1^(0+128),w
  1253  0073  0140               	movlb	0	; select bank0
  1254  0074  00A3               	movwf	___ftmul@f2
  1255  0075  0141               	movlb	1	; select bank1
  1256  0076  082F               	movf	(_tiempo1+1)^(0+128),w
  1257  0077  0140               	movlb	0	; select bank0
  1258  0078  00A4               	movwf	___ftmul@f2+1
  1259  0079  0141               	movlb	1	; select bank1
  1260  007A  0830               	movf	(_tiempo1+2)^(0+128),w
  1261  007B  0140               	movlb	0	; select bank0
  1262  007C  00A5               	movwf	___ftmul@f2+2
  1263  007D  30D0               	movlw	208
  1264  007E  00A0               	movwf	___ftmul@f1
  1265  007F  3004               	movlw	4
  1266  0080  00A1               	movwf	___ftmul@f1+1
  1267  0081  3047               	movlw	71
  1268  0082  00A2               	movwf	___ftmul@f1+2
  1269  0083  3183  236E  3180   	fcall	___ftmul
  1270  0086  0140               	movlb	0	; select bank0
  1271  0087  0820               	movf	?___ftmul,w
  1272  0088  00BC               	movwf	___ftdiv@f1
  1273  0089  0821               	movf	?___ftmul+1,w
  1274  008A  00BD               	movwf	___ftdiv@f1+1
  1275  008B  0822               	movf	?___ftmul+2,w
  1276  008C  00BE               	movwf	___ftdiv@f1+2
  1277  008D  3000               	movlw	0
  1278  008E  00B9               	movwf	___ftdiv@f2
  1279  008F  3000               	movlw	0
  1280  0090  00BA               	movwf	___ftdiv@f2+1
  1281  0091  3040               	movlw	64
  1282  0092  00BB               	movwf	___ftdiv@f2+2
  1283  0093  3184  2422  3180   	fcall	___ftdiv
  1284  0096  0140               	movlb	0	; select bank0
  1285  0097  0839               	movf	?___ftdiv,w
  1286  0098  00C9               	movwf	___fttol@f1
  1287  0099  083A               	movf	?___ftdiv+1,w
  1288  009A  00CA               	movwf	___fttol@f1+1
  1289  009B  083B               	movf	?___ftdiv+2,w
  1290  009C  00CB               	movwf	___fttol@f1+2
  1291  009D  3184  24CB  3180   	fcall	___fttol
  1292  00A0  0140               	movlb	0	; select bank0
  1293  00A1  085D               	movf	??_geterror,w
  1294  00A2  0749               	addwf	?___fttol,w
  1295  00A3  00D7               	movwf	___awtoft@c
  1296  00A4  085E               	movf	??_geterror+1,w
  1297  00A5  3D4A               	addwfc	?___fttol+1,w
  1298  00A6  00D8               	movwf	___awtoft@c+1
  1299  00A7  3186  2648  3180   	fcall	___awtoft
  1300  00AA  0140               	movlb	0	; select bank0
  1301  00AB  0857               	movf	?___awtoft,w
  1302  00AC  0141               	movlb	1	; select bank1
  1303  00AD  00A5               	movwf	_distancia1^(0+128)
  1304  00AE  0140               	movlb	0	; select bank0
  1305  00AF  0858               	movf	?___awtoft+1,w
  1306  00B0  0141               	movlb	1	; select bank1
  1307  00B1  00A6               	movwf	(_distancia1+1)^(0+128)
  1308  00B2  0140               	movlb	0	; select bank0
  1309  00B3  0859               	movf	?___awtoft+2,w
  1310  00B4  0141               	movlb	1	; select bank1
  1311  00B5  00A7               	movwf	(_distancia1+2)^(0+128)
  1312                           
  1313                           ;main.c: 50: TMR1=0;
  1314  00B6  0144               	movlb	4	; select bank4
  1315  00B7  018C               	clrf	12	;volatile
  1316  00B8  018D               	clrf	13	;volatile
  1317                           
  1318                           ;main.c: 51: LATAbits.LATA2=1;
  1319  00B9  0140               	movlb	0	; select bank0
  1320  00BA  1516               	bsf	22,2	;volatile
  1321                           
  1322                           ;main.c: 52: _delay((unsigned long)((10)*(32000000/4000000.0)));
  1323  00BB  301A               	movlw	26
  1324  00BC                     u1557:	
  1325  00BC  0B89               	decfsz	9,f
  1326  00BD  28BC               	goto	u1557
  1327  00BE  3200               	nop2
  1328                           
  1329                           ;main.c: 53: LATAbits.LATA2=0;
  1330  00BF  0140               	movlb	0	; select bank0
  1331  00C0  1116               	bcf	22,2	;volatile
  1332  00C1                     l67:	
  1333                           ;main.c: 54: while(PORTAbits.RA3==0);
  1334                           
  1335  00C1  1D8C               	btfss	12,3	;volatile
  1336  00C2  28C1               	goto	l67
  1337                           
  1338                           ;main.c: 55: T1CONbits.ON=1;
  1339  00C3  0144               	movlb	4	; select bank4
  1340  00C4  140E               	bsf	14,0	;volatile
  1341  00C5                     l70:	
  1342                           ;main.c: 56: while(PORTAbits.RA3);
  1343                           
  1344  00C5  0140               	movlb	0	; select bank0
  1345  00C6  198C               	btfsc	12,3	;volatile
  1346  00C7  28C5               	goto	l70
  1347                           
  1348                           ;main.c: 57: T1CONbits.ON=0;
  1349  00C8  0144               	movlb	4	; select bank4
  1350  00C9  100E               	bcf	14,0	;volatile
  1351                           
  1352                           ;main.c: 58: tiempo2=((((double)TMR1))/2000000);
  1353  00CA  3024               	movlw	36
  1354  00CB  0140               	movlb	0	; select bank0
  1355  00CC  00B9               	movwf	___ftdiv@f2
  1356  00CD  30F4               	movlw	244
  1357  00CE  00BA               	movwf	___ftdiv@f2+1
  1358  00CF  3049               	movlw	73
  1359  00D0  00BB               	movwf	___ftdiv@f2+2
  1360  00D1  0144               	movlb	4	; select bank4
  1361  00D2  080D               	movf	13,w	;volatile
  1362  00D3  00FA               	movwf	___lwtoft@c+1
  1363  00D4  080C               	movf	12,w	;volatile
  1364  00D5  00F9               	movwf	___lwtoft@c
  1365  00D6  3186  266A  3180   	fcall	___lwtoft
  1366  00D9  0879               	movf	?___lwtoft,w
  1367  00DA  0140               	movlb	0	; select bank0
  1368  00DB  00BC               	movwf	___ftdiv@f1
  1369  00DC  087A               	movf	?___lwtoft+1,w
  1370  00DD  00BD               	movwf	___ftdiv@f1+1
  1371  00DE  087B               	movf	?___lwtoft+2,w
  1372  00DF  00BE               	movwf	___ftdiv@f1+2
  1373  00E0  3184  2422  3180   	fcall	___ftdiv
  1374  00E3  0140               	movlb	0	; select bank0
  1375  00E4  0839               	movf	?___ftdiv,w
  1376  00E5  0141               	movlb	1	; select bank1
  1377  00E6  00AB               	movwf	_tiempo2^(0+128)
  1378  00E7  0140               	movlb	0	; select bank0
  1379  00E8  083A               	movf	?___ftdiv+1,w
  1380  00E9  0141               	movlb	1	; select bank1
  1381  00EA  00AC               	movwf	(_tiempo2+1)^(0+128)
  1382  00EB  0140               	movlb	0	; select bank0
  1383  00EC  083B               	movf	?___ftdiv+2,w
  1384  00ED  0141               	movlb	1	; select bank1
  1385  00EE  00AD               	movwf	(_tiempo2+2)^(0+128)
  1386                           
  1387                           ;main.c: 59: distancia2=(int)((34000*tiempo2)/2)-calibracion;
  1388  00EF  093C               	comf	_calibracion^(0+128),w
  1389  00F0  0140               	movlb	0	; select bank0
  1390  00F1  00DD               	movwf	??_geterror
  1391  00F2  0141               	movlb	1	; select bank1
  1392  00F3  093D               	comf	(_calibracion+1)^(0+128),w
  1393  00F4  0140               	movlb	0	; select bank0
  1394  00F5  00DE               	movwf	??_geterror+1
  1395  00F6  0ADD               	incf	??_geterror,f
  1396  00F7  1903               	skipnz
  1397  00F8  0ADE               	incf	??_geterror+1,f
  1398  00F9  0141               	movlb	1	; select bank1
  1399  00FA  082B               	movf	_tiempo2^(0+128),w
  1400  00FB  0140               	movlb	0	; select bank0
  1401  00FC  00A3               	movwf	___ftmul@f2
  1402  00FD  0141               	movlb	1	; select bank1
  1403  00FE  082C               	movf	(_tiempo2+1)^(0+128),w
  1404  00FF  0140               	movlb	0	; select bank0
  1405  0100  00A4               	movwf	___ftmul@f2+1
  1406  0101  0141               	movlb	1	; select bank1
  1407  0102  082D               	movf	(_tiempo2+2)^(0+128),w
  1408  0103  0140               	movlb	0	; select bank0
  1409  0104  00A5               	movwf	___ftmul@f2+2
  1410  0105  30D0               	movlw	208
  1411  0106  00A0               	movwf	___ftmul@f1
  1412  0107  3004               	movlw	4
  1413  0108  00A1               	movwf	___ftmul@f1+1
  1414  0109  3047               	movlw	71
  1415  010A  00A2               	movwf	___ftmul@f1+2
  1416  010B  3183  236E  3180   	fcall	___ftmul
  1417  010E  0140               	movlb	0	; select bank0
  1418  010F  0820               	movf	?___ftmul,w
  1419  0110  00BC               	movwf	___ftdiv@f1
  1420  0111  0821               	movf	?___ftmul+1,w
  1421  0112  00BD               	movwf	___ftdiv@f1+1
  1422  0113  0822               	movf	?___ftmul+2,w
  1423  0114  00BE               	movwf	___ftdiv@f1+2
  1424  0115  3000               	movlw	0
  1425  0116  00B9               	movwf	___ftdiv@f2
  1426  0117  3000               	movlw	0
  1427  0118  00BA               	movwf	___ftdiv@f2+1
  1428  0119  3040               	movlw	64
  1429  011A  00BB               	movwf	___ftdiv@f2+2
  1430  011B  3184  2422  3180   	fcall	___ftdiv
  1431  011E  0140               	movlb	0	; select bank0
  1432  011F  0839               	movf	?___ftdiv,w
  1433  0120  00C9               	movwf	___fttol@f1
  1434  0121  083A               	movf	?___ftdiv+1,w
  1435  0122  00CA               	movwf	___fttol@f1+1
  1436  0123  083B               	movf	?___ftdiv+2,w
  1437  0124  00CB               	movwf	___fttol@f1+2
  1438  0125  3184  24CB  3180   	fcall	___fttol
  1439  0128  0140               	movlb	0	; select bank0
  1440  0129  085D               	movf	??_geterror,w
  1441  012A  0749               	addwf	?___fttol,w
  1442  012B  00D7               	movwf	___awtoft@c
  1443  012C  085E               	movf	??_geterror+1,w
  1444  012D  3D4A               	addwfc	?___fttol+1,w
  1445  012E  00D8               	movwf	___awtoft@c+1
  1446  012F  3186  2648  3180   	fcall	___awtoft
  1447  0132  0140               	movlb	0	; select bank0
  1448  0133  0857               	movf	?___awtoft,w
  1449  0134  00EB               	movwf	_distancia2
  1450  0135  0858               	movf	?___awtoft+1,w
  1451  0136  00EC               	movwf	_distancia2+1
  1452  0137  0859               	movf	?___awtoft+2,w
  1453  0138  00ED               	movwf	_distancia2+2
  1454                           
  1455                           ;main.c: 61: TMR1=0;
  1456  0139  0144               	movlb	4	; select bank4
  1457  013A  018C               	clrf	12	;volatile
  1458  013B  018D               	clrf	13	;volatile
  1459                           
  1460                           ;main.c: 62: LATAbits.LATA4=1;
  1461  013C  0140               	movlb	0	; select bank0
  1462  013D  1616               	bsf	22,4	;volatile
  1463                           
  1464                           ;main.c: 63: _delay((unsigned long)((10)*(32000000/4000000.0)));
  1465  013E  301A               	movlw	26
  1466  013F                     u1567:	
  1467  013F  0B89               	decfsz	9,f
  1468  0140  293F               	goto	u1567
  1469  0141  3200               	nop2
  1470                           
  1471                           ;main.c: 64: LATAbits.LATA4=0;
  1472  0142  0140               	movlb	0	; select bank0
  1473  0143  1216               	bcf	22,4	;volatile
  1474  0144                     l73:	
  1475                           ;main.c: 65: while(PORTAbits.RA5==0);
  1476                           
  1477  0144  1E8C               	btfss	12,5	;volatile
  1478  0145  2944               	goto	l73
  1479                           
  1480                           ;main.c: 66: T1CONbits.ON=1;
  1481  0146  0144               	movlb	4	; select bank4
  1482  0147  140E               	bsf	14,0	;volatile
  1483  0148                     l76:	
  1484                           ;main.c: 67: while(PORTAbits.RA5);
  1485                           
  1486  0148  0140               	movlb	0	; select bank0
  1487  0149  1A8C               	btfsc	12,5	;volatile
  1488  014A  2948               	goto	l76
  1489                           
  1490                           ;main.c: 68: T1CONbits.ON=0;
  1491  014B  0144               	movlb	4	; select bank4
  1492  014C  100E               	bcf	14,0	;volatile
  1493                           
  1494                           ;main.c: 69: tiempo3=((((double)TMR1))/2000000);
  1495  014D  3024               	movlw	36
  1496  014E  0140               	movlb	0	; select bank0
  1497  014F  00B9               	movwf	___ftdiv@f2
  1498  0150  30F4               	movlw	244
  1499  0151  00BA               	movwf	___ftdiv@f2+1
  1500  0152  3049               	movlw	73
  1501  0153  00BB               	movwf	___ftdiv@f2+2
  1502  0154  0144               	movlb	4	; select bank4
  1503  0155  080D               	movf	13,w	;volatile
  1504  0156  00FA               	movwf	___lwtoft@c+1
  1505  0157  080C               	movf	12,w	;volatile
  1506  0158  00F9               	movwf	___lwtoft@c
  1507  0159  3186  266A  3180   	fcall	___lwtoft
  1508  015C  0879               	movf	?___lwtoft,w
  1509  015D  0140               	movlb	0	; select bank0
  1510  015E  00BC               	movwf	___ftdiv@f1
  1511  015F  087A               	movf	?___lwtoft+1,w
  1512  0160  00BD               	movwf	___ftdiv@f1+1
  1513  0161  087B               	movf	?___lwtoft+2,w
  1514  0162  00BE               	movwf	___ftdiv@f1+2
  1515  0163  3184  2422  3180   	fcall	___ftdiv
  1516  0166  0140               	movlb	0	; select bank0
  1517  0167  0839               	movf	?___ftdiv,w
  1518  0168  0141               	movlb	1	; select bank1
  1519  0169  00A8               	movwf	_tiempo3^(0+128)
  1520  016A  0140               	movlb	0	; select bank0
  1521  016B  083A               	movf	?___ftdiv+1,w
  1522  016C  0141               	movlb	1	; select bank1
  1523  016D  00A9               	movwf	(_tiempo3+1)^(0+128)
  1524  016E  0140               	movlb	0	; select bank0
  1525  016F  083B               	movf	?___ftdiv+2,w
  1526  0170  0141               	movlb	1	; select bank1
  1527  0171  00AA               	movwf	(_tiempo3+2)^(0+128)
  1528                           
  1529                           ;main.c: 70: distancia3=(int)((34000*tiempo3)/2)-calibracion;
  1530  0172  093C               	comf	_calibracion^(0+128),w
  1531  0173  0140               	movlb	0	; select bank0
  1532  0174  00DD               	movwf	??_geterror
  1533  0175  0141               	movlb	1	; select bank1
  1534  0176  093D               	comf	(_calibracion+1)^(0+128),w
  1535  0177  0140               	movlb	0	; select bank0
  1536  0178  00DE               	movwf	??_geterror+1
  1537  0179  0ADD               	incf	??_geterror,f
  1538  017A  1903               	skipnz
  1539  017B  0ADE               	incf	??_geterror+1,f
  1540  017C  0141               	movlb	1	; select bank1
  1541  017D  0828               	movf	_tiempo3^(0+128),w
  1542  017E  0140               	movlb	0	; select bank0
  1543  017F  00A3               	movwf	___ftmul@f2
  1544  0180  0141               	movlb	1	; select bank1
  1545  0181  0829               	movf	(_tiempo3+1)^(0+128),w
  1546  0182  0140               	movlb	0	; select bank0
  1547  0183  00A4               	movwf	___ftmul@f2+1
  1548  0184  0141               	movlb	1	; select bank1
  1549  0185  082A               	movf	(_tiempo3+2)^(0+128),w
  1550  0186  0140               	movlb	0	; select bank0
  1551  0187  00A5               	movwf	___ftmul@f2+2
  1552  0188  30D0               	movlw	208
  1553  0189  00A0               	movwf	___ftmul@f1
  1554  018A  3004               	movlw	4
  1555  018B  00A1               	movwf	___ftmul@f1+1
  1556  018C  3047               	movlw	71
  1557  018D  00A2               	movwf	___ftmul@f1+2
  1558  018E  3183  236E  3180   	fcall	___ftmul
  1559  0191  0140               	movlb	0	; select bank0
  1560  0192  0820               	movf	?___ftmul,w
  1561  0193  00BC               	movwf	___ftdiv@f1
  1562  0194  0821               	movf	?___ftmul+1,w
  1563  0195  00BD               	movwf	___ftdiv@f1+1
  1564  0196  0822               	movf	?___ftmul+2,w
  1565  0197  00BE               	movwf	___ftdiv@f1+2
  1566  0198  3000               	movlw	0
  1567  0199  00B9               	movwf	___ftdiv@f2
  1568  019A  3000               	movlw	0
  1569  019B  00BA               	movwf	___ftdiv@f2+1
  1570  019C  3040               	movlw	64
  1571  019D  00BB               	movwf	___ftdiv@f2+2
  1572  019E  3184  2422  3180   	fcall	___ftdiv
  1573  01A1  0140               	movlb	0	; select bank0
  1574  01A2  0839               	movf	?___ftdiv,w
  1575  01A3  00C9               	movwf	___fttol@f1
  1576  01A4  083A               	movf	?___ftdiv+1,w
  1577  01A5  00CA               	movwf	___fttol@f1+1
  1578  01A6  083B               	movf	?___ftdiv+2,w
  1579  01A7  00CB               	movwf	___fttol@f1+2
  1580  01A8  3184  24CB  3180   	fcall	___fttol
  1581  01AB  0140               	movlb	0	; select bank0
  1582  01AC  085D               	movf	??_geterror,w
  1583  01AD  0749               	addwf	?___fttol,w
  1584  01AE  00D7               	movwf	___awtoft@c
  1585  01AF  085E               	movf	??_geterror+1,w
  1586  01B0  3D4A               	addwfc	?___fttol+1,w
  1587  01B1  00D8               	movwf	___awtoft@c+1
  1588  01B2  3186  2648  3180   	fcall	___awtoft
  1589  01B5  0140               	movlb	0	; select bank0
  1590  01B6  0857               	movf	?___awtoft,w
  1591  01B7  0141               	movlb	1	; select bank1
  1592  01B8  00A0               	movwf	_distancia3^(0+128)
  1593  01B9  0140               	movlb	0	; select bank0
  1594  01BA  0858               	movf	?___awtoft+1,w
  1595  01BB  0141               	movlb	1	; select bank1
  1596  01BC  00A1               	movwf	(_distancia3+1)^(0+128)
  1597  01BD  0140               	movlb	0	; select bank0
  1598  01BE  0859               	movf	?___awtoft+2,w
  1599  01BF  0141               	movlb	1	; select bank1
  1600  01C0  00A2               	movwf	(_distancia3+2)^(0+128)
  1601                           
  1602                           ;main.c: 73: error=(0*distancia1+1000*distancia2+2000*distancia3)/(distancia1+distancia2
      +                          +distancia3);
  1603  01C1  0825               	movf	_distancia1^(0+128),w
  1604  01C2  0140               	movlb	0	; select bank0
  1605  01C3  00A3               	movwf	___ftmul@f2
  1606  01C4  0141               	movlb	1	; select bank1
  1607  01C5  0826               	movf	(_distancia1+1)^(0+128),w
  1608  01C6  0140               	movlb	0	; select bank0
  1609  01C7  00A4               	movwf	___ftmul@f2+1
  1610  01C8  0141               	movlb	1	; select bank1
  1611  01C9  0827               	movf	(_distancia1+2)^(0+128),w
  1612  01CA  0140               	movlb	0	; select bank0
  1613  01CB  00A5               	movwf	___ftmul@f2+2
  1614  01CC  3000               	movlw	0
  1615  01CD  00A0               	movwf	___ftmul@f1
  1616  01CE  3000               	movlw	0
  1617  01CF  00A1               	movwf	___ftmul@f1+1
  1618  01D0  3000               	movlw	0
  1619  01D1  00A2               	movwf	___ftmul@f1+2
  1620  01D2  3183  236E  3180   	fcall	___ftmul
  1621  01D5  0140               	movlb	0	; select bank0
  1622  01D6  0820               	movf	?___ftmul,w
  1623  01D7  00AF               	movwf	___ftadd@f2
  1624  01D8  0821               	movf	?___ftmul+1,w
  1625  01D9  00B0               	movwf	___ftadd@f2+1
  1626  01DA  0822               	movf	?___ftmul+2,w
  1627  01DB  00B1               	movwf	___ftadd@f2+2
  1628  01DC  086B               	movf	_distancia2,w
  1629  01DD  00A3               	movwf	___ftmul@f2
  1630  01DE  086C               	movf	_distancia2+1,w
  1631  01DF  00A4               	movwf	___ftmul@f2+1
  1632  01E0  086D               	movf	_distancia2+2,w
  1633  01E1  00A5               	movwf	___ftmul@f2+2
  1634  01E2  3000               	movlw	0
  1635  01E3  00A0               	movwf	___ftmul@f1
  1636  01E4  307A               	movlw	122
  1637  01E5  00A1               	movwf	___ftmul@f1+1
  1638  01E6  3044               	movlw	68
  1639  01E7  00A2               	movwf	___ftmul@f1+2
  1640  01E8  3183  236E  3180   	fcall	___ftmul
  1641  01EB  0140               	movlb	0	; select bank0
  1642  01EC  0820               	movf	?___ftmul,w
  1643  01ED  00AC               	movwf	___ftadd@f1
  1644  01EE  0821               	movf	?___ftmul+1,w
  1645  01EF  00AD               	movwf	___ftadd@f1+1
  1646  01F0  0822               	movf	?___ftmul+2,w
  1647  01F1  00AE               	movwf	___ftadd@f1+2
  1648  01F2  3182  2278  3180   	fcall	___ftadd
  1649  01F5  0140               	movlb	0	; select bank0
  1650  01F6  082C               	movf	?___ftadd,w
  1651  01F7  00DF               	movwf	_geterror$764
  1652  01F8  082D               	movf	?___ftadd+1,w
  1653  01F9  00E0               	movwf	_geterror$764+1
  1654  01FA  082E               	movf	?___ftadd+2,w
  1655  01FB  00E1               	movwf	_geterror$764+2
  1656                           
  1657                           ;main.c: 73: error=(0*distancia1+1000*distancia2+2000*distancia3)/(distancia1+distancia2
      +                          +distancia3);
  1658  01FC  0141               	movlb	1	; select bank1
  1659  01FD  0825               	movf	_distancia1^(0+128),w
  1660  01FE  0140               	movlb	0	; select bank0
  1661  01FF  00AF               	movwf	___ftadd@f2
  1662  0200  0141               	movlb	1	; select bank1
  1663  0201  0826               	movf	(_distancia1+1)^(0+128),w
  1664  0202  0140               	movlb	0	; select bank0
  1665  0203  00B0               	movwf	___ftadd@f2+1
  1666  0204  0141               	movlb	1	; select bank1
  1667  0205  0827               	movf	(_distancia1+2)^(0+128),w
  1668  0206  0140               	movlb	0	; select bank0
  1669  0207  00B1               	movwf	___ftadd@f2+2
  1670  0208  086B               	movf	_distancia2,w
  1671  0209  00AC               	movwf	___ftadd@f1
  1672  020A  086C               	movf	_distancia2+1,w
  1673  020B  00AD               	movwf	___ftadd@f1+1
  1674  020C  086D               	movf	_distancia2+2,w
  1675  020D  00AE               	movwf	___ftadd@f1+2
  1676  020E  3182  2278  3180   	fcall	___ftadd
  1677  0211  0140               	movlb	0	; select bank0
  1678  0212  082C               	movf	?___ftadd,w
  1679  0213  00E2               	movwf	_geterror$765
  1680  0214  082D               	movf	?___ftadd+1,w
  1681  0215  00E3               	movwf	_geterror$765+1
  1682  0216  082E               	movf	?___ftadd+2,w
  1683  0217  00E4               	movwf	_geterror$765+2
  1684                           
  1685                           ;main.c: 73: error=(0*distancia1+1000*distancia2+2000*distancia3)/(distancia1+distancia2
      +                          +distancia3);
  1686  0218  085F               	movf	_geterror$764,w
  1687  0219  00AF               	movwf	___ftadd@f2
  1688  021A  0860               	movf	_geterror$764+1,w
  1689  021B  00B0               	movwf	___ftadd@f2+1
  1690  021C  0861               	movf	_geterror$764+2,w
  1691  021D  00B1               	movwf	___ftadd@f2+2
  1692  021E  0141               	movlb	1	; select bank1
  1693  021F  0820               	movf	_distancia3^(0+128),w
  1694  0220  0140               	movlb	0	; select bank0
  1695  0221  00A3               	movwf	___ftmul@f2
  1696  0222  0141               	movlb	1	; select bank1
  1697  0223  0821               	movf	(_distancia3+1)^(0+128),w
  1698  0224  0140               	movlb	0	; select bank0
  1699  0225  00A4               	movwf	___ftmul@f2+1
  1700  0226  0141               	movlb	1	; select bank1
  1701  0227  0822               	movf	(_distancia3+2)^(0+128),w
  1702  0228  0140               	movlb	0	; select bank0
  1703  0229  00A5               	movwf	___ftmul@f2+2
  1704  022A  3000               	movlw	0
  1705  022B  00A0               	movwf	___ftmul@f1
  1706  022C  30FA               	movlw	250
  1707  022D  00A1               	movwf	___ftmul@f1+1
  1708  022E  3044               	movlw	68
  1709  022F  00A2               	movwf	___ftmul@f1+2
  1710  0230  3183  236E  3180   	fcall	___ftmul
  1711  0233  0140               	movlb	0	; select bank0
  1712  0234  0820               	movf	?___ftmul,w
  1713  0235  00AC               	movwf	___ftadd@f1
  1714  0236  0821               	movf	?___ftmul+1,w
  1715  0237  00AD               	movwf	___ftadd@f1+1
  1716  0238  0822               	movf	?___ftmul+2,w
  1717  0239  00AE               	movwf	___ftadd@f1+2
  1718  023A  3182  2278  3180   	fcall	___ftadd
  1719  023D  0140               	movlb	0	; select bank0
  1720  023E  082C               	movf	?___ftadd,w
  1721  023F  00BC               	movwf	___ftdiv@f1
  1722  0240  082D               	movf	?___ftadd+1,w
  1723  0241  00BD               	movwf	___ftdiv@f1+1
  1724  0242  082E               	movf	?___ftadd+2,w
  1725  0243  00BE               	movwf	___ftdiv@f1+2
  1726  0244  0862               	movf	_geterror$765,w
  1727  0245  00AF               	movwf	___ftadd@f2
  1728  0246  0863               	movf	_geterror$765+1,w
  1729  0247  00B0               	movwf	___ftadd@f2+1
  1730  0248  0864               	movf	_geterror$765+2,w
  1731  0249  00B1               	movwf	___ftadd@f2+2
  1732  024A  0141               	movlb	1	; select bank1
  1733  024B  0820               	movf	_distancia3^(0+128),w
  1734  024C  0140               	movlb	0	; select bank0
  1735  024D  00AC               	movwf	___ftadd@f1
  1736  024E  0141               	movlb	1	; select bank1
  1737  024F  0821               	movf	(_distancia3+1)^(0+128),w
  1738  0250  0140               	movlb	0	; select bank0
  1739  0251  00AD               	movwf	___ftadd@f1+1
  1740  0252  0141               	movlb	1	; select bank1
  1741  0253  0822               	movf	(_distancia3+2)^(0+128),w
  1742  0254  0140               	movlb	0	; select bank0
  1743  0255  00AE               	movwf	___ftadd@f1+2
  1744  0256  3182  2278  3180   	fcall	___ftadd
  1745  0259  0140               	movlb	0	; select bank0
  1746  025A  082C               	movf	?___ftadd,w
  1747  025B  00B9               	movwf	___ftdiv@f2
  1748  025C  082D               	movf	?___ftadd+1,w
  1749  025D  00BA               	movwf	___ftdiv@f2+1
  1750  025E  082E               	movf	?___ftadd+2,w
  1751  025F  00BB               	movwf	___ftdiv@f2+2
  1752  0260  3184  2422  3180   	fcall	___ftdiv
  1753  0263  0140               	movlb	0	; select bank0
  1754  0264  0839               	movf	?___ftdiv,w
  1755  0265  00C9               	movwf	___fttol@f1
  1756  0266  083A               	movf	?___ftdiv+1,w
  1757  0267  00CA               	movwf	___fttol@f1+1
  1758  0268  083B               	movf	?___ftdiv+2,w
  1759  0269  00CB               	movwf	___fttol@f1+2
  1760  026A  3184  24CB         	fcall	___fttol
  1761  026C  0140               	movlb	0	; select bank0
  1762  026D  084A               	movf	?___fttol+1,w
  1763  026E  00EF               	movwf	_error+1
  1764  026F  0849               	movf	?___fttol,w
  1765  0270  00EE               	movwf	_error
  1766                           
  1767                           ;main.c: 74: error=error-1000;
  1768  0271  086E               	movf	_error,w
  1769  0272  3E18               	addlw	24
  1770  0273  00EE               	movwf	_error
  1771  0274  30FC               	movlw	252
  1772  0275  3D6F               	addwfc	_error+1,w
  1773  0276  00EF               	movwf	_error+1
  1774  0277  0008               	return
  1775  0278                     __end_of_geterror:	
  1776                           
  1777                           	psect	text2
  1778  066A                     __ptext2:	
  1779 ;; *************** function ___lwtoft *****************
  1780 ;; Defined at:
  1781 ;;		line 28 in file "C:\Program Files (x86)\Microchip\xc8\v1.45\sources\common\lwtoft.c"
  1782 ;; Parameters:    Size  Location     Type
  1783 ;;  c               2    9[COMMON] unsigned int 
  1784 ;; Auto vars:     Size  Location     Type
  1785 ;;		None
  1786 ;; Return value:  Size  Location     Type
  1787 ;;                  3    9[COMMON] float 
  1788 ;; Registers used:
  1789 ;;		wreg, status,2, status,0, pclath, cstack
  1790 ;; Tracked objects:
  1791 ;;		On entry : 0/0
  1792 ;;		On exit  : 0/0
  1793 ;;		Unchanged: 0/0
  1794 ;; Data sizes:     COMMON   BANK0   BANK1   BANK2   BANK3   BANK4   BANK5   BANK6   BANK7   BANK8   BANK9  BANK10  BANK1
      +1  BANK12  BANK13  BANK14  BANK15  BANK16  BANK17  BANK18  BANK19  BANK20  BANK21  BANK22  BANK23  BANK24  BANK25  BANK2
      +6  BANK27  BANK28  BANK29  BANK30  BANK31  BANK32  BANK33  BANK34  BANK35  BANK36  BANK37  BANK38  BANK39  BANK40  BANK4
      +1  BANK42  BANK43  BANK44  BANK45  BANK46  BANK47  BANK48  BANK49  BANK50
  1795 ;;      Params:         3       0       0       0       0       0       0       0       0       0       0       0       
      +0       0       0       0       0       0       0       0       0       0       0       0       0       0       0       
      +0       0       0       0       0       0       0       0       0       0       0       0       0       0       0       
      +0       0       0       0       0       0       0       0       0       0
  1796 ;;      Locals:         0       0       0       0       0       0       0       0       0       0       0       0       
      +0       0       0       0       0       0       0       0       0       0       0       0       0       0       0       
      +0       0       0       0       0       0       0       0       0       0       0       0       0       0       0       
      +0       0       0       0       0       0       0       0       0       0
  1797 ;;      Temps:          1       0       0       0       0       0       0       0       0       0       0       0       
      +0       0       0       0       0       0       0       0       0       0       0       0       0       0       0       
      +0       0       0       0       0       0       0       0       0       0       0       0       0       0       0       
      +0       0       0       0       0       0       0       0       0       0
  1798 ;;      Totals:         4       0       0       0       0       0       0       0       0       0       0       0       
      +0       0       0       0       0       0       0       0       0       0       0       0       0       0       0       
      +0       0       0       0       0       0       0       0       0       0       0       0       0       0       0       
      +0       0       0       0       0       0       0       0       0       0
  1799 ;;Total ram usage:        4 bytes
  1800 ;; Hardware stack levels used:    1
  1801 ;; Hardware stack levels required when called:    2
  1802 ;; This function calls:
  1803 ;;		___ftpack
  1804 ;; This function is called by:
  1805 ;;		_geterror
  1806 ;; This function uses a non-reentrant model
  1807 ;;
  1808                           
  1809                           
  1810                           ;psect for function ___lwtoft
  1811  066A                     ___lwtoft:	
  1812                           
  1813                           ;incstack = 0
  1814                           ; Regs used in ___lwtoft: [wreg+status,2+status,0+pclath+cstack]
  1815  066A  0879               	movf	___lwtoft@c,w
  1816  066B  00F1               	movwf	___ftpack@arg
  1817  066C  087A               	movf	___lwtoft@c+1,w
  1818  066D  00F2               	movwf	___ftpack@arg+1
  1819  066E  01F3               	clrf	___ftpack@arg+2
  1820  066F  308E               	movlw	142
  1821  0670  00FC               	movwf	??___lwtoft
  1822  0671  087C               	movf	??___lwtoft,w
  1823  0672  00F4               	movwf	___ftpack@exp
  1824  0673  01F5               	clrf	___ftpack@sign
  1825  0674  3185  2552         	fcall	___ftpack
  1826  0676  0871               	movf	?___ftpack,w
  1827  0677  00F9               	movwf	?___lwtoft
  1828  0678  0872               	movf	?___ftpack+1,w
  1829  0679  00FA               	movwf	?___lwtoft+1
  1830  067A  0873               	movf	?___ftpack+2,w
  1831  067B  00FB               	movwf	?___lwtoft+2
  1832  067C  0008               	return
  1833  067D                     __end_of___lwtoft:	
  1834                           
  1835                           	psect	text3
  1836  04CB                     __ptext3:	
  1837 ;; *************** function ___fttol *****************
  1838 ;; Defined at:
  1839 ;;		line 44 in file "C:\Program Files (x86)\Microchip\xc8\v1.45\sources\common\fttol.c"
  1840 ;; Parameters:    Size  Location     Type
  1841 ;;  f1              3   41[BANK0 ] float 
  1842 ;; Auto vars:     Size  Location     Type
  1843 ;;  lval            4   50[BANK0 ] unsigned long 
  1844 ;;  exp1            1   54[BANK0 ] unsigned char 
  1845 ;;  sign1           1   49[BANK0 ] unsigned char 
  1846 ;; Return value:  Size  Location     Type
  1847 ;;                  4   41[BANK0 ] long 
  1848 ;; Registers used:
  1849 ;;		wreg, status,2, status,0
  1850 ;; Tracked objects:
  1851 ;;		On entry : 0/0
  1852 ;;		On exit  : 0/0
  1853 ;;		Unchanged: 0/0
  1854 ;; Data sizes:     COMMON   BANK0   BANK1   BANK2   BANK3   BANK4   BANK5   BANK6   BANK7   BANK8   BANK9  BANK10  BANK1
      +1  BANK12  BANK13  BANK14  BANK15  BANK16  BANK17  BANK18  BANK19  BANK20  BANK21  BANK22  BANK23  BANK24  BANK25  BANK2
      +6  BANK27  BANK28  BANK29  BANK30  BANK31  BANK32  BANK33  BANK34  BANK35  BANK36  BANK37  BANK38  BANK39  BANK40  BANK4
      +1  BANK42  BANK43  BANK44  BANK45  BANK46  BANK47  BANK48  BANK49  BANK50
  1855 ;;      Params:         0       4       0       0       0       0       0       0       0       0       0       0       
      +0       0       0       0       0       0       0       0       0       0       0       0       0       0       0       
      +0       0       0       0       0       0       0       0       0       0       0       0       0       0       0       
      +0       0       0       0       0       0       0       0       0       0
  1856 ;;      Locals:         0       6       0       0       0       0       0       0       0       0       0       0       
      +0       0       0       0       0       0       0       0       0       0       0       0       0       0       0       
      +0       0       0       0       0       0       0       0       0       0       0       0       0       0       0       
      +0       0       0       0       0       0       0       0       0       0
  1857 ;;      Temps:          0       4       0       0       0       0       0       0       0       0       0       0       
      +0       0       0       0       0       0       0       0       0       0       0       0       0       0       0       
      +0       0       0       0       0       0       0       0       0       0       0       0       0       0       0       
      +0       0       0       0       0       0       0       0       0       0
  1858 ;;      Totals:         0      14       0       0       0       0       0       0       0       0       0       0       
      +0       0       0       0       0       0       0       0       0       0       0       0       0       0       0       
      +0       0       0       0       0       0       0       0       0       0       0       0       0       0       0       
      +0       0       0       0       0       0       0       0       0       0
  1859 ;;Total ram usage:       14 bytes
  1860 ;; Hardware stack levels used:    1
  1861 ;; Hardware stack levels required when called:    1
  1862 ;; This function calls:
  1863 ;;		Nothing
  1864 ;; This function is called by:
  1865 ;;		_geterror
  1866 ;; This function uses a non-reentrant model
  1867 ;;
  1868                           
  1869                           
  1870                           ;psect for function ___fttol
  1871  04CB                     ___fttol:	
  1872                           
  1873                           ;incstack = 0
  1874                           ; Regs used in ___fttol: [wreg+status,2+status,0]
  1875  04CB  0140               	movlb	0	; select bank0
  1876  04CC  0849               	movf	___fttol@f1,w
  1877  04CD  00CD               	movwf	??___fttol
  1878  04CE  084A               	movf	___fttol@f1+1,w
  1879  04CF  00CE               	movwf	??___fttol+1
  1880  04D0  084B               	movf	___fttol@f1+2,w
  1881  04D1  00CF               	movwf	??___fttol+2
  1882  04D2  1003               	clrc
  1883  04D3  0D4E               	rlf	??___fttol+1,w
  1884  04D4  0D4F               	rlf	??___fttol+2,w
  1885  04D5  00D0               	movwf	??___fttol+3
  1886  04D6  0850               	movf	??___fttol+3,w
  1887  04D7  00D6               	movwf	___fttol@exp1
  1888  04D8  0856               	movf	___fttol@exp1,w
  1889  04D9  1D03               	btfss	3,2
  1890  04DA  2CE4               	goto	l1117
  1891  04DB  3000               	movlw	0
  1892  04DC  00CC               	movwf	?___fttol+3
  1893  04DD  3000               	movlw	0
  1894  04DE  00CB               	movwf	?___fttol+2
  1895  04DF  3000               	movlw	0
  1896  04E0  00CA               	movwf	?___fttol+1
  1897  04E1  3000               	movlw	0
  1898  04E2  00C9               	movwf	?___fttol
  1899  04E3  0008               	return
  1900  04E4                     l1117:	
  1901  04E4  0849               	movf	___fttol@f1,w
  1902  04E5  00CD               	movwf	??___fttol
  1903  04E6  084A               	movf	___fttol@f1+1,w
  1904  04E7  00CE               	movwf	??___fttol+1
  1905  04E8  084B               	movf	___fttol@f1+2,w
  1906  04E9  00CF               	movwf	??___fttol+2
  1907  04EA  3017               	movlw	23
  1908  04EB                     u1345:	
  1909  04EB  36CF               	lsrf	??___fttol+2,f
  1910  04EC  0CCE               	rrf	??___fttol+1,f
  1911  04ED  0CCD               	rrf	??___fttol,f
  1912  04EE  0B89               	decfsz	9,f
  1913  04EF  2CEB               	goto	u1345
  1914  04F0  084D               	movf	??___fttol,w
  1915  04F1  00D0               	movwf	??___fttol+3
  1916  04F2  0850               	movf	??___fttol+3,w
  1917  04F3  00D1               	movwf	___fttol@sign1
  1918  04F4  17CA               	bsf	___fttol@f1+1,7
  1919  04F5  30FF               	movlw	255
  1920  04F6  05C9               	andwf	___fttol@f1,f
  1921  04F7  30FF               	movlw	255
  1922  04F8  05CA               	andwf	___fttol@f1+1,f
  1923  04F9  3000               	movlw	0
  1924  04FA  05CB               	andwf	___fttol@f1+2,f
  1925  04FB  0849               	movf	___fttol@f1,w
  1926  04FC  00D2               	movwf	___fttol@lval
  1927  04FD  084A               	movf	___fttol@f1+1,w
  1928  04FE  00D3               	movwf	___fttol@lval+1
  1929  04FF  084B               	movf	___fttol@f1+2,w
  1930  0500  00D4               	movwf	___fttol@lval+2
  1931  0501  01D5               	clrf	___fttol@lval+3
  1932  0502  308E               	movlw	142
  1933  0503  02D6               	subwf	___fttol@exp1,f
  1934  0504  1FD6               	btfss	___fttol@exp1,7
  1935  0505  2D22               	goto	l1137
  1936  0506  0856               	movf	___fttol@exp1,w
  1937  0507  3A80               	xorlw	128
  1938  0508  3E8F               	addlw	143
  1939  0509  1803               	skipnc
  1940  050A  2D14               	goto	l1135
  1941  050B  3000               	movlw	0
  1942  050C  00CC               	movwf	?___fttol+3
  1943  050D  3000               	movlw	0
  1944  050E  00CB               	movwf	?___fttol+2
  1945  050F  3000               	movlw	0
  1946  0510  00CA               	movwf	?___fttol+1
  1947  0511  3000               	movlw	0
  1948  0512  00C9               	movwf	?___fttol
  1949  0513  0008               	return
  1950  0514                     l1135:	
  1951  0514  3001               	movlw	1
  1952  0515                     u1375:	
  1953  0515  36D5               	lsrf	___fttol@lval+3,f
  1954  0516  0CD4               	rrf	___fttol@lval+2,f
  1955  0517  0CD3               	rrf	___fttol@lval+1,f
  1956  0518  0CD2               	rrf	___fttol@lval,f
  1957  0519  0B89               	decfsz	9,f
  1958  051A  2D15               	goto	u1375
  1959  051B  3001               	movlw	1
  1960  051C  00CD               	movwf	??___fttol
  1961  051D  084D               	movf	??___fttol,w
  1962  051E  07D6               	addwf	___fttol@exp1,f
  1963  051F  1903               	btfsc	3,2
  1964  0520  2D3B               	goto	l1145
  1965  0521  2D14               	goto	l1135
  1966  0522                     l1137:	
  1967  0522  3018               	movlw	24
  1968  0523  0256               	subwf	___fttol@exp1,w
  1969  0524  1C03               	skipc
  1970  0525  2D38               	goto	l435
  1971  0526  3000               	movlw	0
  1972  0527  00CC               	movwf	?___fttol+3
  1973  0528  3000               	movlw	0
  1974  0529  00CB               	movwf	?___fttol+2
  1975  052A  3000               	movlw	0
  1976  052B  00CA               	movwf	?___fttol+1
  1977  052C  3000               	movlw	0
  1978  052D  00C9               	movwf	?___fttol
  1979  052E  0008               	return
  1980  052F                     l1143:	
  1981  052F  3001               	movlw	1
  1982  0530                     u1405:	
  1983  0530  35D2               	lslf	___fttol@lval,f
  1984  0531  0DD3               	rlf	___fttol@lval+1,f
  1985  0532  0DD4               	rlf	___fttol@lval+2,f
  1986  0533  0DD5               	rlf	___fttol@lval+3,f
  1987  0534  0B89               	decfsz	9,f
  1988  0535  2D30               	goto	u1405
  1989  0536  3001               	movlw	1
  1990  0537  02D6               	subwf	___fttol@exp1,f
  1991  0538                     l435:	
  1992  0538  0856               	movf	___fttol@exp1,w
  1993  0539  1D03               	btfss	3,2
  1994  053A  2D2F               	goto	l1143
  1995  053B                     l1145:	
  1996  053B  0851               	movf	___fttol@sign1,w
  1997  053C  1903               	btfsc	3,2
  1998  053D  2D49               	goto	l1149
  1999  053E  09D2               	comf	___fttol@lval,f
  2000  053F  09D3               	comf	___fttol@lval+1,f
  2001  0540  09D4               	comf	___fttol@lval+2,f
  2002  0541  09D5               	comf	___fttol@lval+3,f
  2003  0542  0AD2               	incf	___fttol@lval,f
  2004  0543  1903               	skipnz
  2005  0544  0AD3               	incf	___fttol@lval+1,f
  2006  0545  1903               	skipnz
  2007  0546  0AD4               	incf	___fttol@lval+2,f
  2008  0547  1903               	skipnz
  2009  0548  0AD5               	incf	___fttol@lval+3,f
  2010  0549                     l1149:	
  2011  0549  0855               	movf	___fttol@lval+3,w
  2012  054A  00CC               	movwf	?___fttol+3
  2013  054B  0854               	movf	___fttol@lval+2,w
  2014  054C  00CB               	movwf	?___fttol+2
  2015  054D  0853               	movf	___fttol@lval+1,w
  2016  054E  00CA               	movwf	?___fttol+1
  2017  054F  0852               	movf	___fttol@lval,w
  2018  0550  00C9               	movwf	?___fttol
  2019  0551  0008               	return
  2020  0552                     __end_of___fttol:	
  2021                           
  2022                           	psect	text4
  2023  036E                     __ptext4:	
  2024 ;; *************** function ___ftmul *****************
  2025 ;; Defined at:
  2026 ;;		line 62 in file "C:\Program Files (x86)\Microchip\xc8\v1.45\sources\common\ftmul.c"
  2027 ;; Parameters:    Size  Location     Type
  2028 ;;  f1              3    0[BANK0 ] float 
  2029 ;;  f2              3    3[BANK0 ] float 
  2030 ;; Auto vars:     Size  Location     Type
  2031 ;;  f3_as_produc    3    7[BANK0 ] unsigned um
  2032 ;;  sign            1   11[BANK0 ] unsigned char 
  2033 ;;  cntr            1   10[BANK0 ] unsigned char 
  2034 ;;  exp             1    6[BANK0 ] unsigned char 
  2035 ;; Return value:  Size  Location     Type
  2036 ;;                  3    0[BANK0 ] float 
  2037 ;; Registers used:
  2038 ;;		wreg, status,2, status,0, pclath, cstack
  2039 ;; Tracked objects:
  2040 ;;		On entry : 0/0
  2041 ;;		On exit  : 0/0
  2042 ;;		Unchanged: 0/0
  2043 ;; Data sizes:     COMMON   BANK0   BANK1   BANK2   BANK3   BANK4   BANK5   BANK6   BANK7   BANK8   BANK9  BANK10  BANK1
      +1  BANK12  BANK13  BANK14  BANK15  BANK16  BANK17  BANK18  BANK19  BANK20  BANK21  BANK22  BANK23  BANK24  BANK25  BANK2
      +6  BANK27  BANK28  BANK29  BANK30  BANK31  BANK32  BANK33  BANK34  BANK35  BANK36  BANK37  BANK38  BANK39  BANK40  BANK4
      +1  BANK42  BANK43  BANK44  BANK45  BANK46  BANK47  BANK48  BANK49  BANK50
  2044 ;;      Params:         0       6       0       0       0       0       0       0       0       0       0       0       
      +0       0       0       0       0       0       0       0       0       0       0       0       0       0       0       
      +0       0       0       0       0       0       0       0       0       0       0       0       0       0       0       
      +0       0       0       0       0       0       0       0       0       0
  2045 ;;      Locals:         0       6       0       0       0       0       0       0       0       0       0       0       
      +0       0       0       0       0       0       0       0       0       0       0       0       0       0       0       
      +0       0       0       0       0       0       0       0       0       0       0       0       0       0       0       
      +0       0       0       0       0       0       0       0       0       0
  2046 ;;      Temps:          4       0       0       0       0       0       0       0       0       0       0       0       
      +0       0       0       0       0       0       0       0       0       0       0       0       0       0       0       
      +0       0       0       0       0       0       0       0       0       0       0       0       0       0       0       
      +0       0       0       0       0       0       0       0       0       0
  2047 ;;      Totals:         4      12       0       0       0       0       0       0       0       0       0       0       
      +0       0       0       0       0       0       0       0       0       0       0       0       0       0       0       
      +0       0       0       0       0       0       0       0       0       0       0       0       0       0       0       
      +0       0       0       0       0       0       0       0       0       0
  2048 ;;Total ram usage:       16 bytes
  2049 ;; Hardware stack levels used:    1
  2050 ;; Hardware stack levels required when called:    2
  2051 ;; This function calls:
  2052 ;;		___ftpack
  2053 ;; This function is called by:
  2054 ;;		_geterror
  2055 ;; This function uses a non-reentrant model
  2056 ;;
  2057                           
  2058                           
  2059                           ;psect for function ___ftmul
  2060  036E                     ___ftmul:	
  2061                           
  2062                           ;incstack = 0
  2063                           ; Regs used in ___ftmul: [wreg+status,2+status,0+pclath+cstack]
  2064  036E  0140               	movlb	0	; select bank0
  2065  036F  0820               	movf	___ftmul@f1,w
  2066  0370  00F9               	movwf	??___ftmul
  2067  0371  0821               	movf	___ftmul@f1+1,w
  2068  0372  00FA               	movwf	??___ftmul+1
  2069  0373  0822               	movf	___ftmul@f1+2,w
  2070  0374  00FB               	movwf	??___ftmul+2
  2071  0375  1003               	clrc
  2072  0376  0D7A               	rlf	??___ftmul+1,w
  2073  0377  0D7B               	rlf	??___ftmul+2,w
  2074  0378  00FC               	movwf	??___ftmul+3
  2075  0379  087C               	movf	??___ftmul+3,w
  2076  037A  00A6               	movwf	___ftmul@exp
  2077  037B  0826               	movf	___ftmul@exp,w
  2078  037C  1D03               	btfss	3,2
  2079  037D  2B85               	goto	l1067
  2080  037E  3000               	movlw	0
  2081  037F  00A0               	movwf	?___ftmul
  2082  0380  3000               	movlw	0
  2083  0381  00A1               	movwf	?___ftmul+1
  2084  0382  3000               	movlw	0
  2085  0383  00A2               	movwf	?___ftmul+2
  2086  0384  0008               	return
  2087  0385                     l1067:	
  2088  0385  0823               	movf	___ftmul@f2,w
  2089  0386  00F9               	movwf	??___ftmul
  2090  0387  0824               	movf	___ftmul@f2+1,w
  2091  0388  00FA               	movwf	??___ftmul+1
  2092  0389  0825               	movf	___ftmul@f2+2,w
  2093  038A  00FB               	movwf	??___ftmul+2
  2094  038B  1003               	clrc
  2095  038C  0D7A               	rlf	??___ftmul+1,w
  2096  038D  0D7B               	rlf	??___ftmul+2,w
  2097  038E  00FC               	movwf	??___ftmul+3
  2098  038F  087C               	movf	??___ftmul+3,w
  2099  0390  00AB               	movwf	___ftmul@sign
  2100  0391  082B               	movf	___ftmul@sign,w
  2101  0392  1D03               	btfss	3,2
  2102  0393  2B9B               	goto	l1073
  2103  0394  3000               	movlw	0
  2104  0395  00A0               	movwf	?___ftmul
  2105  0396  3000               	movlw	0
  2106  0397  00A1               	movwf	?___ftmul+1
  2107  0398  3000               	movlw	0
  2108  0399  00A2               	movwf	?___ftmul+2
  2109  039A  0008               	return
  2110  039B                     l1073:	
  2111  039B  082B               	movf	___ftmul@sign,w
  2112  039C  3E7B               	addlw	123
  2113  039D  00F9               	movwf	??___ftmul
  2114  039E  0879               	movf	??___ftmul,w
  2115  039F  07A6               	addwf	___ftmul@exp,f
  2116  03A0  0820               	movf	___ftmul@f1,w
  2117  03A1  00F9               	movwf	??___ftmul
  2118  03A2  0821               	movf	___ftmul@f1+1,w
  2119  03A3  00FA               	movwf	??___ftmul+1
  2120  03A4  0822               	movf	___ftmul@f1+2,w
  2121  03A5  00FB               	movwf	??___ftmul+2
  2122  03A6  3010               	movlw	16
  2123  03A7                     u1235:	
  2124  03A7  36FB               	lsrf	??___ftmul+2,f
  2125  03A8  0CFA               	rrf	??___ftmul+1,f
  2126  03A9  0CF9               	rrf	??___ftmul,f
  2127  03AA  0B89               	decfsz	9,f
  2128  03AB  2BA7               	goto	u1235
  2129  03AC  0879               	movf	??___ftmul,w
  2130  03AD  00FC               	movwf	??___ftmul+3
  2131  03AE  087C               	movf	??___ftmul+3,w
  2132  03AF  00AB               	movwf	___ftmul@sign
  2133  03B0  0823               	movf	___ftmul@f2,w
  2134  03B1  00F9               	movwf	??___ftmul
  2135  03B2  0824               	movf	___ftmul@f2+1,w
  2136  03B3  00FA               	movwf	??___ftmul+1
  2137  03B4  0825               	movf	___ftmul@f2+2,w
  2138  03B5  00FB               	movwf	??___ftmul+2
  2139  03B6  3010               	movlw	16
  2140  03B7                     u1245:	
  2141  03B7  36FB               	lsrf	??___ftmul+2,f
  2142  03B8  0CFA               	rrf	??___ftmul+1,f
  2143  03B9  0CF9               	rrf	??___ftmul,f
  2144  03BA  0B89               	decfsz	9,f
  2145  03BB  2BB7               	goto	u1245
  2146  03BC  0879               	movf	??___ftmul,w
  2147  03BD  00FC               	movwf	??___ftmul+3
  2148  03BE  087C               	movf	??___ftmul+3,w
  2149  03BF  06AB               	xorwf	___ftmul@sign,f
  2150  03C0  3080               	movlw	128
  2151  03C1  00F9               	movwf	??___ftmul
  2152  03C2  0879               	movf	??___ftmul,w
  2153  03C3  05AB               	andwf	___ftmul@sign,f
  2154  03C4  17A1               	bsf	___ftmul@f1+1,7
  2155  03C5  17A4               	bsf	___ftmul@f2+1,7
  2156  03C6  30FF               	movlw	255
  2157  03C7  05A3               	andwf	___ftmul@f2,f
  2158  03C8  30FF               	movlw	255
  2159  03C9  05A4               	andwf	___ftmul@f2+1,f
  2160  03CA  3000               	movlw	0
  2161  03CB  05A5               	andwf	___ftmul@f2+2,f
  2162  03CC  3000               	movlw	0
  2163  03CD  00A7               	movwf	___ftmul@f3_as_product
  2164  03CE  3000               	movlw	0
  2165  03CF  00A8               	movwf	___ftmul@f3_as_product+1
  2166  03D0  3000               	movlw	0
  2167  03D1  00A9               	movwf	___ftmul@f3_as_product+2
  2168  03D2  3007               	movlw	7
  2169  03D3  00F9               	movwf	??___ftmul
  2170  03D4  0879               	movf	??___ftmul,w
  2171  03D5  00AA               	movwf	___ftmul@cntr
  2172  03D6                     l1085:	
  2173  03D6  1C20               	btfss	___ftmul@f1,0
  2174  03D7  2BDE               	goto	l1089
  2175  03D8  0823               	movf	___ftmul@f2,w
  2176  03D9  07A7               	addwf	___ftmul@f3_as_product,f
  2177  03DA  0824               	movf	___ftmul@f2+1,w
  2178  03DB  3DA8               	addwfc	___ftmul@f3_as_product+1,f
  2179  03DC  0825               	movf	___ftmul@f2+2,w
  2180  03DD  3DA9               	addwfc	___ftmul@f3_as_product+2,f
  2181  03DE                     l1089:	
  2182  03DE  3001               	movlw	1
  2183  03DF                     u1265:	
  2184  03DF  36A2               	lsrf	___ftmul@f1+2,f
  2185  03E0  0CA1               	rrf	___ftmul@f1+1,f
  2186  03E1  0CA0               	rrf	___ftmul@f1,f
  2187  03E2  0B89               	decfsz	9,f
  2188  03E3  2BDF               	goto	u1265
  2189  03E4  3001               	movlw	1
  2190  03E5                     u1275:	
  2191  03E5  35A3               	lslf	___ftmul@f2,f
  2192  03E6  0DA4               	rlf	___ftmul@f2+1,f
  2193  03E7  0DA5               	rlf	___ftmul@f2+2,f
  2194  03E8  0B89               	decfsz	9,f
  2195  03E9  2BE5               	goto	u1275
  2196  03EA  3001               	movlw	1
  2197  03EB  02AA               	subwf	___ftmul@cntr,f
  2198  03EC  1D03               	btfss	3,2
  2199  03ED  2BD6               	goto	l1085
  2200  03EE  3009               	movlw	9
  2201  03EF  00F9               	movwf	??___ftmul
  2202  03F0  0879               	movf	??___ftmul,w
  2203  03F1  00AA               	movwf	___ftmul@cntr
  2204  03F2                     l1097:	
  2205  03F2  1C20               	btfss	___ftmul@f1,0
  2206  03F3  2BFA               	goto	l1101
  2207  03F4  0823               	movf	___ftmul@f2,w
  2208  03F5  07A7               	addwf	___ftmul@f3_as_product,f
  2209  03F6  0824               	movf	___ftmul@f2+1,w
  2210  03F7  3DA8               	addwfc	___ftmul@f3_as_product+1,f
  2211  03F8  0825               	movf	___ftmul@f2+2,w
  2212  03F9  3DA9               	addwfc	___ftmul@f3_as_product+2,f
  2213  03FA                     l1101:	
  2214  03FA  3001               	movlw	1
  2215  03FB                     u1305:	
  2216  03FB  36A2               	lsrf	___ftmul@f1+2,f
  2217  03FC  0CA1               	rrf	___ftmul@f1+1,f
  2218  03FD  0CA0               	rrf	___ftmul@f1,f
  2219  03FE  0B89               	decfsz	9,f
  2220  03FF  2BFB               	goto	u1305
  2221  0400  3001               	movlw	1
  2222  0401                     u1315:	
  2223  0401  36A9               	lsrf	___ftmul@f3_as_product+2,f
  2224  0402  0CA8               	rrf	___ftmul@f3_as_product+1,f
  2225  0403  0CA7               	rrf	___ftmul@f3_as_product,f
  2226  0404  0B89               	decfsz	9,f
  2227  0405  2C01               	goto	u1315
  2228  0406  3001               	movlw	1
  2229  0407  02AA               	subwf	___ftmul@cntr,f
  2230  0408  1D03               	btfss	3,2
  2231  0409  2BF2               	goto	l1097
  2232  040A  0827               	movf	___ftmul@f3_as_product,w
  2233  040B  00F1               	movwf	___ftpack@arg
  2234  040C  0828               	movf	___ftmul@f3_as_product+1,w
  2235  040D  00F2               	movwf	___ftpack@arg+1
  2236  040E  0829               	movf	___ftmul@f3_as_product+2,w
  2237  040F  00F3               	movwf	___ftpack@arg+2
  2238  0410  0826               	movf	___ftmul@exp,w
  2239  0411  00F9               	movwf	??___ftmul
  2240  0412  0879               	movf	??___ftmul,w
  2241  0413  00F4               	movwf	___ftpack@exp
  2242  0414  082B               	movf	___ftmul@sign,w
  2243  0415  00FA               	movwf	??___ftmul+1
  2244  0416  087A               	movf	??___ftmul+1,w
  2245  0417  00F5               	movwf	___ftpack@sign
  2246  0418  3185  2552         	fcall	___ftpack
  2247  041A  0871               	movf	?___ftpack,w
  2248  041B  0140               	movlb	0	; select bank0
  2249  041C  00A0               	movwf	?___ftmul
  2250  041D  0872               	movf	?___ftpack+1,w
  2251  041E  00A1               	movwf	?___ftmul+1
  2252  041F  0873               	movf	?___ftpack+2,w
  2253  0420  00A2               	movwf	?___ftmul+2
  2254  0421  0008               	return
  2255  0422                     __end_of___ftmul:	
  2256                           
  2257                           	psect	text5
  2258  0422                     __ptext5:	
  2259 ;; *************** function ___ftdiv *****************
  2260 ;; Defined at:
  2261 ;;		line 56 in file "C:\Program Files (x86)\Microchip\xc8\v1.45\sources\common\ftdiv.c"
  2262 ;; Parameters:    Size  Location     Type
  2263 ;;  f2              3   25[BANK0 ] float 
  2264 ;;  f1              3   28[BANK0 ] float 
  2265 ;; Auto vars:     Size  Location     Type
  2266 ;;  f3              3   36[BANK0 ] float 
  2267 ;;  sign            1   40[BANK0 ] unsigned char 
  2268 ;;  exp             1   39[BANK0 ] unsigned char 
  2269 ;;  cntr            1   35[BANK0 ] unsigned char 
  2270 ;; Return value:  Size  Location     Type
  2271 ;;                  3   25[BANK0 ] float 
  2272 ;; Registers used:
  2273 ;;		wreg, status,2, status,0, pclath, cstack
  2274 ;; Tracked objects:
  2275 ;;		On entry : 0/0
  2276 ;;		On exit  : 0/0
  2277 ;;		Unchanged: 0/0
  2278 ;; Data sizes:     COMMON   BANK0   BANK1   BANK2   BANK3   BANK4   BANK5   BANK6   BANK7   BANK8   BANK9  BANK10  BANK1
      +1  BANK12  BANK13  BANK14  BANK15  BANK16  BANK17  BANK18  BANK19  BANK20  BANK21  BANK22  BANK23  BANK24  BANK25  BANK2
      +6  BANK27  BANK28  BANK29  BANK30  BANK31  BANK32  BANK33  BANK34  BANK35  BANK36  BANK37  BANK38  BANK39  BANK40  BANK4
      +1  BANK42  BANK43  BANK44  BANK45  BANK46  BANK47  BANK48  BANK49  BANK50
  2279 ;;      Params:         0       6       0       0       0       0       0       0       0       0       0       0       
      +0       0       0       0       0       0       0       0       0       0       0       0       0       0       0       
      +0       0       0       0       0       0       0       0       0       0       0       0       0       0       0       
      +0       0       0       0       0       0       0       0       0       0
  2280 ;;      Locals:         0       6       0       0       0       0       0       0       0       0       0       0       
      +0       0       0       0       0       0       0       0       0       0       0       0       0       0       0       
      +0       0       0       0       0       0       0       0       0       0       0       0       0       0       0       
      +0       0       0       0       0       0       0       0       0       0
  2281 ;;      Temps:          0       4       0       0       0       0       0       0       0       0       0       0       
      +0       0       0       0       0       0       0       0       0       0       0       0       0       0       0       
      +0       0       0       0       0       0       0       0       0       0       0       0       0       0       0       
      +0       0       0       0       0       0       0       0       0       0
  2282 ;;      Totals:         0      16       0       0       0       0       0       0       0       0       0       0       
      +0       0       0       0       0       0       0       0       0       0       0       0       0       0       0       
      +0       0       0       0       0       0       0       0       0       0       0       0       0       0       0       
      +0       0       0       0       0       0       0       0       0       0
  2283 ;;Total ram usage:       16 bytes
  2284 ;; Hardware stack levels used:    1
  2285 ;; Hardware stack levels required when called:    2
  2286 ;; This function calls:
  2287 ;;		___ftpack
  2288 ;; This function is called by:
  2289 ;;		_geterror
  2290 ;; This function uses a non-reentrant model
  2291 ;;
  2292                           
  2293                           
  2294                           ;psect for function ___ftdiv
  2295  0422                     ___ftdiv:	
  2296                           
  2297                           ;incstack = 0
  2298                           ; Regs used in ___ftdiv: [wreg+status,2+status,0+pclath+cstack]
  2299  0422  0140               	movlb	0	; select bank0
  2300  0423  083C               	movf	___ftdiv@f1,w
  2301  0424  00BF               	movwf	??___ftdiv
  2302  0425  083D               	movf	___ftdiv@f1+1,w
  2303  0426  00C0               	movwf	??___ftdiv+1
  2304  0427  083E               	movf	___ftdiv@f1+2,w
  2305  0428  00C1               	movwf	??___ftdiv+2
  2306  0429  1003               	clrc
  2307  042A  0D40               	rlf	??___ftdiv+1,w
  2308  042B  0D41               	rlf	??___ftdiv+2,w
  2309  042C  00C2               	movwf	??___ftdiv+3
  2310  042D  0842               	movf	??___ftdiv+3,w
  2311  042E  00C7               	movwf	___ftdiv@exp
  2312  042F  0847               	movf	___ftdiv@exp,w
  2313  0430  1D03               	btfss	3,2
  2314  0431  2C39               	goto	l1025
  2315  0432  3000               	movlw	0
  2316  0433  00B9               	movwf	?___ftdiv
  2317  0434  3000               	movlw	0
  2318  0435  00BA               	movwf	?___ftdiv+1
  2319  0436  3000               	movlw	0
  2320  0437  00BB               	movwf	?___ftdiv+2
  2321  0438  0008               	return
  2322  0439                     l1025:	
  2323  0439  0839               	movf	___ftdiv@f2,w
  2324  043A  00BF               	movwf	??___ftdiv
  2325  043B  083A               	movf	___ftdiv@f2+1,w
  2326  043C  00C0               	movwf	??___ftdiv+1
  2327  043D  083B               	movf	___ftdiv@f2+2,w
  2328  043E  00C1               	movwf	??___ftdiv+2
  2329  043F  1003               	clrc
  2330  0440  0D40               	rlf	??___ftdiv+1,w
  2331  0441  0D41               	rlf	??___ftdiv+2,w
  2332  0442  00C2               	movwf	??___ftdiv+3
  2333  0443  0842               	movf	??___ftdiv+3,w
  2334  0444  00C8               	movwf	___ftdiv@sign
  2335  0445  0848               	movf	___ftdiv@sign,w
  2336  0446  1D03               	btfss	3,2
  2337  0447  2C4F               	goto	l1031
  2338  0448  3000               	movlw	0
  2339  0449  00B9               	movwf	?___ftdiv
  2340  044A  3000               	movlw	0
  2341  044B  00BA               	movwf	?___ftdiv+1
  2342  044C  3000               	movlw	0
  2343  044D  00BB               	movwf	?___ftdiv+2
  2344  044E  0008               	return
  2345  044F                     l1031:	
  2346  044F  3000               	movlw	0
  2347  0450  00C4               	movwf	___ftdiv@f3
  2348  0451  3000               	movlw	0
  2349  0452  00C5               	movwf	___ftdiv@f3+1
  2350  0453  3000               	movlw	0
  2351  0454  00C6               	movwf	___ftdiv@f3+2
  2352  0455  3089               	movlw	137
  2353  0456  0748               	addwf	___ftdiv@sign,w
  2354  0457  00BF               	movwf	??___ftdiv
  2355  0458  083F               	movf	??___ftdiv,w
  2356  0459  02C7               	subwf	___ftdiv@exp,f
  2357  045A  083C               	movf	___ftdiv@f1,w
  2358  045B  00BF               	movwf	??___ftdiv
  2359  045C  083D               	movf	___ftdiv@f1+1,w
  2360  045D  00C0               	movwf	??___ftdiv+1
  2361  045E  083E               	movf	___ftdiv@f1+2,w
  2362  045F  00C1               	movwf	??___ftdiv+2
  2363  0460  3010               	movlw	16
  2364  0461                     u1155:	
  2365  0461  36C1               	lsrf	??___ftdiv+2,f
  2366  0462  0CC0               	rrf	??___ftdiv+1,f
  2367  0463  0CBF               	rrf	??___ftdiv,f
  2368  0464  0B89               	decfsz	9,f
  2369  0465  2C61               	goto	u1155
  2370  0466  083F               	movf	??___ftdiv,w
  2371  0467  00C2               	movwf	??___ftdiv+3
  2372  0468  0842               	movf	??___ftdiv+3,w
  2373  0469  00C8               	movwf	___ftdiv@sign
  2374  046A  0839               	movf	___ftdiv@f2,w
  2375  046B  00BF               	movwf	??___ftdiv
  2376  046C  083A               	movf	___ftdiv@f2+1,w
  2377  046D  00C0               	movwf	??___ftdiv+1
  2378  046E  083B               	movf	___ftdiv@f2+2,w
  2379  046F  00C1               	movwf	??___ftdiv+2
  2380  0470  3010               	movlw	16
  2381  0471                     u1165:	
  2382  0471  36C1               	lsrf	??___ftdiv+2,f
  2383  0472  0CC0               	rrf	??___ftdiv+1,f
  2384  0473  0CBF               	rrf	??___ftdiv,f
  2385  0474  0B89               	decfsz	9,f
  2386  0475  2C71               	goto	u1165
  2387  0476  083F               	movf	??___ftdiv,w
  2388  0477  00C2               	movwf	??___ftdiv+3
  2389  0478  0842               	movf	??___ftdiv+3,w
  2390  0479  06C8               	xorwf	___ftdiv@sign,f
  2391  047A  3080               	movlw	128
  2392  047B  00BF               	movwf	??___ftdiv
  2393  047C  083F               	movf	??___ftdiv,w
  2394  047D  05C8               	andwf	___ftdiv@sign,f
  2395  047E  17BD               	bsf	___ftdiv@f1+1,7
  2396  047F  30FF               	movlw	255
  2397  0480  05BC               	andwf	___ftdiv@f1,f
  2398  0481  30FF               	movlw	255
  2399  0482  05BD               	andwf	___ftdiv@f1+1,f
  2400  0483  3000               	movlw	0
  2401  0484  05BE               	andwf	___ftdiv@f1+2,f
  2402  0485  17BA               	bsf	___ftdiv@f2+1,7
  2403  0486  30FF               	movlw	255
  2404  0487  05B9               	andwf	___ftdiv@f2,f
  2405  0488  30FF               	movlw	255
  2406  0489  05BA               	andwf	___ftdiv@f2+1,f
  2407  048A  3000               	movlw	0
  2408  048B  05BB               	andwf	___ftdiv@f2+2,f
  2409  048C  3018               	movlw	24
  2410  048D  00BF               	movwf	??___ftdiv
  2411  048E  083F               	movf	??___ftdiv,w
  2412  048F  00C3               	movwf	___ftdiv@cntr
  2413  0490                     l1045:	
  2414  0490  3001               	movlw	1
  2415  0491                     u1175:	
  2416  0491  35C4               	lslf	___ftdiv@f3,f
  2417  0492  0DC5               	rlf	___ftdiv@f3+1,f
  2418  0493  0DC6               	rlf	___ftdiv@f3+2,f
  2419  0494  0B89               	decfsz	9,f
  2420  0495  2C91               	goto	u1175
  2421  0496  083B               	movf	___ftdiv@f2+2,w
  2422  0497  023E               	subwf	___ftdiv@f1+2,w
  2423  0498  1D03               	skipz
  2424  0499  2CA0               	goto	u1185
  2425  049A  083A               	movf	___ftdiv@f2+1,w
  2426  049B  023D               	subwf	___ftdiv@f1+1,w
  2427  049C  1D03               	skipz
  2428  049D  2CA0               	goto	u1185
  2429  049E  0839               	movf	___ftdiv@f2,w
  2430  049F  023C               	subwf	___ftdiv@f1,w
  2431  04A0                     u1185:	
  2432  04A0  1C03               	skipc
  2433  04A1  2CA9               	goto	l1053
  2434  04A2  0839               	movf	___ftdiv@f2,w
  2435  04A3  02BC               	subwf	___ftdiv@f1,f
  2436  04A4  083A               	movf	___ftdiv@f2+1,w
  2437  04A5  3BBD               	subwfb	___ftdiv@f1+1,f
  2438  04A6  083B               	movf	___ftdiv@f2+2,w
  2439  04A7  3BBE               	subwfb	___ftdiv@f1+2,f
  2440  04A8  1444               	bsf	___ftdiv@f3,0
  2441  04A9                     l1053:	
  2442  04A9  3001               	movlw	1
  2443  04AA                     u1195:	
  2444  04AA  35BC               	lslf	___ftdiv@f1,f
  2445  04AB  0DBD               	rlf	___ftdiv@f1+1,f
  2446  04AC  0DBE               	rlf	___ftdiv@f1+2,f
  2447  04AD  0B89               	decfsz	9,f
  2448  04AE  2CAA               	goto	u1195
  2449  04AF  3001               	movlw	1
  2450  04B0  02C3               	subwf	___ftdiv@cntr,f
  2451  04B1  1D03               	btfss	3,2
  2452  04B2  2C90               	goto	l1045
  2453  04B3  0844               	movf	___ftdiv@f3,w
  2454  04B4  00F1               	movwf	___ftpack@arg
  2455  04B5  0845               	movf	___ftdiv@f3+1,w
  2456  04B6  00F2               	movwf	___ftpack@arg+1
  2457  04B7  0846               	movf	___ftdiv@f3+2,w
  2458  04B8  00F3               	movwf	___ftpack@arg+2
  2459  04B9  0847               	movf	___ftdiv@exp,w
  2460  04BA  00BF               	movwf	??___ftdiv
  2461  04BB  083F               	movf	??___ftdiv,w
  2462  04BC  00F4               	movwf	___ftpack@exp
  2463  04BD  0848               	movf	___ftdiv@sign,w
  2464  04BE  00C0               	movwf	??___ftdiv+1
  2465  04BF  0840               	movf	??___ftdiv+1,w
  2466  04C0  00F5               	movwf	___ftpack@sign
  2467  04C1  3185  2552         	fcall	___ftpack
  2468  04C3  0871               	movf	?___ftpack,w
  2469  04C4  0140               	movlb	0	; select bank0
  2470  04C5  00B9               	movwf	?___ftdiv
  2471  04C6  0872               	movf	?___ftpack+1,w
  2472  04C7  00BA               	movwf	?___ftdiv+1
  2473  04C8  0873               	movf	?___ftpack+2,w
  2474  04C9  00BB               	movwf	?___ftdiv+2
  2475  04CA  0008               	return
  2476  04CB                     __end_of___ftdiv:	
  2477                           
  2478                           	psect	text6
  2479  0278                     __ptext6:	
  2480 ;; *************** function ___ftadd *****************
  2481 ;; Defined at:
  2482 ;;		line 86 in file "C:\Program Files (x86)\Microchip\xc8\v1.45\sources\common\ftadd.c"
  2483 ;; Parameters:    Size  Location     Type
  2484 ;;  f1              3   12[BANK0 ] float 
  2485 ;;  f2              3   15[BANK0 ] float 
  2486 ;; Auto vars:     Size  Location     Type
  2487 ;;  exp1            1   24[BANK0 ] unsigned char 
  2488 ;;  exp2            1   23[BANK0 ] unsigned char 
  2489 ;;  sign            1   22[BANK0 ] unsigned char 
  2490 ;; Return value:  Size  Location     Type
  2491 ;;                  3   12[BANK0 ] float 
  2492 ;; Registers used:
  2493 ;;		wreg, status,2, status,0, pclath, cstack
  2494 ;; Tracked objects:
  2495 ;;		On entry : 0/0
  2496 ;;		On exit  : 0/0
  2497 ;;		Unchanged: 0/0
  2498 ;; Data sizes:     COMMON   BANK0   BANK1   BANK2   BANK3   BANK4   BANK5   BANK6   BANK7   BANK8   BANK9  BANK10  BANK1
      +1  BANK12  BANK13  BANK14  BANK15  BANK16  BANK17  BANK18  BANK19  BANK20  BANK21  BANK22  BANK23  BANK24  BANK25  BANK2
      +6  BANK27  BANK28  BANK29  BANK30  BANK31  BANK32  BANK33  BANK34  BANK35  BANK36  BANK37  BANK38  BANK39  BANK40  BANK4
      +1  BANK42  BANK43  BANK44  BANK45  BANK46  BANK47  BANK48  BANK49  BANK50
  2499 ;;      Params:         0       6       0       0       0       0       0       0       0       0       0       0       
      +0       0       0       0       0       0       0       0       0       0       0       0       0       0       0       
      +0       0       0       0       0       0       0       0       0       0       0       0       0       0       0       
      +0       0       0       0       0       0       0       0       0       0
  2500 ;;      Locals:         0       3       0       0       0       0       0       0       0       0       0       0       
      +0       0       0       0       0       0       0       0       0       0       0       0       0       0       0       
      +0       0       0       0       0       0       0       0       0       0       0       0       0       0       0       
      +0       0       0       0       0       0       0       0       0       0
  2501 ;;      Temps:          0       4       0       0       0       0       0       0       0       0       0       0       
      +0       0       0       0       0       0       0       0       0       0       0       0       0       0       0       
      +0       0       0       0       0       0       0       0       0       0       0       0       0       0       0       
      +0       0       0       0       0       0       0       0       0       0
  2502 ;;      Totals:         0      13       0       0       0       0       0       0       0       0       0       0       
      +0       0       0       0       0       0       0       0       0       0       0       0       0       0       0       
      +0       0       0       0       0       0       0       0       0       0       0       0       0       0       0       
      +0       0       0       0       0       0       0       0       0       0
  2503 ;;Total ram usage:       13 bytes
  2504 ;; Hardware stack levels used:    1
  2505 ;; Hardware stack levels required when called:    2
  2506 ;; This function calls:
  2507 ;;		___ftpack
  2508 ;; This function is called by:
  2509 ;;		_geterror
  2510 ;; This function uses a non-reentrant model
  2511 ;;
  2512                           
  2513                           
  2514                           ;psect for function ___ftadd
  2515  0278                     ___ftadd:	
  2516                           
  2517                           ;incstack = 0
  2518                           ; Regs used in ___ftadd: [wreg+status,2+status,0+pclath+cstack]
  2519  0278  0140               	movlb	0	; select bank0
  2520  0279  082C               	movf	___ftadd@f1,w
  2521  027A  00B2               	movwf	??___ftadd
  2522  027B  082D               	movf	___ftadd@f1+1,w
  2523  027C  00B3               	movwf	??___ftadd+1
  2524  027D  082E               	movf	___ftadd@f1+2,w
  2525  027E  00B4               	movwf	??___ftadd+2
  2526  027F  1003               	clrc
  2527  0280  0D33               	rlf	??___ftadd+1,w
  2528  0281  0D34               	rlf	??___ftadd+2,w
  2529  0282  00B5               	movwf	??___ftadd+3
  2530  0283  0835               	movf	??___ftadd+3,w
  2531  0284  00B8               	movwf	___ftadd@exp1
  2532  0285  082F               	movf	___ftadd@f2,w
  2533  0286  00B2               	movwf	??___ftadd
  2534  0287  0830               	movf	___ftadd@f2+1,w
  2535  0288  00B3               	movwf	??___ftadd+1
  2536  0289  0831               	movf	___ftadd@f2+2,w
  2537  028A  00B4               	movwf	??___ftadd+2
  2538  028B  1003               	clrc
  2539  028C  0D33               	rlf	??___ftadd+1,w
  2540  028D  0D34               	rlf	??___ftadd+2,w
  2541  028E  00B5               	movwf	??___ftadd+3
  2542  028F  0835               	movf	??___ftadd+3,w
  2543  0290  00B7               	movwf	___ftadd@exp2
  2544  0291  0838               	movf	___ftadd@exp1,w
  2545  0292  1903               	btfsc	3,2
  2546  0293  2AA0               	goto	l955
  2547  0294  0837               	movf	___ftadd@exp2,w
  2548  0295  0238               	subwf	___ftadd@exp1,w
  2549  0296  1803               	skipnc
  2550  0297  2AA7               	goto	l959
  2551  0298  0338               	decf	___ftadd@exp1,w
  2552  0299  3AFF               	xorlw	255
  2553  029A  0737               	addwf	___ftadd@exp2,w
  2554  029B  00B2               	movwf	??___ftadd
  2555  029C  3019               	movlw	25
  2556  029D  0232               	subwf	??___ftadd,w
  2557  029E  1C03               	skipc
  2558  029F  2AA7               	goto	l959
  2559  02A0                     l955:	
  2560  02A0  082F               	movf	___ftadd@f2,w
  2561  02A1  00AC               	movwf	?___ftadd
  2562  02A2  0830               	movf	___ftadd@f2+1,w
  2563  02A3  00AD               	movwf	?___ftadd+1
  2564  02A4  0831               	movf	___ftadd@f2+2,w
  2565  02A5  00AE               	movwf	?___ftadd+2
  2566  02A6  0008               	return
  2567  02A7                     l959:	
  2568  02A7  0837               	movf	___ftadd@exp2,w
  2569  02A8  1903               	btfsc	3,2
  2570  02A9  0008               	return
  2571  02AA  0838               	movf	___ftadd@exp1,w
  2572  02AB  0237               	subwf	___ftadd@exp2,w
  2573  02AC  1803               	skipnc
  2574  02AD  2AB6               	goto	l965
  2575  02AE  0337               	decf	___ftadd@exp2,w
  2576  02AF  3AFF               	xorlw	255
  2577  02B0  0738               	addwf	___ftadd@exp1,w
  2578  02B1  00B2               	movwf	??___ftadd
  2579  02B2  3019               	movlw	25
  2580  02B3  0232               	subwf	??___ftadd,w
  2581  02B4  1803               	btfsc	3,0
  2582  02B5  0008               	return
  2583  02B6                     l965:	
  2584  02B6  3006               	movlw	6
  2585  02B7  00B2               	movwf	??___ftadd
  2586  02B8  0832               	movf	??___ftadd,w
  2587  02B9  00B6               	movwf	___ftadd@sign
  2588  02BA  1BAE               	btfsc	___ftadd@f1+2,7
  2589  02BB  17B6               	bsf	___ftadd@sign,7
  2590  02BC  1BB1               	btfsc	___ftadd@f2+2,7
  2591  02BD  1736               	bsf	___ftadd@sign,6
  2592  02BE  17AD               	bsf	___ftadd@f1+1,7
  2593  02BF  30FF               	movlw	255
  2594  02C0  05AC               	andwf	___ftadd@f1,f
  2595  02C1  30FF               	movlw	255
  2596  02C2  05AD               	andwf	___ftadd@f1+1,f
  2597  02C3  3000               	movlw	0
  2598  02C4  05AE               	andwf	___ftadd@f1+2,f
  2599  02C5  17B0               	bsf	___ftadd@f2+1,7
  2600  02C6  30FF               	movlw	255
  2601  02C7  05AF               	andwf	___ftadd@f2,f
  2602  02C8  30FF               	movlw	255
  2603  02C9  05B0               	andwf	___ftadd@f2+1,f
  2604  02CA  3000               	movlw	0
  2605  02CB  05B1               	andwf	___ftadd@f2+2,f
  2606  02CC  0837               	movf	___ftadd@exp2,w
  2607  02CD  0238               	subwf	___ftadd@exp1,w
  2608  02CE  1803               	skipnc
  2609  02CF  2AF2               	goto	l987
  2610  02D0                     l977:	
  2611  02D0  3001               	movlw	1
  2612  02D1                     u995:	
  2613  02D1  35AF               	lslf	___ftadd@f2,f
  2614  02D2  0DB0               	rlf	___ftadd@f2+1,f
  2615  02D3  0DB1               	rlf	___ftadd@f2+2,f
  2616  02D4  0B89               	decfsz	9,f
  2617  02D5  2AD1               	goto	u995
  2618  02D6  3001               	movlw	1
  2619  02D7  02B7               	subwf	___ftadd@exp2,f
  2620  02D8  0837               	movf	___ftadd@exp2,w
  2621  02D9  0638               	xorwf	___ftadd@exp1,w
  2622  02DA  1903               	skipnz
  2623  02DB  2AED               	goto	l985
  2624  02DC  3001               	movlw	1
  2625  02DD  02B6               	subwf	___ftadd@sign,f
  2626  02DE  0836               	movf	___ftadd@sign,w
  2627  02DF  3907               	andlw	7
  2628  02E0  1903               	btfsc	3,2
  2629  02E1  2AED               	goto	l985
  2630  02E2  2AD0               	goto	l977
  2631  02E3                     l983:	
  2632  02E3  3001               	movlw	1
  2633  02E4                     u1025:	
  2634  02E4  36AE               	lsrf	___ftadd@f1+2,f
  2635  02E5  0CAD               	rrf	___ftadd@f1+1,f
  2636  02E6  0CAC               	rrf	___ftadd@f1,f
  2637  02E7  0B89               	decfsz	9,f
  2638  02E8  2AE4               	goto	u1025
  2639  02E9  3001               	movlw	1
  2640  02EA  00B2               	movwf	??___ftadd
  2641  02EB  0832               	movf	??___ftadd,w
  2642  02EC  07B8               	addwf	___ftadd@exp1,f
  2643  02ED                     l985:	
  2644  02ED  0838               	movf	___ftadd@exp1,w
  2645  02EE  0637               	xorwf	___ftadd@exp2,w
  2646  02EF  1903               	btfsc	3,2
  2647  02F0  2B17               	goto	l375
  2648  02F1  2AE3               	goto	l983
  2649  02F2                     l987:	
  2650  02F2  0838               	movf	___ftadd@exp1,w
  2651  02F3  0237               	subwf	___ftadd@exp2,w
  2652  02F4  1803               	skipnc
  2653  02F5  2B17               	goto	l375
  2654  02F6                     l989:	
  2655  02F6  3001               	movlw	1
  2656  02F7                     u1055:	
  2657  02F7  35AC               	lslf	___ftadd@f1,f
  2658  02F8  0DAD               	rlf	___ftadd@f1+1,f
  2659  02F9  0DAE               	rlf	___ftadd@f1+2,f
  2660  02FA  0B89               	decfsz	9,f
  2661  02FB  2AF7               	goto	u1055
  2662  02FC  3001               	movlw	1
  2663  02FD  02B8               	subwf	___ftadd@exp1,f
  2664  02FE  0837               	movf	___ftadd@exp2,w
  2665  02FF  0638               	xorwf	___ftadd@exp1,w
  2666  0300  1903               	skipnz
  2667  0301  2B13               	goto	l997
  2668  0302  3001               	movlw	1
  2669  0303  02B6               	subwf	___ftadd@sign,f
  2670  0304  0836               	movf	___ftadd@sign,w
  2671  0305  3907               	andlw	7
  2672  0306  1903               	btfsc	3,2
  2673  0307  2B13               	goto	l997
  2674  0308  2AF6               	goto	l989
  2675  0309                     l995:	
  2676  0309  3001               	movlw	1
  2677  030A                     u1085:	
  2678  030A  36B1               	lsrf	___ftadd@f2+2,f
  2679  030B  0CB0               	rrf	___ftadd@f2+1,f
  2680  030C  0CAF               	rrf	___ftadd@f2,f
  2681  030D  0B89               	decfsz	9,f
  2682  030E  2B0A               	goto	u1085
  2683  030F  3001               	movlw	1
  2684  0310  00B2               	movwf	??___ftadd
  2685  0311  0832               	movf	??___ftadd,w
  2686  0312  07B7               	addwf	___ftadd@exp2,f
  2687  0313                     l997:	
  2688  0313  0838               	movf	___ftadd@exp1,w
  2689  0314  0637               	xorwf	___ftadd@exp2,w
  2690  0315  1D03               	skipz
  2691  0316  2B09               	goto	l995
  2692  0317                     l375:	
  2693  0317  1FB6               	btfss	___ftadd@sign,7
  2694  0318  2B29               	goto	l1001
  2695  0319  30FF               	movlw	255
  2696  031A  06AC               	xorwf	___ftadd@f1,f
  2697  031B  30FF               	movlw	255
  2698  031C  06AD               	xorwf	___ftadd@f1+1,f
  2699  031D  30FF               	movlw	255
  2700  031E  06AE               	xorwf	___ftadd@f1+2,f
  2701  031F  3001               	movlw	1
  2702  0320  07AC               	addwf	___ftadd@f1,f
  2703  0321  3000               	movlw	0
  2704  0322  1803               	skipnc
  2705  0323  3001               	movlw	1
  2706  0324  07AD               	addwf	___ftadd@f1+1,f
  2707  0325  3000               	movlw	0
  2708  0326  1803               	skipnc
  2709  0327  3001               	movlw	1
  2710  0328  07AE               	addwf	___ftadd@f1+2,f
  2711  0329                     l1001:	
  2712  0329  1F36               	btfss	___ftadd@sign,6
  2713  032A  2B3B               	goto	l1005
  2714  032B  30FF               	movlw	255
  2715  032C  06AF               	xorwf	___ftadd@f2,f
  2716  032D  30FF               	movlw	255
  2717  032E  06B0               	xorwf	___ftadd@f2+1,f
  2718  032F  30FF               	movlw	255
  2719  0330  06B1               	xorwf	___ftadd@f2+2,f
  2720  0331  3001               	movlw	1
  2721  0332  07AF               	addwf	___ftadd@f2,f
  2722  0333  3000               	movlw	0
  2723  0334  1803               	skipnc
  2724  0335  3001               	movlw	1
  2725  0336  07B0               	addwf	___ftadd@f2+1,f
  2726  0337  3000               	movlw	0
  2727  0338  1803               	skipnc
  2728  0339  3001               	movlw	1
  2729  033A  07B1               	addwf	___ftadd@f2+2,f
  2730  033B                     l1005:	
  2731  033B  01B6               	clrf	___ftadd@sign
  2732  033C  082C               	movf	___ftadd@f1,w
  2733  033D  07AF               	addwf	___ftadd@f2,f
  2734  033E  082D               	movf	___ftadd@f1+1,w
  2735  033F  3DB0               	addwfc	___ftadd@f2+1,f
  2736  0340  082E               	movf	___ftadd@f1+2,w
  2737  0341  3DB1               	addwfc	___ftadd@f2+2,f
  2738  0342  1FB1               	btfss	___ftadd@f2+2,7
  2739  0343  2B56               	goto	l1015
  2740  0344  30FF               	movlw	255
  2741  0345  06AF               	xorwf	___ftadd@f2,f
  2742  0346  30FF               	movlw	255
  2743  0347  06B0               	xorwf	___ftadd@f2+1,f
  2744  0348  30FF               	movlw	255
  2745  0349  06B1               	xorwf	___ftadd@f2+2,f
  2746  034A  3001               	movlw	1
  2747  034B  07AF               	addwf	___ftadd@f2,f
  2748  034C  3000               	movlw	0
  2749  034D  1803               	skipnc
  2750  034E  3001               	movlw	1
  2751  034F  07B0               	addwf	___ftadd@f2+1,f
  2752  0350  3000               	movlw	0
  2753  0351  1803               	skipnc
  2754  0352  3001               	movlw	1
  2755  0353  07B1               	addwf	___ftadd@f2+2,f
  2756  0354  01B6               	clrf	___ftadd@sign
  2757  0355  0AB6               	incf	___ftadd@sign,f
  2758  0356                     l1015:	
  2759  0356  082F               	movf	___ftadd@f2,w
  2760  0357  00F1               	movwf	___ftpack@arg
  2761  0358  0830               	movf	___ftadd@f2+1,w
  2762  0359  00F2               	movwf	___ftpack@arg+1
  2763  035A  0831               	movf	___ftadd@f2+2,w
  2764  035B  00F3               	movwf	___ftpack@arg+2
  2765  035C  0838               	movf	___ftadd@exp1,w
  2766  035D  00B2               	movwf	??___ftadd
  2767  035E  0832               	movf	??___ftadd,w
  2768  035F  00F4               	movwf	___ftpack@exp
  2769  0360  0836               	movf	___ftadd@sign,w
  2770  0361  00B3               	movwf	??___ftadd+1
  2771  0362  0833               	movf	??___ftadd+1,w
  2772  0363  00F5               	movwf	___ftpack@sign
  2773  0364  3185  2552         	fcall	___ftpack
  2774  0366  0871               	movf	?___ftpack,w
  2775  0367  0140               	movlb	0	; select bank0
  2776  0368  00AC               	movwf	?___ftadd
  2777  0369  0872               	movf	?___ftpack+1,w
  2778  036A  00AD               	movwf	?___ftadd+1
  2779  036B  0873               	movf	?___ftpack+2,w
  2780  036C  00AE               	movwf	?___ftadd+2
  2781  036D  0008               	return
  2782  036E                     __end_of___ftadd:	
  2783                           
  2784                           	psect	text7
  2785  0648                     __ptext7:	
  2786 ;; *************** function ___awtoft *****************
  2787 ;; Defined at:
  2788 ;;		line 32 in file "C:\Program Files (x86)\Microchip\xc8\v1.45\sources\common\awtoft.c"
  2789 ;; Parameters:    Size  Location     Type
  2790 ;;  c               2   55[BANK0 ] int 
  2791 ;; Auto vars:     Size  Location     Type
  2792 ;;  sign            1   60[BANK0 ] unsigned char 
  2793 ;; Return value:  Size  Location     Type
  2794 ;;                  3   55[BANK0 ] float 
  2795 ;; Registers used:
  2796 ;;		wreg, status,2, status,0, pclath, cstack
  2797 ;; Tracked objects:
  2798 ;;		On entry : 0/0
  2799 ;;		On exit  : 0/0
  2800 ;;		Unchanged: 0/0
  2801 ;; Data sizes:     COMMON   BANK0   BANK1   BANK2   BANK3   BANK4   BANK5   BANK6   BANK7   BANK8   BANK9  BANK10  BANK1
      +1  BANK12  BANK13  BANK14  BANK15  BANK16  BANK17  BANK18  BANK19  BANK20  BANK21  BANK22  BANK23  BANK24  BANK25  BANK2
      +6  BANK27  BANK28  BANK29  BANK30  BANK31  BANK32  BANK33  BANK34  BANK35  BANK36  BANK37  BANK38  BANK39  BANK40  BANK4
      +1  BANK42  BANK43  BANK44  BANK45  BANK46  BANK47  BANK48  BANK49  BANK50
  2802 ;;      Params:         0       3       0       0       0       0       0       0       0       0       0       0       
      +0       0       0       0       0       0       0       0       0       0       0       0       0       0       0       
      +0       0       0       0       0       0       0       0       0       0       0       0       0       0       0       
      +0       0       0       0       0       0       0       0       0       0
  2803 ;;      Locals:         0       1       0       0       0       0       0       0       0       0       0       0       
      +0       0       0       0       0       0       0       0       0       0       0       0       0       0       0       
      +0       0       0       0       0       0       0       0       0       0       0       0       0       0       0       
      +0       0       0       0       0       0       0       0       0       0
  2804 ;;      Temps:          0       2       0       0       0       0       0       0       0       0       0       0       
      +0       0       0       0       0       0       0       0       0       0       0       0       0       0       0       
      +0       0       0       0       0       0       0       0       0       0       0       0       0       0       0       
      +0       0       0       0       0       0       0       0       0       0
  2805 ;;      Totals:         0       6       0       0       0       0       0       0       0       0       0       0       
      +0       0       0       0       0       0       0       0       0       0       0       0       0       0       0       
      +0       0       0       0       0       0       0       0       0       0       0       0       0       0       0       
      +0       0       0       0       0       0       0       0       0       0
  2806 ;;Total ram usage:        6 bytes
  2807 ;; Hardware stack levels used:    1
  2808 ;; Hardware stack levels required when called:    2
  2809 ;; This function calls:
  2810 ;;		___ftpack
  2811 ;; This function is called by:
  2812 ;;		_geterror
  2813 ;; This function uses a non-reentrant model
  2814 ;;
  2815                           
  2816                           
  2817                           ;psect for function ___awtoft
  2818  0648                     ___awtoft:	
  2819                           
  2820                           ;incstack = 0
  2821                           ; Regs used in ___awtoft: [wreg+status,2+status,0+pclath+cstack]
  2822  0648  0140               	movlb	0	; select bank0
  2823  0649  01DC               	clrf	___awtoft@sign
  2824  064A  1FD8               	btfss	___awtoft@c+1,7
  2825  064B  2E53               	goto	l945
  2826  064C  09D7               	comf	___awtoft@c,f
  2827  064D  09D8               	comf	___awtoft@c+1,f
  2828  064E  0AD7               	incf	___awtoft@c,f
  2829  064F  1903               	skipnz
  2830  0650  0AD8               	incf	___awtoft@c+1,f
  2831  0651  01DC               	clrf	___awtoft@sign
  2832  0652  0ADC               	incf	___awtoft@sign,f
  2833  0653                     l945:	
  2834  0653  0857               	movf	___awtoft@c,w
  2835  0654  00F1               	movwf	___ftpack@arg
  2836  0655  0858               	movf	___awtoft@c+1,w
  2837  0656  00F2               	movwf	___ftpack@arg+1
  2838  0657  01F3               	clrf	___ftpack@arg+2
  2839  0658  308E               	movlw	142
  2840  0659  00DA               	movwf	??___awtoft
  2841  065A  085A               	movf	??___awtoft,w
  2842  065B  00F4               	movwf	___ftpack@exp
  2843  065C  085C               	movf	___awtoft@sign,w
  2844  065D  00DB               	movwf	??___awtoft+1
  2845  065E  085B               	movf	??___awtoft+1,w
  2846  065F  00F5               	movwf	___ftpack@sign
  2847  0660  3185  2552         	fcall	___ftpack
  2848  0662  0871               	movf	?___ftpack,w
  2849  0663  0140               	movlb	0	; select bank0
  2850  0664  00D7               	movwf	?___awtoft
  2851  0665  0872               	movf	?___ftpack+1,w
  2852  0666  00D8               	movwf	?___awtoft+1
  2853  0667  0873               	movf	?___ftpack+2,w
  2854  0668  00D9               	movwf	?___awtoft+2
  2855  0669  0008               	return
  2856  066A                     __end_of___awtoft:	
  2857                           
  2858                           	psect	text8
  2859  0552                     __ptext8:	
  2860 ;; *************** function ___ftpack *****************
  2861 ;; Defined at:
  2862 ;;		line 62 in file "C:\Program Files (x86)\Microchip\xc8\v1.45\sources\common\float.c"
  2863 ;; Parameters:    Size  Location     Type
  2864 ;;  arg             3    1[COMMON] unsigned um
  2865 ;;  exp             1    4[COMMON] unsigned char 
  2866 ;;  sign            1    5[COMMON] unsigned char 
  2867 ;; Auto vars:     Size  Location     Type
  2868 ;;		None
  2869 ;; Return value:  Size  Location     Type
  2870 ;;                  3    1[COMMON] float 
  2871 ;; Registers used:
  2872 ;;		wreg, status,2, status,0
  2873 ;; Tracked objects:
  2874 ;;		On entry : 0/0
  2875 ;;		On exit  : 0/0
  2876 ;;		Unchanged: 0/0
  2877 ;; Data sizes:     COMMON   BANK0   BANK1   BANK2   BANK3   BANK4   BANK5   BANK6   BANK7   BANK8   BANK9  BANK10  BANK1
      +1  BANK12  BANK13  BANK14  BANK15  BANK16  BANK17  BANK18  BANK19  BANK20  BANK21  BANK22  BANK23  BANK24  BANK25  BANK2
      +6  BANK27  BANK28  BANK29  BANK30  BANK31  BANK32  BANK33  BANK34  BANK35  BANK36  BANK37  BANK38  BANK39  BANK40  BANK4
      +1  BANK42  BANK43  BANK44  BANK45  BANK46  BANK47  BANK48  BANK49  BANK50
  2878 ;;      Params:         5       0       0       0       0       0       0       0       0       0       0       0       
      +0       0       0       0       0       0       0       0       0       0       0       0       0       0       0       
      +0       0       0       0       0       0       0       0       0       0       0       0       0       0       0       
      +0       0       0       0       0       0       0       0       0       0
  2879 ;;      Locals:         0       0       0       0       0       0       0       0       0       0       0       0       
      +0       0       0       0       0       0       0       0       0       0       0       0       0       0       0       
      +0       0       0       0       0       0       0       0       0       0       0       0       0       0       0       
      +0       0       0       0       0       0       0       0       0       0
  2880 ;;      Temps:          3       0       0       0       0       0       0       0       0       0       0       0       
      +0       0       0       0       0       0       0       0       0       0       0       0       0       0       0       
      +0       0       0       0       0       0       0       0       0       0       0       0       0       0       0       
      +0       0       0       0       0       0       0       0       0       0
  2881 ;;      Totals:         8       0       0       0       0       0       0       0       0       0       0       0       
      +0       0       0       0       0       0       0       0       0       0       0       0       0       0       0       
      +0       0       0       0       0       0       0       0       0       0       0       0       0       0       0       
      +0       0       0       0       0       0       0       0       0       0
  2882 ;;Total ram usage:        8 bytes
  2883 ;; Hardware stack levels used:    1
  2884 ;; Hardware stack levels required when called:    1
  2885 ;; This function calls:
  2886 ;;		Nothing
  2887 ;; This function is called by:
  2888 ;;		___awtoft
  2889 ;;		___ftadd
  2890 ;;		___ftdiv
  2891 ;;		___ftmul
  2892 ;;		___lwtoft
  2893 ;; This function uses a non-reentrant model
  2894 ;;
  2895                           
  2896                           
  2897                           ;psect for function ___ftpack
  2898  0552                     ___ftpack:	
  2899                           
  2900                           ;incstack = 0
  2901                           ; Regs used in ___ftpack: [wreg+status,2+status,0]
  2902  0552  0874               	movf	___ftpack@exp,w
  2903  0553  1903               	btfsc	3,2
  2904  0554  2D5A               	goto	l909
  2905  0555  0873               	movf	___ftpack@arg+2,w
  2906  0556  0472               	iorwf	___ftpack@arg+1,w
  2907  0557  0471               	iorwf	___ftpack@arg,w
  2908  0558  1D03               	skipz
  2909  0559  2D6B               	goto	l915
  2910  055A                     l909:	
  2911  055A  3000               	movlw	0
  2912  055B  00F1               	movwf	?___ftpack
  2913  055C  3000               	movlw	0
  2914  055D  00F2               	movwf	?___ftpack+1
  2915  055E  3000               	movlw	0
  2916  055F  00F3               	movwf	?___ftpack+2
  2917  0560  0008               	return
  2918  0561                     l913:	
  2919  0561  3001               	movlw	1
  2920  0562  00F6               	movwf	??___ftpack
  2921  0563  0876               	movf	??___ftpack,w
  2922  0564  07F4               	addwf	___ftpack@exp,f
  2923  0565  3001               	movlw	1
  2924  0566                     u795:	
  2925  0566  36F3               	lsrf	___ftpack@arg+2,f
  2926  0567  0CF2               	rrf	___ftpack@arg+1,f
  2927  0568  0CF1               	rrf	___ftpack@arg,f
  2928  0569  0B89               	decfsz	9,f
  2929  056A  2D66               	goto	u795
  2930  056B                     l915:	
  2931  056B  30FE               	movlw	254
  2932  056C  0573               	andwf	___ftpack@arg+2,w
  2933  056D  1903               	btfsc	3,2
  2934  056E  2D84               	goto	l344
  2935  056F  2D61               	goto	l913
  2936  0570                     l917:	
  2937  0570  3001               	movlw	1
  2938  0571  00F6               	movwf	??___ftpack
  2939  0572  0876               	movf	??___ftpack,w
  2940  0573  07F4               	addwf	___ftpack@exp,f
  2941  0574  3001               	movlw	1
  2942  0575  07F1               	addwf	___ftpack@arg,f
  2943  0576  3000               	movlw	0
  2944  0577  1803               	skipnc
  2945  0578  3001               	movlw	1
  2946  0579  07F2               	addwf	___ftpack@arg+1,f
  2947  057A  3000               	movlw	0
  2948  057B  1803               	skipnc
  2949  057C  3001               	movlw	1
  2950  057D  07F3               	addwf	___ftpack@arg+2,f
  2951  057E  3001               	movlw	1
  2952  057F                     u815:	
  2953  057F  36F3               	lsrf	___ftpack@arg+2,f
  2954  0580  0CF2               	rrf	___ftpack@arg+1,f
  2955  0581  0CF1               	rrf	___ftpack@arg,f
  2956  0582  0B89               	decfsz	9,f
  2957  0583  2D7F               	goto	u815
  2958  0584                     l344:	
  2959  0584  30FF               	movlw	255
  2960  0585  0573               	andwf	___ftpack@arg+2,w
  2961  0586  1903               	btfsc	3,2
  2962  0587  2D91               	goto	l925
  2963  0588  2D70               	goto	l917
  2964  0589                     l923:	
  2965  0589  3001               	movlw	1
  2966  058A  02F4               	subwf	___ftpack@exp,f
  2967  058B  3001               	movlw	1
  2968  058C                     u835:	
  2969  058C  35F1               	lslf	___ftpack@arg,f
  2970  058D  0DF2               	rlf	___ftpack@arg+1,f
  2971  058E  0DF3               	rlf	___ftpack@arg+2,f
  2972  058F  0B89               	decfsz	9,f
  2973  0590  2D8C               	goto	u835
  2974  0591                     l925:	
  2975  0591  1BF2               	btfsc	___ftpack@arg+1,7
  2976  0592  2D97               	goto	l351
  2977  0593  3002               	movlw	2
  2978  0594  0274               	subwf	___ftpack@exp,w
  2979  0595  1803               	skipnc
  2980  0596  2D89               	goto	l923
  2981  0597                     l351:	
  2982  0597  1874               	btfsc	___ftpack@exp,0
  2983  0598  2D9F               	goto	l352
  2984  0599  30FF               	movlw	255
  2985  059A  05F1               	andwf	___ftpack@arg,f
  2986  059B  307F               	movlw	127
  2987  059C  05F2               	andwf	___ftpack@arg+1,f
  2988  059D  30FF               	movlw	255
  2989  059E  05F3               	andwf	___ftpack@arg+2,f
  2990  059F                     l352:	
  2991  059F  1003               	clrc
  2992  05A0  0CF4               	rrf	___ftpack@exp,f
  2993  05A1  0874               	movf	___ftpack@exp,w
  2994  05A2  00F6               	movwf	??___ftpack
  2995  05A3  01F7               	clrf	??___ftpack+1
  2996  05A4  01F8               	clrf	??___ftpack+2
  2997  05A5  3010               	movlw	16
  2998  05A6                     u875:	
  2999  05A6  35F6               	lslf	??___ftpack,f
  3000  05A7  0DF7               	rlf	??___ftpack+1,f
  3001  05A8  0DF8               	rlf	??___ftpack+2,f
  3002  05A9  0B89               	decfsz	9,f
  3003  05AA  2DA6               	goto	u875
  3004  05AB  0876               	movf	??___ftpack,w
  3005  05AC  04F1               	iorwf	___ftpack@arg,f
  3006  05AD  0877               	movf	??___ftpack+1,w
  3007  05AE  04F2               	iorwf	___ftpack@arg+1,f
  3008  05AF  0878               	movf	??___ftpack+2,w
  3009  05B0  04F3               	iorwf	___ftpack@arg+2,f
  3010  05B1  0875               	movf	___ftpack@sign,w
  3011  05B2  1903               	btfsc	3,2
  3012  05B3  0008               	return
  3013  05B4  17F3               	bsf	___ftpack@arg+2,7
  3014  05B5  0008               	return
  3015  05B6                     __end_of___ftpack:	
  3016                           
  3017                           	psect	text9
  3018  05B6                     __ptext9:	
  3019 ;; *************** function _formula *****************
  3020 ;; Defined at:
  3021 ;;		line 76 in file "main.c"
  3022 ;; Parameters:    Size  Location     Type
  3023 ;;		None
  3024 ;; Auto vars:     Size  Location     Type
  3025 ;;		None
  3026 ;; Return value:  Size  Location     Type
  3027 ;;                  1    wreg      void 
  3028 ;; Registers used:
  3029 ;;		wreg
  3030 ;; Tracked objects:
  3031 ;;		On entry : 0/0
  3032 ;;		On exit  : 0/0
  3033 ;;		Unchanged: 0/0
  3034 ;; Data sizes:     COMMON   BANK0   BANK1   BANK2   BANK3   BANK4   BANK5   BANK6   BANK7   BANK8   BANK9  BANK10  BANK1
      +1  BANK12  BANK13  BANK14  BANK15  BANK16  BANK17  BANK18  BANK19  BANK20  BANK21  BANK22  BANK23  BANK24  BANK25  BANK2
      +6  BANK27  BANK28  BANK29  BANK30  BANK31  BANK32  BANK33  BANK34  BANK35  BANK36  BANK37  BANK38  BANK39  BANK40  BANK4
      +1  BANK42  BANK43  BANK44  BANK45  BANK46  BANK47  BANK48  BANK49  BANK50
  3035 ;;      Params:         0       0       0       0       0       0       0       0       0       0       0       0       
      +0       0       0       0       0       0       0       0       0       0       0       0       0       0       0       
      +0       0       0       0       0       0       0       0       0       0       0       0       0       0       0       
      +0       0       0       0       0       0       0       0       0       0
  3036 ;;      Locals:         0       0       0       0       0       0       0       0       0       0       0       0       
      +0       0       0       0       0       0       0       0       0       0       0       0       0       0       0       
      +0       0       0       0       0       0       0       0       0       0       0       0       0       0       0       
      +0       0       0       0       0       0       0       0       0       0
  3037 ;;      Temps:          1       0       0       0       0       0       0       0       0       0       0       0       
      +0       0       0       0       0       0       0       0       0       0       0       0       0       0       0       
      +0       0       0       0       0       0       0       0       0       0       0       0       0       0       0       
      +0       0       0       0       0       0       0       0       0       0
  3038 ;;      Totals:         1       0       0       0       0       0       0       0       0       0       0       0       
      +0       0       0       0       0       0       0       0       0       0       0       0       0       0       0       
      +0       0       0       0       0       0       0       0       0       0       0       0       0       0       0       
      +0       0       0       0       0       0       0       0       0       0
  3039 ;;Total ram usage:        1 bytes
  3040 ;; Hardware stack levels used:    1
  3041 ;; Hardware stack levels required when called:    1
  3042 ;; This function calls:
  3043 ;;		Nothing
  3044 ;; This function is called by:
  3045 ;;		_main
  3046 ;; This function uses a non-reentrant model
  3047 ;;
  3048                           
  3049                           
  3050                           ;psect for function _formula
  3051  05B6                     _formula:	
  3052                           
  3053                           ;main.c: 77: if(distancia1==distancia2 && distancia2==distancia3){
  3054                           
  3055                           ;incstack = 0
  3056                           ; Regs used in _formula: [wreg]
  3057  05B6  0140               	movlb	0	; select bank0
  3058  05B7  086D               	movf	_distancia2+2,w
  3059  05B8  0141               	movlb	1	; select bank1
  3060  05B9  0627               	xorwf	(_distancia1+2)^(0+128),w
  3061  05BA  1D03               	skipz
  3062  05BB  2DC6               	goto	u1495
  3063  05BC  0140               	movlb	0	; select bank0
  3064  05BD  086C               	movf	_distancia2+1,w
  3065  05BE  0141               	movlb	1	; select bank1
  3066  05BF  0626               	xorwf	(_distancia1+1)^(0+128),w
  3067  05C0  1D03               	skipz
  3068  05C1  2DC6               	goto	u1495
  3069  05C2  0140               	movlb	0	; select bank0
  3070  05C3  086B               	movf	_distancia2,w
  3071  05C4  0141               	movlb	1	; select bank1
  3072  05C5  0625               	xorwf	_distancia1^(0+128),w
  3073  05C6                     u1495:	
  3074  05C6  1D03               	skipz
  3075  05C7  2DDE               	goto	l1195
  3076  05C8  0822               	movf	(_distancia3+2)^(0+128),w
  3077  05C9  0140               	movlb	0	; select bank0
  3078  05CA  066D               	xorwf	_distancia2+2,w
  3079  05CB  1D03               	skipz
  3080  05CC  2DD7               	goto	u1505
  3081  05CD  0141               	movlb	1	; select bank1
  3082  05CE  0821               	movf	(_distancia3+1)^(0+128),w
  3083  05CF  0140               	movlb	0	; select bank0
  3084  05D0  066C               	xorwf	_distancia2+1,w
  3085  05D1  1D03               	skipz
  3086  05D2  2DD7               	goto	u1505
  3087  05D3  0141               	movlb	1	; select bank1
  3088  05D4  0820               	movf	_distancia3^(0+128),w
  3089  05D5  0140               	movlb	0	; select bank0
  3090  05D6  066B               	xorwf	_distancia2,w
  3091  05D7                     u1505:	
  3092  05D7  1D03               	skipz
  3093  05D8  2DDE               	goto	l1195
  3094                           
  3095                           ;main.c: 79: LATBbits.LATB0=1;
  3096  05D9  1417               	bsf	23,0	;volatile
  3097                           
  3098                           ;main.c: 80: LATBbits.LATB1=0;
  3099  05DA  1097               	bcf	23,1	;volatile
  3100                           
  3101                           ;main.c: 81: LATBbits.LATB2=0;
  3102  05DB  1117               	bcf	23,2	;volatile
  3103                           
  3104                           ;main.c: 82: LATBbits.LATB3=1;
  3105  05DC  1597               	bsf	23,3	;volatile
  3106                           
  3107                           ;main.c: 85: }else{
  3108  05DD  0008               	return
  3109  05DE                     l1195:	
  3110                           
  3111                           ;main.c: 86: if(error<-100){
  3112  05DE  0140               	movlb	0	; select bank0
  3113  05DF  086F               	movf	_error+1,w
  3114  05E0  3A80               	xorlw	128
  3115  05E1  00F1               	movwf	??_formula
  3116  05E2  307F               	movlw	127
  3117  05E3  0271               	subwf	??_formula,w
  3118  05E4  1D03               	skipz
  3119  05E5  2DE8               	goto	u1515
  3120  05E6  309C               	movlw	156
  3121  05E7  026E               	subwf	_error,w
  3122  05E8                     u1515:	
  3123  05E8  1803               	skipnc
  3124  05E9  2DF0               	goto	l1199
  3125                           
  3126                           ;main.c: 88: LATBbits.LATB0=1;
  3127  05EA  0140               	movlb	0	; select bank0
  3128  05EB  1417               	bsf	23,0	;volatile
  3129                           
  3130                           ;main.c: 89: LATBbits.LATB1=0;
  3131  05EC  1097               	bcf	23,1	;volatile
  3132                           
  3133                           ;main.c: 90: LATBbits.LATB2=0;
  3134  05ED  1117               	bcf	23,2	;volatile
  3135                           
  3136                           ;main.c: 91: LATBbits.LATB3=1;
  3137  05EE  1597               	bsf	23,3	;volatile
  3138                           
  3139                           ;main.c: 94: }else if(error>100){
  3140  05EF  0008               	return
  3141  05F0                     l1199:	
  3142  05F0  0140               	movlb	0	; select bank0
  3143  05F1  086F               	movf	_error+1,w
  3144  05F2  3A80               	xorlw	128
  3145  05F3  00F1               	movwf	??_formula
  3146  05F4  3080               	movlw	128
  3147  05F5  0271               	subwf	??_formula,w
  3148  05F6  1D03               	skipz
  3149  05F7  2DFA               	goto	u1525
  3150  05F8  3065               	movlw	101
  3151  05F9  026E               	subwf	_error,w
  3152  05FA                     u1525:	
  3153  05FA  1C03               	skipc
  3154  05FB  2E02               	goto	l86
  3155                           
  3156                           ;main.c: 96: LATBbits.LATB0=0;
  3157  05FC  0140               	movlb	0	; select bank0
  3158  05FD  1017               	bcf	23,0	;volatile
  3159                           
  3160                           ;main.c: 97: LATBbits.LATB1=1;
  3161  05FE  1497               	bsf	23,1	;volatile
  3162                           
  3163                           ;main.c: 98: LATBbits.LATB2=1;
  3164  05FF  1517               	bsf	23,2	;volatile
  3165                           
  3166                           ;main.c: 99: LATBbits.LATB3=0;
  3167  0600  1197               	bcf	23,3	;volatile
  3168                           
  3169                           ;main.c: 102: }else {
  3170  0601  0008               	return
  3171  0602                     l86:	
  3172                           
  3173                           ;main.c: 104: LATBbits.LATB0=1;
  3174  0602  0140               	movlb	0	; select bank0
  3175  0603  1417               	bsf	23,0	;volatile
  3176                           
  3177                           ;main.c: 105: LATBbits.LATB1=0;
  3178  0604  1097               	bcf	23,1	;volatile
  3179                           
  3180                           ;main.c: 106: LATBbits.LATB2=1;
  3181  0605  1517               	bsf	23,2	;volatile
  3182                           
  3183                           ;main.c: 107: LATBbits.LATB3=0;
  3184  0606  1197               	bcf	23,3	;volatile
  3185  0607  0008               	return
  3186  0608                     __end_of_formula:	
  3187                           
  3188                           	psect	intentry
  3189  0004                     __pintentry:	
  3190 ;; *************** function _interrupcion *****************
  3191 ;; Defined at:
  3192 ;;		line 121 in file "main.c"
  3193 ;; Parameters:    Size  Location     Type
  3194 ;;		None
  3195 ;; Auto vars:     Size  Location     Type
  3196 ;;		None
  3197 ;; Return value:  Size  Location     Type
  3198 ;;                  1    wreg      void 
  3199 ;; Registers used:
  3200 ;;		None
  3201 ;; Tracked objects:
  3202 ;;		On entry : 0/0
  3203 ;;		On exit  : 0/0
  3204 ;;		Unchanged: 0/0
  3205 ;; Data sizes:     COMMON   BANK0   BANK1   BANK2   BANK3   BANK4   BANK5   BANK6   BANK7   BANK8   BANK9  BANK10  BANK1
      +1  BANK12  BANK13  BANK14  BANK15  BANK16  BANK17  BANK18  BANK19  BANK20  BANK21  BANK22  BANK23  BANK24  BANK25  BANK2
      +6  BANK27  BANK28  BANK29  BANK30  BANK31  BANK32  BANK33  BANK34  BANK35  BANK36  BANK37  BANK38  BANK39  BANK40  BANK4
      +1  BANK42  BANK43  BANK44  BANK45  BANK46  BANK47  BANK48  BANK49  BANK50
  3206 ;;      Params:         0       0       0       0       0       0       0       0       0       0       0       0       
      +0       0       0       0       0       0       0       0       0       0       0       0       0       0       0       
      +0       0       0       0       0       0       0       0       0       0       0       0       0       0       0       
      +0       0       0       0       0       0       0       0       0       0
  3207 ;;      Locals:         0       0       0       0       0       0       0       0       0       0       0       0       
      +0       0       0       0       0       0       0       0       0       0       0       0       0       0       0       
      +0       0       0       0       0       0       0       0       0       0       0       0       0       0       0       
      +0       0       0       0       0       0       0       0       0       0
  3208 ;;      Temps:          1       0       0       0       0       0       0       0       0       0       0       0       
      +0       0       0       0       0       0       0       0       0       0       0       0       0       0       0       
      +0       0       0       0       0       0       0       0       0       0       0       0       0       0       0       
      +0       0       0       0       0       0       0       0       0       0
  3209 ;;      Totals:         1       0       0       0       0       0       0       0       0       0       0       0       
      +0       0       0       0       0       0       0       0       0       0       0       0       0       0       0       
      +0       0       0       0       0       0       0       0       0       0       0       0       0       0       0       
      +0       0       0       0       0       0       0       0       0       0
  3210 ;;Total ram usage:        1 bytes
  3211 ;; Hardware stack levels used:    1
  3212 ;; This function calls:
  3213 ;;		Nothing
  3214 ;; This function is called by:
  3215 ;;		Interrupt level 1
  3216 ;; This function uses a non-reentrant model
  3217 ;;
  3218                           
  3219  0004                     _interrupcion:	
  3220                           
  3221                           ;incstack = 0
  3222  0004  147E               	bsf	126,0	;set compiler interrupt flag (level 1)
  3223                           
  3224                           ; Regs used in _interrupcion: []
  3225  0005  3180               	pagesel	$
  3226  0006  0140               	movlb	0	; select bank0
  3227  0007  087F               	movf	127,w
  3228  0008  00F0               	movwf	??_interrupcion
  3229                           
  3230                           ;main.c: 123: PIR4bits.TMR1IF=0;
  3231  0009  014E               	movlb	14	; select bank14
  3232  000A  1010               	bcf	16,0	;volatile
  3233  000B  0870               	movf	??_interrupcion,w
  3234  000C  0140               	movlb	0	; select bank0
  3235  000D  00FF               	movwf	127
  3236  000E  107E               	bcf	126,0	;clear compiler interrupt flag (level 1)
  3237  000F  0009               	retfie
  3238  0010                     __end_of_interrupcion:	
  3239  007E                     btemp	set	126	;btemp
  3240  007E                     int$flags	set	126
  3241  007E                     wtemp0	set	126


Data Sizes:
    Strings     0
    Constant    0
    Data        13
    BSS         22
    Persistent  0
    Stack       0

Auto Spaces:
    Space          Size  Autos    Used
    COMMON           14     13      13
    BANK0            80     75      80
    BANK1            80      0      30
    BANK2            80      0       0
    BANK3            80      0       0
    BANK4            80      0       0
    BANK5            80      0       0
    BANK6            80      0       0
    BANK7            80      0       0
    BANK8            80      0       0
    BANK9            80      0       0
    BANK10           80      0       0
    BANK11           80      0       0
    BANK12           80      0       0
    BANK13           80      0       0
    BANK14           80      0       0
    BANK15           80      0       0
    BANK16           80      0       0
    BANK17           80      0       0
    BANK18           80      0       0
    BANK19           80      0       0
    BANK20           80      0       0
    BANK21           80      0       0
    BANK22           80      0       0
    BANK23           80      0       0
    BANK24           80      0       0
    BANK25           80      0       0
    BANK26           80      0       0
    BANK27           80      0       0
    BANK28           80      0       0
    BANK29           80      0       0
    BANK30           80      0       0
    BANK31           80      0       0
    BANK32           80      0       0
    BANK33           80      0       0
    BANK34           80      0       0
    BANK35           80      0       0
    BANK36           80      0       0
    BANK37           80      0       0
    BANK38           80      0       0
    BANK39           80      0       0
    BANK40           80      0       0
    BANK41           80      0       0
    BANK42           80      0       0
    BANK43           80      0       0
    BANK44           80      0       0
    BANK45           80      0       0
    BANK46           80      0       0
    BANK47           80      0       0
    BANK48           80      0       0
    BANK49           80      0       0
    BANK50           80      0       0

Pointer List with Targets:

    None.

Critical Paths under _main in COMMON

    _geterror->___ftmul
    _geterror->___lwtoft
    ___lwtoft->___ftpack
    ___fttol->___ftmul
    ___ftmul->___ftpack
    ___ftdiv->___ftmul
    ___ftdiv->___lwtoft
    ___ftadd->___ftmul
    ___awtoft->___ftmul

Critical Paths under _interrupcion in COMMON

    None.

Critical Paths under _main in BANK0

    _main->_geterror
    _geterror->___awtoft
    ___fttol->___ftdiv
    ___ftdiv->___ftadd
    ___ftadd->___ftmul
    ___awtoft->___fttol

Critical Paths under _interrupcion in BANK0

    None.

Critical Paths under _main in BANK1

    None.

Critical Paths under _interrupcion in BANK1

    None.

Critical Paths under _main in BANK2

    None.

Critical Paths under _interrupcion in BANK2

    None.

Critical Paths under _main in BANK3

    None.

Critical Paths under _interrupcion in BANK3

    None.

Critical Paths under _main in BANK4

    None.

Critical Paths under _interrupcion in BANK4

    None.

Critical Paths under _main in BANK5

    None.

Critical Paths under _interrupcion in BANK5

    None.

Critical Paths under _main in BANK6

    None.

Critical Paths under _interrupcion in BANK6

    None.

Critical Paths under _main in BANK7

    None.

Critical Paths under _interrupcion in BANK7

    None.

Critical Paths under _main in BANK8

    None.

Critical Paths under _interrupcion in BANK8

    None.

Critical Paths under _main in BANK9

    None.

Critical Paths under _interrupcion in BANK9

    None.

Critical Paths under _main in BANK10

    None.

Critical Paths under _interrupcion in BANK10

    None.

Critical Paths under _main in BANK11

    None.

Critical Paths under _interrupcion in BANK11

    None.

Critical Paths under _main in BANK12

    None.

Critical Paths under _interrupcion in BANK12

    None.

Critical Paths under _main in BANK13

    None.

Critical Paths under _interrupcion in BANK13

    None.

Critical Paths under _main in BANK14

    None.

Critical Paths under _interrupcion in BANK14

    None.

Critical Paths under _main in BANK15

    None.

Critical Paths under _interrupcion in BANK15

    None.

Critical Paths under _main in BANK16

    None.

Critical Paths under _interrupcion in BANK16

    None.

Critical Paths under _main in BANK17

    None.

Critical Paths under _interrupcion in BANK17

    None.

Critical Paths under _main in BANK18

    None.

Critical Paths under _interrupcion in BANK18

    None.

Critical Paths under _main in BANK19

    None.

Critical Paths under _interrupcion in BANK19

    None.

Critical Paths under _main in BANK20

    None.

Critical Paths under _interrupcion in BANK20

    None.

Critical Paths under _main in BANK21

    None.

Critical Paths under _interrupcion in BANK21

    None.

Critical Paths under _main in BANK22

    None.

Critical Paths under _interrupcion in BANK22

    None.

Critical Paths under _main in BANK23

    None.

Critical Paths under _interrupcion in BANK23

    None.

Critical Paths under _main in BANK24

    None.

Critical Paths under _interrupcion in BANK24

    None.

Critical Paths under _main in BANK25

    None.

Critical Paths under _interrupcion in BANK25

    None.

Critical Paths under _main in BANK26

    None.

Critical Paths under _interrupcion in BANK26

    None.

Critical Paths under _main in BANK27

    None.

Critical Paths under _interrupcion in BANK27

    None.

Critical Paths under _main in BANK28

    None.

Critical Paths under _interrupcion in BANK28

    None.

Critical Paths under _main in BANK29

    None.

Critical Paths under _interrupcion in BANK29

    None.

Critical Paths under _main in BANK30

    None.

Critical Paths under _interrupcion in BANK30

    None.

Critical Paths under _main in BANK31

    None.

Critical Paths under _interrupcion in BANK31

    None.

Critical Paths under _main in BANK32

    None.

Critical Paths under _interrupcion in BANK32

    None.

Critical Paths under _main in BANK33

    None.

Critical Paths under _interrupcion in BANK33

    None.

Critical Paths under _main in BANK34

    None.

Critical Paths under _interrupcion in BANK34

    None.

Critical Paths under _main in BANK35

    None.

Critical Paths under _interrupcion in BANK35

    None.

Critical Paths under _main in BANK36

    None.

Critical Paths under _interrupcion in BANK36

    None.

Critical Paths under _main in BANK37

    None.

Critical Paths under _interrupcion in BANK37

    None.

Critical Paths under _main in BANK38

    None.

Critical Paths under _interrupcion in BANK38

    None.

Critical Paths under _main in BANK39

    None.

Critical Paths under _interrupcion in BANK39

    None.

Critical Paths under _main in BANK40

    None.

Critical Paths under _interrupcion in BANK40

    None.

Critical Paths under _main in BANK41

    None.

Critical Paths under _interrupcion in BANK41

    None.

Critical Paths under _main in BANK42

    None.

Critical Paths under _interrupcion in BANK42

    None.

Critical Paths under _main in BANK43

    None.

Critical Paths under _interrupcion in BANK43

    None.

Critical Paths under _main in BANK44

    None.

Critical Paths under _interrupcion in BANK44

    None.

Critical Paths under _main in BANK45

    None.

Critical Paths under _interrupcion in BANK45

    None.

Critical Paths under _main in BANK46

    None.

Critical Paths under _interrupcion in BANK46

    None.

Critical Paths under _main in BANK47

    None.

Critical Paths under _interrupcion in BANK47

    None.

Critical Paths under _main in BANK48

    None.

Critical Paths under _interrupcion in BANK48

    None.

Critical Paths under _main in BANK49

    None.

Critical Paths under _interrupcion in BANK49

    None.

Critical Paths under _main in BANK50

    None.

Critical Paths under _interrupcion in BANK50

    None.

Call Graph Tables:

 ---------------------------------------------------------------------------------
 (Depth) Function   	        Calls       Base Space   Used Autos Params    Refs
 ---------------------------------------------------------------------------------
 (0) _main                                                 6     2      4   12999
                                             69 BANK0      6     2      4
                            _formula
                           _geterror
 ---------------------------------------------------------------------------------
 (1) _geterror                                             8     8      0   12999
                                             61 BANK0      8     8      0
                           ___awtoft
                            ___ftadd
                            ___ftdiv
                            ___ftmul
                            ___fttol
                           ___lwtoft
 ---------------------------------------------------------------------------------
 (2) ___lwtoft                                             4     1      3    1927
                                              9 COMMON     4     1      3
                           ___ftpack
 ---------------------------------------------------------------------------------
 (2) ___fttol                                             14    10      4     464
                                             41 BANK0     14    10      4
                            ___ftadd (ARG)
                            ___ftdiv (ARG)
                            ___ftmul (ARG)
 ---------------------------------------------------------------------------------
 (2) ___ftmul                                             16    10      6    2708
                                              9 COMMON     4     4      0
                                              0 BANK0     12     6      6
                           ___ftpack
 ---------------------------------------------------------------------------------
 (2) ___ftdiv                                             16    10      6    2768
                                             25 BANK0     16    10      6
                            ___ftadd (ARG)
                            ___ftmul (ARG)
                           ___ftpack
                           ___lwtoft (ARG)
 ---------------------------------------------------------------------------------
 (2) ___ftadd                                             13     7      6    3090
                                             12 BANK0     13     7      6
                            ___ftmul (ARG)
                           ___ftpack
 ---------------------------------------------------------------------------------
 (2) ___awtoft                                             6     3      3    1996
                                             55 BANK0      6     3      3
                            ___ftdiv (ARG)
                            ___ftmul (ARG)
                           ___ftpack
                            ___fttol (ARG)
 ---------------------------------------------------------------------------------
 (3) ___ftpack                                             8     3      5    1746
                                              1 COMMON     8     3      5
 ---------------------------------------------------------------------------------
 (1) _formula                                              1     1      0       0
                                              1 COMMON     1     1      0
 ---------------------------------------------------------------------------------
 Estimated maximum stack depth 3
 ---------------------------------------------------------------------------------
 (Depth) Function   	        Calls       Base Space   Used Autos Params    Refs
 ---------------------------------------------------------------------------------
 (4) _interrupcion                                         1     1      0       0
                                              0 COMMON     1     1      0
 ---------------------------------------------------------------------------------
 Estimated maximum stack depth 4
 ---------------------------------------------------------------------------------

 Call Graph Graphs:

 _main (ROOT)
   _formula
   _geterror
     ___awtoft
       ___ftdiv (ARG)
         ___ftadd (ARG)
           ___ftmul (ARG)
             ___ftpack
           ___ftpack (ARG)
         ___ftmul (ARG)
           ___ftpack
         ___ftpack (ARG)
         ___lwtoft (ARG)
           ___ftpack
       ___ftmul (ARG)
         ___ftpack
       ___ftpack (ARG)
       ___fttol (ARG)
         ___ftadd (ARG)
           ___ftmul (ARG)
             ___ftpack
           ___ftpack (ARG)
         ___ftdiv (ARG)
           ___ftadd (ARG)
             ___ftmul (ARG)
               ___ftpack
             ___ftpack (ARG)
           ___ftmul (ARG)
             ___ftpack
           ___ftpack (ARG)
           ___lwtoft (ARG)
             ___ftpack
         ___ftmul (ARG)
           ___ftpack
     ___ftadd
       ___ftmul (ARG)
         ___ftpack
       ___ftpack (ARG)
     ___ftdiv
       ___ftadd (ARG)
         ___ftmul (ARG)
           ___ftpack
         ___ftpack (ARG)
       ___ftmul (ARG)
         ___ftpack
       ___ftpack (ARG)
       ___lwtoft (ARG)
         ___ftpack
     ___ftmul
       ___ftpack
     ___fttol
       ___ftadd (ARG)
         ___ftmul (ARG)
           ___ftpack
         ___ftpack (ARG)
       ___ftdiv (ARG)
         ___ftadd (ARG)
           ___ftmul (ARG)
             ___ftpack
           ___ftpack (ARG)
         ___ftmul (ARG)
           ___ftpack
         ___ftpack (ARG)
         ___lwtoft (ARG)
           ___ftpack
       ___ftmul (ARG)
         ___ftpack
     ___lwtoft
       ___ftpack

 _interrupcion (ROOT)

 Address spaces:
Name               Size   Autos  Total    Cost      Usage
BIGRAM             FF0      0       0       0        0.0%
EEDATA             100      0       0       0        0.0%
NULL                 0      0       0       0        0.0%
CODE                 0      0       0       0        0.0%
BITCOMMON            E      0       0       1        0.0%
BITSFR0              0      0       0       1        0.0%
SFR0                 0      0       0       1        0.0%
COMMON               E      D       D       2       92.9%
BITSFR1              0      0       0       2        0.0%
SFR1                 0      0       0       2        0.0%
BITSFR2              0      0       0       3        0.0%
SFR2                 0      0       0       3        0.0%
STACK                0      0       0       3        0.0%
BITBANK0            50      0       0       4        0.0%
BITSFR3              0      0       0       4        0.0%
SFR3                 0      0       0       4        0.0%
BANK0               50     4B      50       5      100.0%
BITSFR4              0      0       0       5        0.0%
SFR4                 0      0       0       5        0.0%
BITBANK1            50      0       0       6        0.0%
BITSFR5              0      0       0       6        0.0%
SFR5                 0      0       0       6        0.0%
BANK1               50      0      1E       7       37.5%
BITSFR6              0      0       0       7        0.0%
SFR6                 0      0       0       7        0.0%
BITBANK2            50      0       0       8        0.0%
BITSFR7              0      0       0       8        0.0%
SFR7                 0      0       0       8        0.0%
BANK2               50      0       0       9        0.0%
BITSFR8              0      0       0       9        0.0%
SFR8                 0      0       0       9        0.0%
BITBANK3            50      0       0      10        0.0%
BITSFR9              0      0       0      10        0.0%
SFR9                 0      0       0      10        0.0%
BANK3               50      0       0      11        0.0%
BITSFR10             0      0       0      11        0.0%
SFR10                0      0       0      11        0.0%
BITBANK4            50      0       0      12        0.0%
BITSFR11             0      0       0      12        0.0%
SFR11                0      0       0      12        0.0%
BANK4               50      0       0      13        0.0%
BITSFR12             0      0       0      13        0.0%
SFR12                0      0       0      13        0.0%
BITBANK5            50      0       0      14        0.0%
BITSFR13             0      0       0      14        0.0%
SFR13                0      0       0      14        0.0%
BANK5               50      0       0      15        0.0%
BITSFR14             0      0       0      15        0.0%
SFR14                0      0       0      15        0.0%
BITBANK6            50      0       0      16        0.0%
BITSFR15             0      0       0      16        0.0%
SFR15                0      0       0      16        0.0%
BANK6               50      0       0      17        0.0%
BITSFR16             0      0       0      17        0.0%
SFR16                0      0       0      17        0.0%
BITBANK7            50      0       0      18        0.0%
BITSFR17             0      0       0      18        0.0%
SFR17                0      0       0      18        0.0%
BANK7               50      0       0      19        0.0%
BITSFR18             0      0       0      19        0.0%
SFR18                0      0       0      19        0.0%
BITBANK8            50      0       0      20        0.0%
BITSFR19             0      0       0      20        0.0%
SFR19                0      0       0      20        0.0%
BANK8               50      0       0      21        0.0%
BITSFR20             0      0       0      21        0.0%
SFR20                0      0       0      21        0.0%
BITBANK9            50      0       0      22        0.0%
BITSFR21             0      0       0      22        0.0%
SFR21                0      0       0      22        0.0%
BANK9               50      0       0      23        0.0%
BITSFR22             0      0       0      23        0.0%
SFR22                0      0       0      23        0.0%
BITBANK10           50      0       0      24        0.0%
BITSFR23             0      0       0      24        0.0%
SFR23                0      0       0      24        0.0%
BANK10              50      0       0      25        0.0%
BITSFR24             0      0       0      25        0.0%
SFR24                0      0       0      25        0.0%
BITBANK11           50      0       0      26        0.0%
BITSFR25             0      0       0      26        0.0%
SFR25                0      0       0      26        0.0%
BANK11              50      0       0      27        0.0%
BITSFR26             0      0       0      27        0.0%
SFR26                0      0       0      27        0.0%
BITSFR27             0      0       0      28        0.0%
SFR27                0      0       0      28        0.0%
ABS                  0      0      7B      28        0.0%
BITBANK12           50      0       0      29        0.0%
BITSFR28             0      0       0      29        0.0%
SFR28                0      0       0      29        0.0%
BANK12              50      0       0      30        0.0%
BITSFR29             0      0       0      30        0.0%
SFR29                0      0       0      30        0.0%
BITBANK13           50      0       0      31        0.0%
BITSFR30             0      0       0      31        0.0%
SFR30                0      0       0      31        0.0%
BANK13              50      0       0      32        0.0%
BITSFR31             0      0       0      32        0.0%
SFR31                0      0       0      32        0.0%
BITBANK14           50      0       0      33        0.0%
BITSFR32             0      0       0      33        0.0%
SFR32                0      0       0      33        0.0%
BANK14              50      0       0      34        0.0%
BITSFR33             0      0       0      34        0.0%
SFR33                0      0       0      34        0.0%
BITBANK15           50      0       0      35        0.0%
BITSFR34             0      0       0      35        0.0%
SFR34                0      0       0      35        0.0%
BANK15              50      0       0      36        0.0%
BITSFR35             0      0       0      36        0.0%
SFR35                0      0       0      36        0.0%
BITBANK16           50      0       0      37        0.0%
BITSFR36             0      0       0      37        0.0%
SFR36                0      0       0      37        0.0%
BANK16              50      0       0      38        0.0%
BITSFR37             0      0       0      38        0.0%
SFR37                0      0       0      38        0.0%
BITBANK17           50      0       0      39        0.0%
BITSFR38             0      0       0      39        0.0%
SFR38                0      0       0      39        0.0%
BANK17              50      0       0      40        0.0%
BITSFR39             0      0       0      40        0.0%
SFR39                0      0       0      40        0.0%
BITBANK18           50      0       0      41        0.0%
BITSFR40             0      0       0      41        0.0%
SFR40                0      0       0      41        0.0%
BANK18              50      0       0      42        0.0%
BITSFR41             0      0       0      42        0.0%
SFR41                0      0       0      42        0.0%
BITBANK19           50      0       0      43        0.0%
BITSFR42             0      0       0      43        0.0%
SFR42                0      0       0      43        0.0%
BANK19              50      0       0      44        0.0%
BITSFR43             0      0       0      44        0.0%
SFR43                0      0       0      44        0.0%
BITBANK20           50      0       0      45        0.0%
BITSFR44             0      0       0      45        0.0%
SFR44                0      0       0      45        0.0%
BANK20              50      0       0      46        0.0%
BITSFR45             0      0       0      46        0.0%
SFR45                0      0       0      46        0.0%
BITBANK21           50      0       0      47        0.0%
BITSFR46             0      0       0      47        0.0%
SFR46                0      0       0      47        0.0%
BANK21              50      0       0      48        0.0%
BITSFR47             0      0       0      48        0.0%
SFR47                0      0       0      48        0.0%
BITBANK22           50      0       0      49        0.0%
BITSFR48             0      0       0      49        0.0%
SFR48                0      0       0      49        0.0%
BANK22              50      0       0      50        0.0%
BITSFR49             0      0       0      50        0.0%
SFR49                0      0       0      50        0.0%
BITBANK23           50      0       0      51        0.0%
BITSFR50             0      0       0      51        0.0%
SFR50                0      0       0      51        0.0%
BANK23              50      0       0      52        0.0%
BITSFR51             0      0       0      52        0.0%
SFR51                0      0       0      52        0.0%
BITBANK24           50      0       0      53        0.0%
BITSFR52             0      0       0      53        0.0%
SFR52                0      0       0      53        0.0%
BANK24              50      0       0      54        0.0%
BITSFR53             0      0       0      54        0.0%
SFR53                0      0       0      54        0.0%
BITBANK25           50      0       0      55        0.0%
BITSFR54             0      0       0      55        0.0%
SFR54                0      0       0      55        0.0%
BANK25              50      0       0      56        0.0%
BITSFR55             0      0       0      56        0.0%
SFR55                0      0       0      56        0.0%
BITBANK26           50      0       0      57        0.0%
BITSFR56             0      0       0      57        0.0%
SFR56                0      0       0      57        0.0%
BANK26              50      0       0      58        0.0%
BITSFR57             0      0       0      58        0.0%
SFR57                0      0       0      58        0.0%
BITSFR58             0      0       0      59        0.0%
SFR58                0      0       0      59        0.0%
DATA                 0      0      7B      59        0.0%
BITBANK27           50      0       0      60        0.0%
BITSFR59             0      0       0      60        0.0%
SFR59                0      0       0      60        0.0%
BANK27              50      0       0      61        0.0%
BITSFR60             0      0       0      61        0.0%
SFR60                0      0       0      61        0.0%
BITBANK28           50      0       0      62        0.0%
BITSFR61             0      0       0      62        0.0%
SFR61                0      0       0      62        0.0%
BANK28              50      0       0      63        0.0%
BITSFR62             0      0       0      63        0.0%
SFR62                0      0       0      63        0.0%
BITBANK29           50      0       0      64        0.0%
BITSFR63             0      0       0      64        0.0%
SFR63                0      0       0      64        0.0%
BANK29              50      0       0      65        0.0%
BITBANK30           50      0       0      66        0.0%
BANK30              50      0       0      67        0.0%
BITBANK31           50      0       0      68        0.0%
BANK31              50      0       0      69        0.0%
BITBANK32           50      0       0      70        0.0%
BANK32              50      0       0      71        0.0%
BITBANK33           50      0       0      72        0.0%
BANK33              50      0       0      73        0.0%
BITBANK34           50      0       0      74        0.0%
BANK34              50      0       0      75        0.0%
BITBANK35           50      0       0      76        0.0%
BANK35              50      0       0      77        0.0%
BITBANK36           50      0       0      78        0.0%
BANK36              50      0       0      79        0.0%
BITBANK37           50      0       0      80        0.0%
BANK37              50      0       0      81        0.0%
BITBANK38           50      0       0      82        0.0%
BANK38              50      0       0      83        0.0%
BITBANK39           50      0       0      84        0.0%
BANK39              50      0       0      85        0.0%
BITBANK40           50      0       0      86        0.0%
BANK40              50      0       0      87        0.0%
BITBANK41           50      0       0      88        0.0%
BANK41              50      0       0      89        0.0%
BITBANK42           50      0       0      90        0.0%
BANK42              50      0       0      91        0.0%
BITBANK43           50      0       0      92        0.0%
BANK43              50      0       0      93        0.0%
BITBANK44           50      0       0      94        0.0%
BANK44              50      0       0      95        0.0%
BITBANK45           50      0       0      96        0.0%
BANK45              50      0       0      97        0.0%
BITBANK46           50      0       0      98        0.0%
BANK46              50      0       0      99        0.0%
BITBANK47           50      0       0     100        0.0%
BANK47              50      0       0     101        0.0%
BITBANK48           50      0       0     102        0.0%
BANK48              50      0       0     103        0.0%
BITBANK49           50      0       0     104        0.0%
BANK49              50      0       0     105        0.0%
BITBANK50           50      0       0     106        0.0%
BANK50              50      0       0     107        0.0%


Microchip Technology PIC Macro Assembler V1.45 build -152302408 
Symbol Table                                                                                   Tue Oct 30 08:04:43 2018

            __CFG_CP$OFF 0000                       l61 0039                       l70 00C5  
                     l64 003D                       l73 0144                       l67 00C1  
                     l76 0148                       l86 0602                       _kd 00B4  
                     _ki 00B1                       _kp 00B7             ___ftadd@exp1 0038  
           ___ftadd@exp2 0037              __CFG_LVP$ON 0000             ___ftadd@sign 0036  
                    l351 0597                      l352 059F                      l344 0584  
                    l435 0538                      l375 0317                      l913 0561  
                    l923 0589                      l915 056B                      l925 0591  
                    l917 0570                      l909 055A                      l945 0653  
                    l955 02A0                      l965 02B6                      l983 02E3  
                    l959 02A7                      l985 02ED                      l977 02D0  
                    l995 0309                      l987 02F2                      l997 0313  
                    l989 02F6             __CFG_CPD$OFF 0000                      u815 057F  
                    u835 058C                      u875 05A6                      u795 0566  
                    u995 02D1             __CFG_BORV$LO 0000                      wreg 0009  
           __CFG_ZCD$OFF 0000             ___ftdiv@cntr 0043             ___ftdiv@sign 0048  
                   l1001 0329                     l1005 033B                     l1101 03FA  
                   l1015 0356                     l1031 044F                     l1025 0439  
                   l1053 04A9                     l1045 0490                     l1117 04E4  
                   l1143 052F                     l1135 0514                     l1073 039B  
                   l1145 053B                     l1137 0522                     l1067 0385  
                   l1243 0639                     l1085 03D6                     l1149 0549  
                   l1097 03F2                     l1089 03DE                     l1195 05DE  
                   l1199 05F0                     u1025 02E4                     u1055 02F7  
                   u1305 03FB                     u1155 0461                     u1315 0401  
                   u1235 03A7                     u1085 030A                     u1165 0471  
                   u1245 03B7                     u1405 0530                     u1175 0491  
                   u1505 05D7                     u1185 04A0                     u1265 03DF  
                   u1345 04EB                     u1515 05E8                     u1195 04AA  
                   u1275 03E5                     u1525 05FA                     u1375 0515  
                   u1537 0633                     u1547 0034                     u1557 00BC  
                   u1495 05C6                     u1567 013F                     _TMR1 020C  
           __CFG_WRT$OFF 0000            __CFG_FCMEN$ON 0000                     _main 0608  
           ___ftpack@arg 0071             ___ftpack@exp 0074                     fsr0h 0005  
                   fsr1h 0007                     indf0 0000                     fsr0l 0004  
                   fsr1l 0006                     btemp 007E            __CFG_BOREN$ON 0000  
                   start 0010            __CFG_CSWEN$ON 0000            __CFG_MCLRE$ON 0000  
           ___ftmul@cntr 002A             ___ftmul@sign 002B             ___fttol@exp1 0056  
           ___fttol@lval 0052                    ?_main 0065          __end_of___ftadd 036E  
          __CFG_WDTE$OFF 0000          __end_of___ftdiv 04CB          __end_of___ftmul 0422  
        __end_of___fttol 0552                    _PORTA 000C                    _PORTB 000D  
                  _TRISB 0012            __CFG_PWRTE$ON 0000            ___awtoft@sign 005C  
                  _error 006E          __end_of_formula 0608            ___ftpack@sign 0075  
                  status 0003                    wtemp0 007E          __initialization 0012  
           __end_of_main 0648                   ??_main 0069            ___fttol@sign1 0051  
       __end_of___awtoft 066A                   _ANSELA 1F38                   _ANSELB 1F43  
       __end_of___ftpack 05B6           __CFG_WDTCCS$SC 0000         __end_of___lwtoft 067D  
       __end_of_geterror 0278                ??___ftadd 0032           __CFG_STVREN$ON 0000  
              ??___ftdiv 003F                ??___ftmul 0079                ??___fttol 004D  
  ___ftmul@f3_as_product 0027                ??_formula 0071  __end_of__initialization 002A  
             ___ftadd@f1 002C               ___ftadd@f2 002F               ___ftdiv@f1 003C  
             ___ftdiv@f2 0039               ___ftdiv@f3 0044               ___awtoft@c 0057  
             ___ftmul@f1 0020               ___ftmul@f2 0023               ___fttol@f1 0049  
         __pcstackCOMMON 0070            ?_interrupcion 0070             __pidataBANK1 067D  
             ___lwtoft@c 0079               __pbssBANK0 006B               __pbssBANK1 00A0  
         ??_interrupcion 0070               __pmaintext 0608          __CFG_PPS1WAY$ON 0000  
             __pintentry 0004                ?___awtoft 0057                ?___ftpack 0071  
    __CFG_RSTOSC$HFINT32 0000                ?___lwtoft 0079               _distancia1 00A5  
             _distancia2 006B               _distancia3 00A0                ?_geterror 0070  
   __CFG_SCANE$available 0000                  ___ftadd 0278                  ___ftdiv 0422  
                ___ftmul 036E                  ___fttol 04CB               ??___awtoft 005A  
             ??___ftpack 0076                  __ptext1 002E                  __ptext2 066A  
                __ptext3 04CB                  __ptext4 036E                  __ptext5 0422  
                __ptext6 0278                  __ptext7 0648                  __ptext8 0552  
                __ptext9 05B6               ??___lwtoft 007C                _T1CLKbits 0211  
              _T1CONbits 020E                  _formula 05B6                  _tiempo1 00AE  
                _tiempo2 00AB                  _tiempo3 00A8                  clrloop0 0691  
   end_of_initialization 002A               ??_geterror 005D                  init_ram 068A  
                initloop 068B    __CFG_WDTCPS$WDTCPS_31 0000                _PORTAbits 000C  
              _TRISAbits 0011             _geterror$764 005F             _geterror$765 0062  
   __end_of_interrupcion 0010         __CFG_FEXTOSC$OFF 0000              ___ftdiv@exp 0047  
            ___ftmul@exp 0026      start_initialization 0012         __CFG_LPBOREN$OFF 0000  
            _calibracion 00BC              __pdataBANK1 00B1        __size_of___awtoft 0022  
      __size_of___ftpack 0064                ___latbits 0004        __size_of___lwtoft 0013  
          __pcstackBANK0 0020        __size_of_geterror 024A                 ?___ftadd 002C  
               ?___ftdiv 0039                 ?___ftmul 0020                 ?___fttol 0049  
  __size_of_interrupcion 000C                 ?_formula 0070                 _LATAbits 0016  
               _LATBbits 0017                clear_ram0 0690                 _PIE4bits 071A  
               _PIR4bits 0710             _interrupcion 0004                _velocidad 00BA  
       __size_of___ftadd 00F6         __size_of___ftdiv 00A9         __size_of___ftmul 00B4  
       __size_of___fttol 0087                 ___awtoft 0648                 ___ftpack 0552  
               ___lwtoft 066A         __size_of_formula 0052                 _geterror 002E  
          __size_of_main 0040                 _errorant 00A3     __CFG_WDTCWS$WDTCWS_7 0000  
               int$flags 007E                 main@argc 0065                 main@argv 0067  
             _INTCONbits 000B                 intlevel1 0000        __CFG_CLKOUTEN$OFF 0000  
