

Microchip Technology PIC LITE Macro Assembler V1.45 build -152302408 
                                                                                               Mon Oct 15 21:24:29 2018

Microchip Technology Omniscient Code Generator v1.45 (Free mode) build 201711160504
     1                           	processor	16F18877
     2                           	opt	pw 120
     3                           	opt	lm
     4                           	psect	idataBANK0,global,class=CODE,delta=2
     5                           	psect	cinit,global,class=CODE,merge=1,delta=2
     6                           	psect	bssCOMMON,global,class=COMMON,space=1,delta=1
     7                           	psect	bssBANK0,global,class=BANK0,space=1,delta=1
     8                           	psect	dataBANK0,global,class=BANK0,space=1,delta=1
     9                           	psect	cstackCOMMON,global,class=COMMON,space=1,delta=1
    10                           	psect	cstackBANK0,global,class=BANK0,space=1,delta=1
    11                           	psect	maintext,global,class=CODE,merge=1,split=1,delta=2
    12                           	psect	text1,local,class=CODE,merge=1,delta=2
    13                           	psect	text2,local,class=CODE,merge=1,delta=2
    14                           	psect	text3,local,class=CODE,merge=1,delta=2
    15                           	psect	text4,local,class=CODE,merge=1,delta=2
    16                           	psect	swtext1,local,class=CONST,delta=2
    17                           	psect	text5,local,class=CODE,merge=1,delta=2
    18                           	psect	text6,local,class=CODE,merge=1,delta=2
    19                           	psect	text7,local,class=CODE,merge=1,delta=2
    20                           	psect	text8,local,class=CODE,merge=1,delta=2
    21                           	psect	text9,local,class=CODE,merge=1,delta=2
    22                           	psect	text10,local,class=CODE,merge=1,delta=2
    23                           	psect	text11,local,class=CODE,merge=1,delta=2
    24                           	psect	text12,local,class=CODE,merge=1,delta=2
    25                           	psect	text13,local,class=CODE,merge=1,delta=2
    26                           	psect	text14,local,class=CODE,merge=1,delta=2
    27                           	psect	text15,local,class=CODE,merge=1,delta=2
    28                           	psect	text16,local,class=CODE,merge=1,delta=2
    29                           	psect	text17,local,class=CODE,merge=1,delta=2,group=2
    30                           	psect	text18,local,class=CODE,merge=1,delta=2,group=2
    31                           	psect	intentry,global,class=CODE,delta=2
    32                           	dabs	1,0x7E,2
    33  0000                     
    34                           ; Version 1.45
    35                           ; Generated 16/11/2017 GMT
    36                           ; 
    37                           ; Copyright © 2017, Microchip Technology Inc. and its subsidiaries ("Microchip")
    38                           ; All rights reserved.
    39                           ; 
    40                           ; This software is developed by Microchip Technology Inc. and its subsidiaries ("Microch
      +                          ip").
    41                           ; 
    42                           ; Redistribution and use in source and binary forms, with or without modification, are
    43                           ; permitted provided that the following conditions are met:
    44                           ; 
    45                           ;     1. Redistributions of source code must retain the above copyright notice, this lis
      +                          t of
    46                           ;        conditions and the following disclaimer.
    47                           ; 
    48                           ;     2. Redistributions in binary form must reproduce the above copyright notice, this 
      +                          list
    49                           ;        of conditions and the following disclaimer in the documentation and/or other
    50                           ;        materials provided with the distribution.
    51                           ; 
    52                           ;     3. Microchip's name may not be used to endorse or promote products derived from th
      +                          is
    53                           ;        software without specific prior written permission.
    54                           ; 
    55                           ; THIS SOFTWARE IS PROVIDED BY MICROCHIP "AS IS" AND ANY EXPRESS OR IMPLIED WARRANTIES,
    56                           ; INCLUDING, BUT NOT LIMITED TO, THE IMPLIED WARRANTIES OF MERCHANTABILITY AND FITNESS F
      +                          OR
    57                           ; PURPOSE ARE DISCLAIMED.  IN NO EVENT SHALL MICROCHIP BE LIABLE FOR ANY DIRECT, INDIREC
      +                          T,
    58                           ; INCIDENTAL, SPECIAL, EXEMPLARY, OR CONSEQUENTIAL DAMAGES (INCLUDING BUT NOT LIMITED TO
    59                           ; PROCUREMENT OF SUBSTITUTE GOODS OR SERVICES; LOSS OF USE, DATA OR PROFITS; OR BUSINESS
    60                           ; INTERRUPTION) HOWSOEVER CAUSED AND ON ANY THEORY OF LIABILITY, WHETHER IN CONTRACT, ST
      +                          RICT
    61                           ; LIABILITY, OR TORT (INCLUDING NEGLIGENCE OR OTHERWISE) ARISING IN ANY WAY OUT OF THE U
      +                          SE OF
    62                           ; THIS SOFTWARE, EVEN IF ADVISED OF THE POSSIBILITY OF SUCH DAMAGE.
    63                           ; 
    64                           ; 
    65                           ; Code-generator required, PIC16F18877 Definitions
    66                           ; 
    67                           ; SFR Addresses
    68  0000                     	;# 
    69  0001                     	;# 
    70  0002                     	;# 
    71  0003                     	;# 
    72  0004                     	;# 
    73  0005                     	;# 
    74  0006                     	;# 
    75  0007                     	;# 
    76  0008                     	;# 
    77  0009                     	;# 
    78  000A                     	;# 
    79  000B                     	;# 
    80  000C                     	;# 
    81  000D                     	;# 
    82  000E                     	;# 
    83  000F                     	;# 
    84  0010                     	;# 
    85  0011                     	;# 
    86  0012                     	;# 
    87  0013                     	;# 
    88  0014                     	;# 
    89  0015                     	;# 
    90  0016                     	;# 
    91  0017                     	;# 
    92  0018                     	;# 
    93  0019                     	;# 
    94  001A                     	;# 
    95  001C                     	;# 
    96  001C                     	;# 
    97  001D                     	;# 
    98  001D                     	;# 
    99  001E                     	;# 
   100  001F                     	;# 
   101  008C                     	;# 
   102  008C                     	;# 
   103  008D                     	;# 
   104  008E                     	;# 
   105  008E                     	;# 
   106  008F                     	;# 
   107  0090                     	;# 
   108  0090                     	;# 
   109  0091                     	;# 
   110  0093                     	;# 
   111  0094                     	;# 
   112  0095                     	;# 
   113  0096                     	;# 
   114  0097                     	;# 
   115  0098                     	;# 
   116  0099                     	;# 
   117  009A                     	;# 
   118  009B                     	;# 
   119  009C                     	;# 
   120  009D                     	;# 
   121  009E                     	;# 
   122  010C                     	;# 
   123  010D                     	;# 
   124  010E                     	;# 
   125  010E                     	;# 
   126  010F                     	;# 
   127  0110                     	;# 
   128  0110                     	;# 
   129  0111                     	;# 
   130  0112                     	;# 
   131  0112                     	;# 
   132  0113                     	;# 
   133  0114                     	;# 
   134  0114                     	;# 
   135  0115                     	;# 
   136  0116                     	;# 
   137  0116                     	;# 
   138  0117                     	;# 
   139  0119                     	;# 
   140  0119                     	;# 
   141  0119                     	;# 
   142  011A                     	;# 
   143  011A                     	;# 
   144  011A                     	;# 
   145  011B                     	;# 
   146  011B                     	;# 
   147  011B                     	;# 
   148  011B                     	;# 
   149  011B                     	;# 
   150  011C                     	;# 
   151  011C                     	;# 
   152  011C                     	;# 
   153  011D                     	;# 
   154  011D                     	;# 
   155  011D                     	;# 
   156  011E                     	;# 
   157  011E                     	;# 
   158  011E                     	;# 
   159  011F                     	;# 
   160  011F                     	;# 
   161  011F                     	;# 
   162  011F                     	;# 
   163  011F                     	;# 
   164  018C                     	;# 
   165  018D                     	;# 
   166  018E                     	;# 
   167  018F                     	;# 
   168  0190                     	;# 
   169  0191                     	;# 
   170  0192                     	;# 
   171  0196                     	;# 
   172  0197                     	;# 
   173  0198                     	;# 
   174  0199                     	;# 
   175  019A                     	;# 
   176  019B                     	;# 
   177  019C                     	;# 
   178  020C                     	;# 
   179  020C                     	;# 
   180  020D                     	;# 
   181  020E                     	;# 
   182  020F                     	;# 
   183  020F                     	;# 
   184  0210                     	;# 
   185  0210                     	;# 
   186  0211                     	;# 
   187  0211                     	;# 
   188  0212                     	;# 
   189  0212                     	;# 
   190  0213                     	;# 
   191  0214                     	;# 
   192  0215                     	;# 
   193  0215                     	;# 
   194  0216                     	;# 
   195  0216                     	;# 
   196  0217                     	;# 
   197  0217                     	;# 
   198  0218                     	;# 
   199  0218                     	;# 
   200  0219                     	;# 
   201  021A                     	;# 
   202  021B                     	;# 
   203  021B                     	;# 
   204  021C                     	;# 
   205  021C                     	;# 
   206  021D                     	;# 
   207  021D                     	;# 
   208  021E                     	;# 
   209  021F                     	;# 
   210  028C                     	;# 
   211  028C                     	;# 
   212  028D                     	;# 
   213  028D                     	;# 
   214  028E                     	;# 
   215  028F                     	;# 
   216  0290                     	;# 
   217  0290                     	;# 
   218  0291                     	;# 
   219  0292                     	;# 
   220  0292                     	;# 
   221  0293                     	;# 
   222  0293                     	;# 
   223  0294                     	;# 
   224  0295                     	;# 
   225  0296                     	;# 
   226  0296                     	;# 
   227  0297                     	;# 
   228  0298                     	;# 
   229  0298                     	;# 
   230  0299                     	;# 
   231  0299                     	;# 
   232  029A                     	;# 
   233  029B                     	;# 
   234  029C                     	;# 
   235  029C                     	;# 
   236  029D                     	;# 
   237  030C                     	;# 
   238  030C                     	;# 
   239  030D                     	;# 
   240  030E                     	;# 
   241  030F                     	;# 
   242  0310                     	;# 
   243  0310                     	;# 
   244  0311                     	;# 
   245  0312                     	;# 
   246  0313                     	;# 
   247  0314                     	;# 
   248  0314                     	;# 
   249  0315                     	;# 
   250  0316                     	;# 
   251  0317                     	;# 
   252  0318                     	;# 
   253  0318                     	;# 
   254  0319                     	;# 
   255  031A                     	;# 
   256  031B                     	;# 
   257  031C                     	;# 
   258  031C                     	;# 
   259  031D                     	;# 
   260  031E                     	;# 
   261  031F                     	;# 
   262  038C                     	;# 
   263  038D                     	;# 
   264  038E                     	;# 
   265  0390                     	;# 
   266  0391                     	;# 
   267  0392                     	;# 
   268  040C                     	;# 
   269  040D                     	;# 
   270  040E                     	;# 
   271  040F                     	;# 
   272  0410                     	;# 
   273  0411                     	;# 
   274  0416                     	;# 
   275  0416                     	;# 
   276  0417                     	;# 
   277  0418                     	;# 
   278  0418                     	;# 
   279  0419                     	;# 
   280  041A                     	;# 
   281  041A                     	;# 
   282  041B                     	;# 
   283  041C                     	;# 
   284  041C                     	;# 
   285  041D                     	;# 
   286  041E                     	;# 
   287  041F                     	;# 
   288  048C                     	;# 
   289  048C                     	;# 
   290  048D                     	;# 
   291  048E                     	;# 
   292  048F                     	;# 
   293  048F                     	;# 
   294  0490                     	;# 
   295  0491                     	;# 
   296  0492                     	;# 
   297  0492                     	;# 
   298  0493                     	;# 
   299  0494                     	;# 
   300  0495                     	;# 
   301  0495                     	;# 
   302  0496                     	;# 
   303  0497                     	;# 
   304  0498                     	;# 
   305  0499                     	;# 
   306  049A                     	;# 
   307  049B                     	;# 
   308  049C                     	;# 
   309  049D                     	;# 
   310  050C                     	;# 
   311  050C                     	;# 
   312  050D                     	;# 
   313  050E                     	;# 
   314  050F                     	;# 
   315  050F                     	;# 
   316  0510                     	;# 
   317  0511                     	;# 
   318  0512                     	;# 
   319  0512                     	;# 
   320  0513                     	;# 
   321  0514                     	;# 
   322  0515                     	;# 
   323  0515                     	;# 
   324  0516                     	;# 
   325  0517                     	;# 
   326  0518                     	;# 
   327  0519                     	;# 
   328  051A                     	;# 
   329  051B                     	;# 
   330  051C                     	;# 
   331  051D                     	;# 
   332  058C                     	;# 
   333  058C                     	;# 
   334  058D                     	;# 
   335  058E                     	;# 
   336  058F                     	;# 
   337  058F                     	;# 
   338  0590                     	;# 
   339  0591                     	;# 
   340  0592                     	;# 
   341  0593                     	;# 
   342  060C                     	;# 
   343  060D                     	;# 
   344  060E                     	;# 
   345  060F                     	;# 
   346  0610                     	;# 
   347  0611                     	;# 
   348  0612                     	;# 
   349  0613                     	;# 
   350  0614                     	;# 
   351  0616                     	;# 
   352  0617                     	;# 
   353  0618                     	;# 
   354  0619                     	;# 
   355  061A                     	;# 
   356  061B                     	;# 
   357  061C                     	;# 
   358  061D                     	;# 
   359  061E                     	;# 
   360  068C                     	;# 
   361  068D                     	;# 
   362  068E                     	;# 
   363  068F                     	;# 
   364  0690                     	;# 
   365  0691                     	;# 
   366  0692                     	;# 
   367  0693                     	;# 
   368  0694                     	;# 
   369  070C                     	;# 
   370  070D                     	;# 
   371  070E                     	;# 
   372  070F                     	;# 
   373  0710                     	;# 
   374  0711                     	;# 
   375  0712                     	;# 
   376  0713                     	;# 
   377  0714                     	;# 
   378  0716                     	;# 
   379  0717                     	;# 
   380  0718                     	;# 
   381  0719                     	;# 
   382  071A                     	;# 
   383  071B                     	;# 
   384  071C                     	;# 
   385  071D                     	;# 
   386  071E                     	;# 
   387  0796                     	;# 
   388  0797                     	;# 
   389  0798                     	;# 
   390  0799                     	;# 
   391  079A                     	;# 
   392  079B                     	;# 
   393  080C                     	;# 
   394  080D                     	;# 
   395  080E                     	;# 
   396  080F                     	;# 
   397  0810                     	;# 
   398  0811                     	;# 
   399  0812                     	;# 
   400  0813                     	;# 
   401  0814                     	;# 
   402  081A                     	;# 
   403  081B                     	;# 
   404  081C                     	;# 
   405  081D                     	;# 
   406  081E                     	;# 
   407  081F                     	;# 
   408  088C                     	;# 
   409  088D                     	;# 
   410  088E                     	;# 
   411  088F                     	;# 
   412  0890                     	;# 
   413  0891                     	;# 
   414  0892                     	;# 
   415  0893                     	;# 
   416  0895                     	;# 
   417  0896                     	;# 
   418  0897                     	;# 
   419  0898                     	;# 
   420  0899                     	;# 
   421  089A                     	;# 
   422  089B                     	;# 
   423  090C                     	;# 
   424  090E                     	;# 
   425  090F                     	;# 
   426  091F                     	;# 
   427  098F                     	;# 
   428  098F                     	;# 
   429  0990                     	;# 
   430  0991                     	;# 
   431  0992                     	;# 
   432  0993                     	;# 
   433  0994                     	;# 
   434  0995                     	;# 
   435  0996                     	;# 
   436  0997                     	;# 
   437  1E0F                     	;# 
   438  1E10                     	;# 
   439  1E11                     	;# 
   440  1E12                     	;# 
   441  1E13                     	;# 
   442  1E14                     	;# 
   443  1E15                     	;# 
   444  1E16                     	;# 
   445  1E17                     	;# 
   446  1E18                     	;# 
   447  1E19                     	;# 
   448  1E1A                     	;# 
   449  1E1B                     	;# 
   450  1E1C                     	;# 
   451  1E1D                     	;# 
   452  1E1E                     	;# 
   453  1E1F                     	;# 
   454  1E20                     	;# 
   455  1E21                     	;# 
   456  1E22                     	;# 
   457  1E23                     	;# 
   458  1E24                     	;# 
   459  1E25                     	;# 
   460  1E26                     	;# 
   461  1E27                     	;# 
   462  1E28                     	;# 
   463  1E29                     	;# 
   464  1E2A                     	;# 
   465  1E2B                     	;# 
   466  1E2C                     	;# 
   467  1E2D                     	;# 
   468  1E2E                     	;# 
   469  1E2F                     	;# 
   470  1E30                     	;# 
   471  1E31                     	;# 
   472  1E32                     	;# 
   473  1E33                     	;# 
   474  1E34                     	;# 
   475  1E35                     	;# 
   476  1E36                     	;# 
   477  1E37                     	;# 
   478  1E8F                     	;# 
   479  1E90                     	;# 
   480  1E91                     	;# 
   481  1E92                     	;# 
   482  1E93                     	;# 
   483  1E94                     	;# 
   484  1E95                     	;# 
   485  1E96                     	;# 
   486  1E97                     	;# 
   487  1E9C                     	;# 
   488  1E9D                     	;# 
   489  1E9E                     	;# 
   490  1EA1                     	;# 
   491  1EA2                     	;# 
   492  1EA3                     	;# 
   493  1EA4                     	;# 
   494  1EA5                     	;# 
   495  1EA9                     	;# 
   496  1EAA                     	;# 
   497  1EAB                     	;# 
   498  1EAC                     	;# 
   499  1EB1                     	;# 
   500  1EB2                     	;# 
   501  1EB3                     	;# 
   502  1EB8                     	;# 
   503  1EB9                     	;# 
   504  1EBA                     	;# 
   505  1EBB                     	;# 
   506  1EBC                     	;# 
   507  1EBD                     	;# 
   508  1EBE                     	;# 
   509  1EC3                     	;# 
   510  1EC5                     	;# 
   511  1EC6                     	;# 
   512  1EC7                     	;# 
   513  1EC8                     	;# 
   514  1EC9                     	;# 
   515  1ECA                     	;# 
   516  1ECB                     	;# 
   517  1ECC                     	;# 
   518  1F10                     	;# 
   519  1F11                     	;# 
   520  1F12                     	;# 
   521  1F13                     	;# 
   522  1F14                     	;# 
   523  1F15                     	;# 
   524  1F16                     	;# 
   525  1F17                     	;# 
   526  1F18                     	;# 
   527  1F19                     	;# 
   528  1F1A                     	;# 
   529  1F1B                     	;# 
   530  1F1C                     	;# 
   531  1F1D                     	;# 
   532  1F1E                     	;# 
   533  1F1F                     	;# 
   534  1F20                     	;# 
   535  1F21                     	;# 
   536  1F22                     	;# 
   537  1F23                     	;# 
   538  1F24                     	;# 
   539  1F25                     	;# 
   540  1F26                     	;# 
   541  1F27                     	;# 
   542  1F28                     	;# 
   543  1F29                     	;# 
   544  1F2A                     	;# 
   545  1F2B                     	;# 
   546  1F2C                     	;# 
   547  1F2D                     	;# 
   548  1F2E                     	;# 
   549  1F2F                     	;# 
   550  1F30                     	;# 
   551  1F31                     	;# 
   552  1F32                     	;# 
   553  1F38                     	;# 
   554  1F39                     	;# 
   555  1F3A                     	;# 
   556  1F3B                     	;# 
   557  1F3C                     	;# 
   558  1F3D                     	;# 
   559  1F3E                     	;# 
   560  1F3F                     	;# 
   561  1F40                     	;# 
   562  1F41                     	;# 
   563  1F43                     	;# 
   564  1F44                     	;# 
   565  1F45                     	;# 
   566  1F46                     	;# 
   567  1F47                     	;# 
   568  1F48                     	;# 
   569  1F49                     	;# 
   570  1F4A                     	;# 
   571  1F4B                     	;# 
   572  1F4C                     	;# 
   573  1F4E                     	;# 
   574  1F4F                     	;# 
   575  1F50                     	;# 
   576  1F51                     	;# 
   577  1F52                     	;# 
   578  1F53                     	;# 
   579  1F54                     	;# 
   580  1F55                     	;# 
   581  1F56                     	;# 
   582  1F57                     	;# 
   583  1F59                     	;# 
   584  1F5A                     	;# 
   585  1F5B                     	;# 
   586  1F5C                     	;# 
   587  1F5D                     	;# 
   588  1F61                     	;# 
   589  1F62                     	;# 
   590  1F64                     	;# 
   591  1F65                     	;# 
   592  1F66                     	;# 
   593  1F67                     	;# 
   594  1F68                     	;# 
   595  1F69                     	;# 
   596  1F6A                     	;# 
   597  1F6B                     	;# 
   598  1F6C                     	;# 
   599  1F6D                     	;# 
   600  1FE4                     	;# 
   601  1FE5                     	;# 
   602  1FE6                     	;# 
   603  1FE7                     	;# 
   604  1FE8                     	;# 
   605  1FE9                     	;# 
   606  1FEA                     	;# 
   607  1FEB                     	;# 
   608  1FED                     	;# 
   609  1FEE                     	;# 
   610  1FEF                     	;# 
   611                           
   612                           	psect	idataBANK0
   613  0468                     __pidataBANK0:	
   614                           
   615                           ;initializer for _chr
   616  0468  3409               	retlw	9
   617  0469  3400               	retlw	0
   618                           
   619                           ;initializer for _cmin
   620  046A  3418               	retlw	24
   621  046B  3400               	retlw	0
   622  000B                     _INTCONbits	set	11
   623  0013                     _TRISC	set	19
   624  000E                     _PORTC	set	14
   625  0014                     _TRISD	set	20
   626  0011                     _TRISA	set	17
   627  000F                     _PORTD	set	15
   628  0018                     _LATCbits	set	24
   629  000C                     _PORTA	set	12
   630  020C                     _TMR1	set	524
   631  020E                     _T1CONbits	set	526
   632  0211                     _T1CLKbits	set	529
   633  020E                     _T1CON	set	526
   634  071A                     _PIE4bits	set	1818
   635  0710                     _PIR4bits	set	1808
   636  0893                     _OSCFRQbits	set	2195
   637  1F4E                     _ANSELC	set	8014
   638  1F59                     _ANSELD	set	8025
   639  1F38                     _ANSELA	set	7992
   640                           
   641                           ; #config settings
   642  0000                     
   643                           	psect	cinit
   644  0063                     start_initialization:	
   645  0063                     __initialization:	
   646                           
   647                           ; Initialize objects allocated to BANK0
   648  0063  3184  2468  3180   	fcall	__pidataBANK0	;fetch initializer
   649  0066  00BA               	movwf	__pdataBANK0& (0+127)
   650  0067  3184  2469  3180   	fcall	__pidataBANK0+1	;fetch initializer
   651  006A  00BB               	movwf	(__pdataBANK0+1)& (0+127)
   652  006B  3184  246A  3180   	fcall	__pidataBANK0+2	;fetch initializer
   653  006E  00BC               	movwf	(__pdataBANK0+2)& (0+127)
   654  006F  3184  246B         	fcall	__pidataBANK0+3	;fetch initializer
   655  0071  00BD               	movwf	(__pdataBANK0+3)& (0+127)
   656                           
   657                           ; Clear objects allocated to COMMON
   658  0072  01F9               	clrf	__pbssCOMMON& (0+127)
   659  0073  01FA               	clrf	(__pbssCOMMON+1)& (0+127)
   660                           
   661                           ; Clear objects allocated to BANK0
   662  0074  01B4               	clrf	__pbssBANK0& (0+127)
   663  0075  01B5               	clrf	(__pbssBANK0+1)& (0+127)
   664  0076  01B6               	clrf	(__pbssBANK0+2)& (0+127)
   665  0077  01B7               	clrf	(__pbssBANK0+3)& (0+127)
   666  0078  01B8               	clrf	(__pbssBANK0+4)& (0+127)
   667  0079  01B9               	clrf	(__pbssBANK0+5)& (0+127)
   668  007A                     end_of_initialization:	
   669                           ;End of C runtime variable initialization code
   670                           
   671  007A                     __end_of__initialization:	
   672  007A  107E               	bcf	int$flags,0	;clear compiler interrupt flag (level 1)
   673  007B  0140               	movlb	0
   674  007C  3181  29DD         	ljmp	_main	;jump to C main() function
   675                           
   676                           	psect	bssCOMMON
   677  0079                     __pbssCOMMON:	
   678  0079                     _cmils:	
   679  0079                     	ds	2
   680                           
   681                           	psect	bssBANK0
   682  0034                     __pbssBANK0:	
   683  0034                     _decenas:	
   684  0034                     	ds	2
   685  0036                     _unidades:	
   686  0036                     	ds	2
   687  0038                     _cseg:	
   688  0038                     	ds	2
   689                           
   690                           	psect	dataBANK0
   691  003A                     __pdataBANK0:	
   692  003A                     _chr:	
   693  003A                     	ds	2
   694  003C                     _cmin:	
   695  003C                     	ds	2
   696                           
   697                           	psect	cstackCOMMON
   698  0070                     __pcstackCOMMON:	
   699  0070                     ?_interrupcion:	
   700  0070                     ??_interrupcion:	
   701                           ; 1 bytes @ 0x0
   702                           
   703  0070                     ?_off:	
   704                           ; 1 bytes @ 0x0
   705                           
   706  0070                     ?_espera:	
   707                           ; 1 bytes @ 0x0
   708                           
   709  0070                     ?_leyenda:	
   710                           ; 1 bytes @ 0x0
   711                           
   712  0070                     ?_cero:	
   713                           ; 1 bytes @ 0x0
   714                           
   715  0070                     ?_uno:	
   716                           ; 1 bytes @ 0x0
   717                           
   718  0070                     ?_dos:	
   719                           ; 1 bytes @ 0x0
   720                           
   721  0070                     ?_tres:	
   722                           ; 1 bytes @ 0x0
   723                           
   724  0070                     ?_cuatro:	
   725                           ; 1 bytes @ 0x0
   726                           
   727  0070                     ?_cinco:	
   728                           ; 1 bytes @ 0x0
   729                           
   730  0070                     ?_seis:	
   731                           ; 1 bytes @ 0x0
   732                           
   733  0070                     ?_siete:	
   734                           ; 1 bytes @ 0x0
   735                           
   736  0070                     ?_ocho:	
   737                           ; 1 bytes @ 0x0
   738                           
   739  0070                     ?_nueve:	
   740                           ; 1 bytes @ 0x0
   741                           
   742  0070                     ?_puntos:	
   743                           ; 1 bytes @ 0x0
   744                           
   745  0070                     ?_main:	
   746                           ; 1 bytes @ 0x0
   747                           
   748                           
   749                           ; 1 bytes @ 0x0
   750  0070                     	ds	2
   751  0072                     ??_off:	
   752  0072                     ??_espera:	
   753                           ; 1 bytes @ 0x2
   754                           
   755  0072                     ?___awdiv:	
   756                           ; 1 bytes @ 0x2
   757                           
   758  0072                     ___awdiv@divisor:	
   759                           ; 2 bytes @ 0x2
   760                           
   761                           
   762                           ; 2 bytes @ 0x2
   763  0072                     	ds	1
   764  0073                     ??_leyenda:	
   765  0073                     ??_cero:	
   766                           ; 1 bytes @ 0x3
   767                           
   768  0073                     ??_uno:	
   769                           ; 1 bytes @ 0x3
   770                           
   771  0073                     ??_dos:	
   772                           ; 1 bytes @ 0x3
   773                           
   774  0073                     ??_tres:	
   775                           ; 1 bytes @ 0x3
   776                           
   777  0073                     ??_cuatro:	
   778                           ; 1 bytes @ 0x3
   779                           
   780  0073                     ??_cinco:	
   781                           ; 1 bytes @ 0x3
   782                           
   783  0073                     ??_seis:	
   784                           ; 1 bytes @ 0x3
   785                           
   786  0073                     ??_siete:	
   787                           ; 1 bytes @ 0x3
   788                           
   789  0073                     ??_ocho:	
   790                           ; 1 bytes @ 0x3
   791                           
   792  0073                     ??_nueve:	
   793                           ; 1 bytes @ 0x3
   794                           
   795  0073                     ??_puntos:	
   796                           ; 1 bytes @ 0x3
   797                           
   798  0073                     ?_numero:	
   799                           ; 1 bytes @ 0x3
   800                           
   801  0073                     numero@n:	
   802                           ; 1 bytes @ 0x3
   803                           
   804                           
   805                           ; 2 bytes @ 0x3
   806  0073                     	ds	1
   807  0074                     ___awdiv@dividend:	
   808                           
   809                           ; 2 bytes @ 0x4
   810  0074                     	ds	1
   811  0075                     ??_numero:	
   812                           
   813                           ; 1 bytes @ 0x5
   814  0075                     	ds	1
   815  0076                     ??___awdiv:	
   816                           
   817                           ; 1 bytes @ 0x6
   818  0076                     	ds	1
   819  0077                     ??___wmul:	
   820  0077                     ___wmul@product:	
   821                           ; 1 bytes @ 0x7
   822                           
   823                           
   824                           ; 2 bytes @ 0x7
   825  0077                     	ds	2
   826                           
   827                           	psect	cstackBANK0
   828  0020                     __pcstackBANK0:	
   829  0020                     ___awdiv@counter:	
   830                           
   831                           ; 1 bytes @ 0x0
   832  0020                     	ds	1
   833  0021                     ___awdiv@sign:	
   834                           
   835                           ; 1 bytes @ 0x1
   836  0021                     	ds	1
   837  0022                     ___awdiv@quotient:	
   838                           
   839                           ; 2 bytes @ 0x2
   840  0022                     	ds	2
   841  0024                     ?___wmul:	
   842  0024                     ___wmul@multiplier:	
   843                           ; 2 bytes @ 0x4
   844                           
   845                           
   846                           ; 2 bytes @ 0x4
   847  0024                     	ds	2
   848  0026                     ___wmul@multiplicand:	
   849                           
   850                           ; 2 bytes @ 0x6
   851  0026                     	ds	2
   852  0028                     ?_impresiont:	
   853  0028                     impresiont@hr:	
   854                           ; 1 bytes @ 0x8
   855                           
   856                           
   857                           ; 2 bytes @ 0x8
   858  0028                     	ds	2
   859  002A                     impresiont@min:	
   860                           
   861                           ; 2 bytes @ 0xA
   862  002A                     	ds	2
   863  002C                     impresiont@seg:	
   864                           
   865                           ; 2 bytes @ 0xC
   866  002C                     	ds	2
   867  002E                     ??_impresiont:	
   868                           
   869                           ; 1 bytes @ 0xE
   870  002E                     	ds	2
   871  0030                     ??_main:	
   872                           
   873                           ; 1 bytes @ 0x10
   874  0030                     	ds	2
   875  0032                     main@v:	
   876                           
   877                           ; 2 bytes @ 0x12
   878  0032                     	ds	2
   879                           
   880                           	psect	maintext
   881  01DD                     __pmaintext:	
   882 ;;
   883 ;;Main: autosize = 0, tempsize = 2, incstack = 0, save=0
   884 ;;
   885 ;; *************** function _main *****************
   886 ;; Defined at:
   887 ;;		line 414 in file "main.c"
   888 ;; Parameters:    Size  Location     Type
   889 ;;		None
   890 ;; Auto vars:     Size  Location     Type
   891 ;;  v               2   18[BANK0 ] int 
   892 ;; Return value:  Size  Location     Type
   893 ;;                  1    wreg      void 
   894 ;; Registers used:
   895 ;;		wreg, fsr0l, fsr0h, status,2, status,0, pclath, cstack
   896 ;; Tracked objects:
   897 ;;		On entry : B3F/0
   898 ;;		On exit  : 0/0
   899 ;;		Unchanged: 0/0
   900 ;; Data sizes:     COMMON   BANK0   BANK1   BANK2   BANK3   BANK4   BANK5   BANK6   BANK7   BANK8   BANK9  BANK10  BANK1
      +1  BANK12  BANK13  BANK14  BANK15  BANK16  BANK17  BANK18  BANK19  BANK20  BANK21  BANK22  BANK23  BANK24  BANK25  BANK2
      +6  BANK27  BANK28  BANK29  BANK30  BANK31  BANK32  BANK33  BANK34  BANK35  BANK36  BANK37  BANK38  BANK39  BANK40  BANK4
      +1  BANK42  BANK43  BANK44  BANK45  BANK46  BANK47  BANK48  BANK49  BANK50
   901 ;;      Params:         0       0       0       0       0       0       0       0       0       0       0       0       
      +0       0       0       0       0       0       0       0       0       0       0       0       0       0       0       
      +0       0       0       0       0       0       0       0       0       0       0       0       0       0       0       
      +0       0       0       0       0       0       0       0       0       0
   902 ;;      Locals:         0       2       0       0       0       0       0       0       0       0       0       0       
      +0       0       0       0       0       0       0       0       0       0       0       0       0       0       0       
      +0       0       0       0       0       0       0       0       0       0       0       0       0       0       0       
      +0       0       0       0       0       0       0       0       0       0
   903 ;;      Temps:          0       2       0       0       0       0       0       0       0       0       0       0       
      +0       0       0       0       0       0       0       0       0       0       0       0       0       0       0       
      +0       0       0       0       0       0       0       0       0       0       0       0       0       0       0       
      +0       0       0       0       0       0       0       0       0       0
   904 ;;      Totals:         0       4       0       0       0       0       0       0       0       0       0       0       
      +0       0       0       0       0       0       0       0       0       0       0       0       0       0       0       
      +0       0       0       0       0       0       0       0       0       0       0       0       0       0       0       
      +0       0       0       0       0       0       0       0       0       0
   905 ;;Total ram usage:        4 bytes
   906 ;; Hardware stack levels required when called:    5
   907 ;; This function calls:
   908 ;;		_impresiont
   909 ;;		_leyenda
   910 ;; This function is called by:
   911 ;;		Startup code after reset
   912 ;; This function uses a non-reentrant model
   913 ;;
   914                           
   915                           
   916                           ;psect for function _main
   917  01DD                     _main:	
   918                           
   919                           ;main.c: 416: OSCFRQbits.HFFRQ=0b110;
   920                           
   921                           ;incstack = 0
   922                           ; Regs used in _main: [wreg-fsr0h+status,2+status,0+pclath+cstack]
   923  01DD  0151               	movlb	17	; select bank17
   924  01DE  0813               	movf	19,w	;volatile
   925  01DF  39F8               	andlw	-8
   926  01E0  3806               	iorlw	6
   927  01E1  0093               	movwf	19	;volatile
   928                           
   929                           ;main.c: 420: PORTA=0;
   930  01E2  0140               	movlb	0	; select bank0
   931  01E3  018C               	clrf	12	;volatile
   932                           
   933                           ;main.c: 421: TRISA=0;
   934  01E4  0191               	clrf	17	;volatile
   935                           
   936                           ;main.c: 422: ANSELA=0;
   937  01E5  017E               	movlb	62	; select bank62
   938  01E6  01B8               	clrf	56	;volatile
   939                           
   940                           ;main.c: 424: PORTD=0;
   941  01E7  0140               	movlb	0	; select bank0
   942  01E8  018F               	clrf	15	;volatile
   943                           
   944                           ;main.c: 425: TRISD=0;
   945  01E9  0194               	clrf	20	;volatile
   946                           
   947                           ;main.c: 426: ANSELD=0;
   948  01EA  017E               	movlb	62	; select bank62
   949  01EB  01D9               	clrf	89	;volatile
   950                           
   951                           ;main.c: 428: PORTC=0;
   952  01EC  0140               	movlb	0	; select bank0
   953  01ED  018E               	clrf	14	;volatile
   954                           
   955                           ;main.c: 429: TRISC=0b00010000;
   956  01EE  3010               	movlw	16
   957  01EF  0093               	movwf	19	;volatile
   958                           
   959                           ;main.c: 430: ANSELC=0;
   960  01F0  017E               	movlb	62	; select bank62
   961  01F1  01CE               	clrf	78	;volatile
   962                           
   963                           ;main.c: 434: T1CON=0b00110110;
   964  01F2  3036               	movlw	54
   965  01F3  0144               	movlb	4	; select bank4
   966  01F4  008E               	movwf	14	;volatile
   967                           
   968                           ;main.c: 437: T1CLKbits.CS=0b0001;
   969  01F5  0811               	movf	17,w	;volatile
   970  01F6  39F0               	andlw	-16
   971  01F7  3801               	iorlw	1
   972  01F8  0091               	movwf	17	;volatile
   973                           
   974                           ;main.c: 440: PIE4bits.TMR1IE=1;
   975  01F9  014E               	movlb	14	; select bank14
   976  01FA  141A               	bsf	26,0	;volatile
   977                           
   978                           ;main.c: 441: PIR4bits.TMR1IF=0;
   979  01FB  1010               	bcf	16,0	;volatile
   980                           
   981                           ;main.c: 442: INTCONbits.GIE=1;
   982  01FC  178B               	bsf	11,7	;volatile
   983                           
   984                           ;main.c: 443: INTCONbits.PEIE=1;
   985  01FD  170B               	bsf	11,6	;volatile
   986                           
   987                           ;main.c: 445: TMR1=536;
   988  01FE  3002               	movlw	2
   989  01FF  0144               	movlb	4	; select bank4
   990  0200  008D               	movwf	13	;volatile
   991  0201  3018               	movlw	24
   992  0202  008C               	movwf	12	;volatile
   993                           
   994                           ;main.c: 447: T1CONbits.ON=1;
   995  0203  140E               	bsf	14,0	;volatile
   996                           
   997                           ;main.c: 448: int v=235;
   998  0204  30EB               	movlw	235
   999  0205  0140               	movlb	0	; select bank0
  1000  0206  00B2               	movwf	main@v
  1001  0207  3000               	movlw	0
  1002  0208  00B3               	movwf	main@v+1
  1003  0209                     l1791:	
  1004                           ;main.c: 450: while(1){
  1005                           
  1006                           
  1007                           ;main.c: 459: impresiont(chr,cmin,cseg);
  1008  0209  0140               	movlb	0	; select bank0
  1009  020A  083B               	movf	_chr+1,w
  1010  020B  00A9               	movwf	impresiont@hr+1
  1011  020C  083A               	movf	_chr,w
  1012  020D  00A8               	movwf	impresiont@hr
  1013  020E  083D               	movf	_cmin+1,w
  1014  020F  00AB               	movwf	impresiont@min+1
  1015  0210  083C               	movf	_cmin,w
  1016  0211  00AA               	movwf	impresiont@min
  1017  0212  0839               	movf	_cseg+1,w
  1018  0213  00AD               	movwf	impresiont@seg+1
  1019  0214  0838               	movf	_cseg,w
  1020  0215  00AC               	movwf	impresiont@seg
  1021  0216  3180  207E  3181   	fcall	_impresiont
  1022                           
  1023                           ;main.c: 460: leyenda();
  1024  0219  3182  2229  3181   	fcall	_leyenda
  1025                           
  1026                           ;main.c: 485: _delay((unsigned long)((45)*(32000000/4000.0)));
  1027  021C  3002               	movlw	2
  1028  021D  0140               	movlb	0	; select bank0
  1029  021E  00B1               	movwf	??_main+1
  1030  021F  30D4               	movlw	212
  1031  0220  00B0               	movwf	??_main
  1032  0221  3085               	movlw	133
  1033  0222                     u607:	
  1034  0222  0B89               	decfsz	9,f
  1035  0223  2A22               	goto	u607
  1036  0224  0BB0               	decfsz	??_main,f
  1037  0225  2A22               	goto	u607
  1038  0226  0BB1               	decfsz	??_main+1,f
  1039  0227  2A22               	goto	u607
  1040  0228  2A09               	goto	l1791
  1041  0229                     __end_of_main:	
  1042                           ;main.c: 487: }
  1043                           ;main.c: 489: return;
  1044                           
  1045                           
  1046                           	psect	text1
  1047  0229                     __ptext1:	
  1048 ;; *************** function _leyenda *****************
  1049 ;; Defined at:
  1050 ;;		line 128 in file "main.c"
  1051 ;; Parameters:    Size  Location     Type
  1052 ;;		None
  1053 ;; Auto vars:     Size  Location     Type
  1054 ;;		None
  1055 ;; Return value:  Size  Location     Type
  1056 ;;                  1    wreg      void 
  1057 ;; Registers used:
  1058 ;;		wreg, status,2, status,0, pclath, cstack
  1059 ;; Tracked objects:
  1060 ;;		On entry : 0/0
  1061 ;;		On exit  : 0/0
  1062 ;;		Unchanged: 0/0
  1063 ;; Data sizes:     COMMON   BANK0   BANK1   BANK2   BANK3   BANK4   BANK5   BANK6   BANK7   BANK8   BANK9  BANK10  BANK1
      +1  BANK12  BANK13  BANK14  BANK15  BANK16  BANK17  BANK18  BANK19  BANK20  BANK21  BANK22  BANK23  BANK24  BANK25  BANK2
      +6  BANK27  BANK28  BANK29  BANK30  BANK31  BANK32  BANK33  BANK34  BANK35  BANK36  BANK37  BANK38  BANK39  BANK40  BANK4
      +1  BANK42  BANK43  BANK44  BANK45  BANK46  BANK47  BANK48  BANK49  BANK50
  1064 ;;      Params:         0       0       0       0       0       0       0       0       0       0       0       0       
      +0       0       0       0       0       0       0       0       0       0       0       0       0       0       0       
      +0       0       0       0       0       0       0       0       0       0       0       0       0       0       0       
      +0       0       0       0       0       0       0       0       0       0
  1065 ;;      Locals:         0       0       0       0       0       0       0       0       0       0       0       0       
      +0       0       0       0       0       0       0       0       0       0       0       0       0       0       0       
      +0       0       0       0       0       0       0       0       0       0       0       0       0       0       0       
      +0       0       0       0       0       0       0       0       0       0
  1066 ;;      Temps:          0       0       0       0       0       0       0       0       0       0       0       0       
      +0       0       0       0       0       0       0       0       0       0       0       0       0       0       0       
      +0       0       0       0       0       0       0       0       0       0       0       0       0       0       0       
      +0       0       0       0       0       0       0       0       0       0
  1067 ;;      Totals:         0       0       0       0       0       0       0       0       0       0       0       0       
      +0       0       0       0       0       0       0       0       0       0       0       0       0       0       0       
      +0       0       0       0       0       0       0       0       0       0       0       0       0       0       0       
      +0       0       0       0       0       0       0       0       0       0
  1068 ;;Total ram usage:        0 bytes
  1069 ;; Hardware stack levels used:    1
  1070 ;; Hardware stack levels required when called:    2
  1071 ;; This function calls:
  1072 ;;		_espera
  1073 ;;		_off
  1074 ;; This function is called by:
  1075 ;;		_main
  1076 ;; This function uses a non-reentrant model
  1077 ;;
  1078                           
  1079                           
  1080                           ;psect for function _leyenda
  1081  0229                     _leyenda:	
  1082                           
  1083                           ;main.c: 129: LATCbits.LATC0=0;
  1084                           
  1085                           ;incstack = 0
  1086                           ; Regs used in _leyenda: [wreg+status,2+status,0+pclath+cstack]
  1087  0229  0140               	movlb	0	; select bank0
  1088  022A  1018               	bcf	24,0	;volatile
  1089                           
  1090                           ;main.c: 130: PORTD=0b01111000;
  1091  022B  3078               	movlw	120
  1092  022C  008F               	movwf	15	;volatile
  1093                           
  1094                           ;main.c: 131: espera();
  1095  022D  3184  245F  3182   	fcall	_espera
  1096                           
  1097                           ;main.c: 132: off();
  1098  0230  3184  246C  3182   	fcall	_off
  1099                           
  1100                           ;main.c: 133: LATCbits.LATC0=0;
  1101  0233  0140               	movlb	0	; select bank0
  1102  0234  1018               	bcf	24,0	;volatile
  1103                           
  1104                           ;main.c: 134: PORTD=0b11111100;
  1105  0235  30FC               	movlw	252
  1106  0236  008F               	movwf	15	;volatile
  1107                           
  1108                           ;main.c: 135: espera();
  1109  0237  3184  245F  3182   	fcall	_espera
  1110                           
  1111                           ;main.c: 136: off();
  1112  023A  3184  246C  3182   	fcall	_off
  1113                           
  1114                           ;main.c: 137: LATCbits.LATC0=1;
  1115  023D  0140               	movlb	0	; select bank0
  1116  023E  1418               	bsf	24,0	;volatile
  1117                           
  1118                           ;main.c: 138: PORTD=0b11111110;
  1119  023F  30FE               	movlw	254
  1120  0240  008F               	movwf	15	;volatile
  1121                           
  1122                           ;main.c: 139: espera();
  1123  0241  3184  245F  3182   	fcall	_espera
  1124                           
  1125                           ;main.c: 140: off();
  1126  0244  3184  246C  3182   	fcall	_off
  1127                           
  1128                           ;main.c: 141: LATCbits.LATC0=1;
  1129  0247  0140               	movlb	0	; select bank0
  1130  0248  1418               	bsf	24,0	;volatile
  1131                           
  1132                           ;main.c: 142: PORTD=0b11101110;
  1133  0249  30EE               	movlw	238
  1134  024A  008F               	movwf	15	;volatile
  1135                           
  1136                           ;main.c: 143: espera();
  1137  024B  3184  245F  3182   	fcall	_espera
  1138                           
  1139                           ;main.c: 144: off();
  1140  024E  3184  246C  3182   	fcall	_off
  1141                           
  1142                           ;main.c: 145: LATCbits.LATC0=1;
  1143  0251  0140               	movlb	0	; select bank0
  1144  0252  1418               	bsf	24,0	;volatile
  1145                           
  1146                           ;main.c: 146: PORTD=0b11000110;
  1147  0253  30C6               	movlw	198
  1148  0254  008F               	movwf	15	;volatile
  1149                           
  1150                           ;main.c: 147: espera();
  1151  0255  3184  245F  3182   	fcall	_espera
  1152                           
  1153                           ;main.c: 148: off();
  1154  0258  3184  246C  3182   	fcall	_off
  1155                           
  1156                           ;main.c: 149: LATCbits.LATC0=1;
  1157  025B  0140               	movlb	0	; select bank0
  1158  025C  1418               	bsf	24,0	;volatile
  1159                           
  1160                           ;main.c: 150: PORTD=0b10000010;
  1161  025D  3082               	movlw	130
  1162  025E  008F               	movwf	15	;volatile
  1163                           
  1164                           ;main.c: 151: espera();
  1165  025F  3184  245F  3182   	fcall	_espera
  1166                           
  1167                           ;main.c: 152: off();
  1168  0262  3184  246C  3182   	fcall	_off
  1169                           
  1170                           ;main.c: 153: espera();
  1171  0265  3184  245F         	fcall	_espera
  1172  0267  0008               	return
  1173  0268                     __end_of_leyenda:	
  1174                           
  1175                           	psect	text2
  1176  007E                     __ptext2:	
  1177 ;; *************** function _impresiont *****************
  1178 ;; Defined at:
  1179 ;;		line 364 in file "main.c"
  1180 ;; Parameters:    Size  Location     Type
  1181 ;;  hr              2    8[BANK0 ] int 
  1182 ;;  min             2   10[BANK0 ] int 
  1183 ;;  seg             2   12[BANK0 ] int 
  1184 ;; Auto vars:     Size  Location     Type
  1185 ;;		None
  1186 ;; Return value:  Size  Location     Type
  1187 ;;                  1    wreg      void 
  1188 ;; Registers used:
  1189 ;;		wreg, fsr0l, fsr0h, status,2, status,0, pclath, cstack
  1190 ;; Tracked objects:
  1191 ;;		On entry : 0/0
  1192 ;;		On exit  : 0/0
  1193 ;;		Unchanged: 0/0
  1194 ;; Data sizes:     COMMON   BANK0   BANK1   BANK2   BANK3   BANK4   BANK5   BANK6   BANK7   BANK8   BANK9  BANK10  BANK1
      +1  BANK12  BANK13  BANK14  BANK15  BANK16  BANK17  BANK18  BANK19  BANK20  BANK21  BANK22  BANK23  BANK24  BANK25  BANK2
      +6  BANK27  BANK28  BANK29  BANK30  BANK31  BANK32  BANK33  BANK34  BANK35  BANK36  BANK37  BANK38  BANK39  BANK40  BANK4
      +1  BANK42  BANK43  BANK44  BANK45  BANK46  BANK47  BANK48  BANK49  BANK50
  1195 ;;      Params:         0       6       0       0       0       0       0       0       0       0       0       0       
      +0       0       0       0       0       0       0       0       0       0       0       0       0       0       0       
      +0       0       0       0       0       0       0       0       0       0       0       0       0       0       0       
      +0       0       0       0       0       0       0       0       0       0
  1196 ;;      Locals:         0       0       0       0       0       0       0       0       0       0       0       0       
      +0       0       0       0       0       0       0       0       0       0       0       0       0       0       0       
      +0       0       0       0       0       0       0       0       0       0       0       0       0       0       0       
      +0       0       0       0       0       0       0       0       0       0
  1197 ;;      Temps:          0       2       0       0       0       0       0       0       0       0       0       0       
      +0       0       0       0       0       0       0       0       0       0       0       0       0       0       0       
      +0       0       0       0       0       0       0       0       0       0       0       0       0       0       0       
      +0       0       0       0       0       0       0       0       0       0
  1198 ;;      Totals:         0       8       0       0       0       0       0       0       0       0       0       0       
      +0       0       0       0       0       0       0       0       0       0       0       0       0       0       0       
      +0       0       0       0       0       0       0       0       0       0       0       0       0       0       0       
      +0       0       0       0       0       0       0       0       0       0
  1199 ;;Total ram usage:        8 bytes
  1200 ;; Hardware stack levels used:    1
  1201 ;; Hardware stack levels required when called:    4
  1202 ;; This function calls:
  1203 ;;		___awdiv
  1204 ;;		___wmul
  1205 ;;		_cero
  1206 ;;		_espera
  1207 ;;		_numero
  1208 ;;		_puntos
  1209 ;; This function is called by:
  1210 ;;		_main
  1211 ;; This function uses a non-reentrant model
  1212 ;;
  1213                           
  1214                           
  1215                           ;psect for function _impresiont
  1216  007E                     _impresiont:	
  1217                           
  1218                           ;main.c: 366: if(hr<10){
  1219                           
  1220                           ;incstack = 0
  1221                           ; Regs used in _impresiont: [wreg-fsr0h+status,2+status,0+pclath+cstack]
  1222  007E  0140               	movlb	0	; select bank0
  1223  007F  0829               	movf	impresiont@hr+1,w
  1224  0080  3A80               	xorlw	128
  1225  0081  00AE               	movwf	??_impresiont
  1226  0082  3080               	movlw	128
  1227  0083  022E               	subwf	??_impresiont,w
  1228  0084  1D03               	skipz
  1229  0085  2888               	goto	u575
  1230  0086  300A               	movlw	10
  1231  0087  0228               	subwf	impresiont@hr,w
  1232  0088                     u575:	
  1233  0088  1803               	skipnc
  1234  0089  288F               	goto	l1705
  1235                           
  1236                           ;main.c: 367: numero(hr);
  1237  008A  0140               	movlb	0	; select bank0
  1238  008B  0829               	movf	impresiont@hr+1,w
  1239  008C  00F4               	movwf	numero@n+1
  1240  008D  0828               	movf	impresiont@hr,w
  1241  008E  28B4               	goto	L1
  1242  008F                     l1705:	
  1243                           ;main.c: 370: }else{
  1244                           
  1245                           ;main.c: 369: puntos();
  1246                           
  1247                           ;main.c: 368: espera();
  1248                           
  1249                           
  1250                           ;main.c: 371: unidades=hr-10;
  1251  008F  0140               	movlb	0	; select bank0
  1252  0090  0828               	movf	impresiont@hr,w
  1253  0091  3EF6               	addlw	246
  1254  0092  00B6               	movwf	_unidades
  1255  0093  30FF               	movlw	255
  1256  0094  3D29               	addwfc	impresiont@hr+1,w
  1257  0095  00B7               	movwf	_unidades+1
  1258                           
  1259                           ;main.c: 372: decenas=hr/10;
  1260  0096  300A               	movlw	10
  1261  0097  00F2               	movwf	___awdiv@divisor
  1262  0098  3000               	movlw	0
  1263  0099  00F3               	movwf	___awdiv@divisor+1
  1264  009A  0829               	movf	impresiont@hr+1,w
  1265  009B  00F5               	movwf	___awdiv@dividend+1
  1266  009C  0828               	movf	impresiont@hr,w
  1267  009D  00F4               	movwf	___awdiv@dividend
  1268  009E  3181  218B  3180   	fcall	___awdiv
  1269  00A1  0873               	movf	?___awdiv+1,w
  1270  00A2  0140               	movlb	0	; select bank0
  1271  00A3  00B5               	movwf	_decenas+1
  1272  00A4  0872               	movf	?___awdiv,w
  1273  00A5  00B4               	movwf	_decenas
  1274                           
  1275                           ;main.c: 373: numero(decenas);
  1276  00A6  0835               	movf	_decenas+1,w
  1277  00A7  00F4               	movwf	numero@n+1
  1278  00A8  0834               	movf	_decenas,w
  1279  00A9  00F3               	movwf	numero@n
  1280  00AA  3182  2298  3180   	fcall	_numero
  1281                           
  1282                           ;main.c: 374: espera();
  1283  00AD  3184  245F  3180   	fcall	_espera
  1284                           
  1285                           ;main.c: 375: numero(unidades);
  1286  00B0  0140               	movlb	0	; select bank0
  1287  00B1  0837               	movf	_unidades+1,w
  1288  00B2  00F4               	movwf	numero@n+1
  1289  00B3  0836               	movf	_unidades,w
  1290  00B4                     L1:	
  1291  00B4  00F3               	movwf	numero@n
  1292  00B5  3182  2298  3180   	fcall	_numero
  1293                           
  1294                           ;main.c: 376: espera();
  1295  00B8  3184  245F  3180   	fcall	_espera
  1296                           
  1297                           ;main.c: 377: puntos();
  1298  00BB  3184  244D  3180   	fcall	_puntos
  1299                           
  1300                           ;main.c: 378: }
  1301                           ;main.c: 380: if(min<10){
  1302  00BE  0140               	movlb	0	; select bank0
  1303  00BF  082B               	movf	impresiont@min+1,w
  1304  00C0  3A80               	xorlw	128
  1305  00C1  00AE               	movwf	??_impresiont
  1306  00C2  3080               	movlw	128
  1307  00C3  022E               	subwf	??_impresiont,w
  1308  00C4  1D03               	skipz
  1309  00C5  28C8               	goto	u585
  1310  00C6  300A               	movlw	10
  1311  00C7  022A               	subwf	impresiont@min,w
  1312  00C8                     u585:	
  1313  00C8  1803               	skipnc
  1314  00C9  28D5               	goto	l1729
  1315                           
  1316                           ;main.c: 381: cero();
  1317  00CA  3183  23D8  3180   	fcall	_cero
  1318                           
  1319                           ;main.c: 382: espera();
  1320  00CD  3184  245F  3180   	fcall	_espera
  1321                           
  1322                           ;main.c: 383: numero(min);
  1323  00D0  0140               	movlb	0	; select bank0
  1324  00D1  082B               	movf	impresiont@min+1,w
  1325  00D2  00F4               	movwf	numero@n+1
  1326  00D3  082A               	movf	impresiont@min,w
  1327  00D4  2919               	goto	L2
  1328  00D5                     l1729:	
  1329                           ;main.c: 386: }else{
  1330                           
  1331                           ;main.c: 385: puntos();
  1332                           
  1333                           ;main.c: 384: espera();
  1334                           
  1335                           
  1336                           ;main.c: 387: unidades=min-(min/10)*10;
  1337  00D5  300A               	movlw	10
  1338  00D6  00F2               	movwf	___awdiv@divisor
  1339  00D7  3000               	movlw	0
  1340  00D8  00F3               	movwf	___awdiv@divisor+1
  1341  00D9  0140               	movlb	0	; select bank0
  1342  00DA  082B               	movf	impresiont@min+1,w
  1343  00DB  00F5               	movwf	___awdiv@dividend+1
  1344  00DC  082A               	movf	impresiont@min,w
  1345  00DD  00F4               	movwf	___awdiv@dividend
  1346  00DE  3181  218B  3180   	fcall	___awdiv
  1347  00E1  0873               	movf	?___awdiv+1,w
  1348  00E2  0140               	movlb	0	; select bank0
  1349  00E3  00A5               	movwf	___wmul@multiplier+1
  1350  00E4  0872               	movf	?___awdiv,w
  1351  00E5  00A4               	movwf	___wmul@multiplier
  1352  00E6  300A               	movlw	10
  1353  00E7  00A6               	movwf	___wmul@multiplicand
  1354  00E8  3000               	movlw	0
  1355  00E9  00A7               	movwf	___wmul@multiplicand+1
  1356  00EA  3184  241D  3180   	fcall	___wmul
  1357  00ED  0140               	movlb	0	; select bank0
  1358  00EE  0924               	comf	?___wmul,w
  1359  00EF  00AE               	movwf	??_impresiont
  1360  00F0  0925               	comf	?___wmul+1,w
  1361  00F1  00AF               	movwf	??_impresiont+1
  1362  00F2  0AAE               	incf	??_impresiont,f
  1363  00F3  1903               	skipnz
  1364  00F4  0AAF               	incf	??_impresiont+1,f
  1365  00F5  082A               	movf	impresiont@min,w
  1366  00F6  072E               	addwf	??_impresiont,w
  1367  00F7  00B6               	movwf	_unidades
  1368  00F8  082B               	movf	impresiont@min+1,w
  1369  00F9  3D2F               	addwfc	??_impresiont+1,w
  1370  00FA  00B7               	movwf	_unidades+1
  1371                           
  1372                           ;main.c: 388: decenas=min/10;
  1373  00FB  300A               	movlw	10
  1374  00FC  00F2               	movwf	___awdiv@divisor
  1375  00FD  3000               	movlw	0
  1376  00FE  00F3               	movwf	___awdiv@divisor+1
  1377  00FF  082B               	movf	impresiont@min+1,w
  1378  0100  00F5               	movwf	___awdiv@dividend+1
  1379  0101  082A               	movf	impresiont@min,w
  1380  0102  00F4               	movwf	___awdiv@dividend
  1381  0103  3181  218B  3180   	fcall	___awdiv
  1382  0106  0873               	movf	?___awdiv+1,w
  1383  0107  0140               	movlb	0	; select bank0
  1384  0108  00B5               	movwf	_decenas+1
  1385  0109  0872               	movf	?___awdiv,w
  1386  010A  00B4               	movwf	_decenas
  1387                           
  1388                           ;main.c: 389: numero(decenas);
  1389  010B  0835               	movf	_decenas+1,w
  1390  010C  00F4               	movwf	numero@n+1
  1391  010D  0834               	movf	_decenas,w
  1392  010E  00F3               	movwf	numero@n
  1393  010F  3182  2298  3180   	fcall	_numero
  1394                           
  1395                           ;main.c: 390: espera();
  1396  0112  3184  245F  3180   	fcall	_espera
  1397                           
  1398                           ;main.c: 391: numero(unidades);
  1399  0115  0140               	movlb	0	; select bank0
  1400  0116  0837               	movf	_unidades+1,w
  1401  0117  00F4               	movwf	numero@n+1
  1402  0118  0836               	movf	_unidades,w
  1403  0119                     L2:	
  1404  0119  00F3               	movwf	numero@n
  1405  011A  3182  2298  3180   	fcall	_numero
  1406                           
  1407                           ;main.c: 392: espera();
  1408  011D  3184  245F  3180   	fcall	_espera
  1409                           
  1410                           ;main.c: 393: puntos();
  1411  0120  3184  244D  3180   	fcall	_puntos
  1412                           
  1413                           ;main.c: 394: }
  1414                           ;main.c: 397: if(seg<10){
  1415  0123  0140               	movlb	0	; select bank0
  1416  0124  082D               	movf	impresiont@seg+1,w
  1417  0125  3A80               	xorlw	128
  1418  0126  00AE               	movwf	??_impresiont
  1419  0127  3080               	movlw	128
  1420  0128  022E               	subwf	??_impresiont,w
  1421  0129  1D03               	skipz
  1422  012A  292D               	goto	u595
  1423  012B  300A               	movlw	10
  1424  012C  022C               	subwf	impresiont@seg,w
  1425  012D                     u595:	
  1426  012D  1803               	skipnc
  1427  012E  2940               	goto	l1747
  1428                           
  1429                           ;main.c: 398: cero();
  1430  012F  3183  23D8  3180   	fcall	_cero
  1431                           
  1432                           ;main.c: 399: espera();
  1433  0132  3184  245F  3180   	fcall	_espera
  1434                           
  1435                           ;main.c: 400: numero(seg);
  1436  0135  0140               	movlb	0	; select bank0
  1437  0136  082D               	movf	impresiont@seg+1,w
  1438  0137  00F4               	movwf	numero@n+1
  1439  0138  082C               	movf	impresiont@seg,w
  1440  0139  00F3               	movwf	numero@n
  1441  013A  3182  2298  3180   	fcall	_numero
  1442                           
  1443                           ;main.c: 401: espera();
  1444  013D  3184  245F         	fcall	_espera
  1445                           
  1446                           ;main.c: 403: }else{
  1447  013F  0008               	return
  1448  0140                     l1747:	
  1449                           
  1450                           ;main.c: 404: unidades=seg-(seg/10)*10;
  1451  0140  300A               	movlw	10
  1452  0141  00F2               	movwf	___awdiv@divisor
  1453  0142  3000               	movlw	0
  1454  0143  00F3               	movwf	___awdiv@divisor+1
  1455  0144  0140               	movlb	0	; select bank0
  1456  0145  082D               	movf	impresiont@seg+1,w
  1457  0146  00F5               	movwf	___awdiv@dividend+1
  1458  0147  082C               	movf	impresiont@seg,w
  1459  0148  00F4               	movwf	___awdiv@dividend
  1460  0149  3181  218B  3180   	fcall	___awdiv
  1461  014C  0873               	movf	?___awdiv+1,w
  1462  014D  0140               	movlb	0	; select bank0
  1463  014E  00A5               	movwf	___wmul@multiplier+1
  1464  014F  0872               	movf	?___awdiv,w
  1465  0150  00A4               	movwf	___wmul@multiplier
  1466  0151  300A               	movlw	10
  1467  0152  00A6               	movwf	___wmul@multiplicand
  1468  0153  3000               	movlw	0
  1469  0154  00A7               	movwf	___wmul@multiplicand+1
  1470  0155  3184  241D  3180   	fcall	___wmul
  1471  0158  0140               	movlb	0	; select bank0
  1472  0159  0924               	comf	?___wmul,w
  1473  015A  00AE               	movwf	??_impresiont
  1474  015B  0925               	comf	?___wmul+1,w
  1475  015C  00AF               	movwf	??_impresiont+1
  1476  015D  0AAE               	incf	??_impresiont,f
  1477  015E  1903               	skipnz
  1478  015F  0AAF               	incf	??_impresiont+1,f
  1479  0160  082C               	movf	impresiont@seg,w
  1480  0161  072E               	addwf	??_impresiont,w
  1481  0162  00B6               	movwf	_unidades
  1482  0163  082D               	movf	impresiont@seg+1,w
  1483  0164  3D2F               	addwfc	??_impresiont+1,w
  1484  0165  00B7               	movwf	_unidades+1
  1485                           
  1486                           ;main.c: 405: decenas=seg/10;
  1487  0166  300A               	movlw	10
  1488  0167  00F2               	movwf	___awdiv@divisor
  1489  0168  3000               	movlw	0
  1490  0169  00F3               	movwf	___awdiv@divisor+1
  1491  016A  082D               	movf	impresiont@seg+1,w
  1492  016B  00F5               	movwf	___awdiv@dividend+1
  1493  016C  082C               	movf	impresiont@seg,w
  1494  016D  00F4               	movwf	___awdiv@dividend
  1495  016E  3181  218B  3180   	fcall	___awdiv
  1496  0171  0873               	movf	?___awdiv+1,w
  1497  0172  0140               	movlb	0	; select bank0
  1498  0173  00B5               	movwf	_decenas+1
  1499  0174  0872               	movf	?___awdiv,w
  1500  0175  00B4               	movwf	_decenas
  1501                           
  1502                           ;main.c: 406: numero(decenas);
  1503  0176  0835               	movf	_decenas+1,w
  1504  0177  00F4               	movwf	numero@n+1
  1505  0178  0834               	movf	_decenas,w
  1506  0179  00F3               	movwf	numero@n
  1507  017A  3182  2298  3180   	fcall	_numero
  1508                           
  1509                           ;main.c: 407: espera();
  1510  017D  3184  245F  3180   	fcall	_espera
  1511                           
  1512                           ;main.c: 408: numero(unidades);
  1513  0180  0140               	movlb	0	; select bank0
  1514  0181  0837               	movf	_unidades+1,w
  1515  0182  00F4               	movwf	numero@n+1
  1516  0183  0836               	movf	_unidades,w
  1517  0184  00F3               	movwf	numero@n
  1518  0185  3182  2298  3180   	fcall	_numero
  1519                           
  1520                           ;main.c: 409: espera();
  1521  0188  3184  245F         	fcall	_espera
  1522  018A  0008               	return
  1523  018B                     __end_of_impresiont:	
  1524                           
  1525                           	psect	text3
  1526  044D                     __ptext3:	
  1527 ;; *************** function _puntos *****************
  1528 ;; Defined at:
  1529 ;;		line 316 in file "main.c"
  1530 ;; Parameters:    Size  Location     Type
  1531 ;;		None
  1532 ;; Auto vars:     Size  Location     Type
  1533 ;;		None
  1534 ;; Return value:  Size  Location     Type
  1535 ;;                  1    wreg      void 
  1536 ;; Registers used:
  1537 ;;		wreg, status,2, status,0, pclath, cstack
  1538 ;; Tracked objects:
  1539 ;;		On entry : 0/0
  1540 ;;		On exit  : 0/0
  1541 ;;		Unchanged: 0/0
  1542 ;; Data sizes:     COMMON   BANK0   BANK1   BANK2   BANK3   BANK4   BANK5   BANK6   BANK7   BANK8   BANK9  BANK10  BANK1
      +1  BANK12  BANK13  BANK14  BANK15  BANK16  BANK17  BANK18  BANK19  BANK20  BANK21  BANK22  BANK23  BANK24  BANK25  BANK2
      +6  BANK27  BANK28  BANK29  BANK30  BANK31  BANK32  BANK33  BANK34  BANK35  BANK36  BANK37  BANK38  BANK39  BANK40  BANK4
      +1  BANK42  BANK43  BANK44  BANK45  BANK46  BANK47  BANK48  BANK49  BANK50
  1543 ;;      Params:         0       0       0       0       0       0       0       0       0       0       0       0       
      +0       0       0       0       0       0       0       0       0       0       0       0       0       0       0       
      +0       0       0       0       0       0       0       0       0       0       0       0       0       0       0       
      +0       0       0       0       0       0       0       0       0       0
  1544 ;;      Locals:         0       0       0       0       0       0       0       0       0       0       0       0       
      +0       0       0       0       0       0       0       0       0       0       0       0       0       0       0       
      +0       0       0       0       0       0       0       0       0       0       0       0       0       0       0       
      +0       0       0       0       0       0       0       0       0       0
  1545 ;;      Temps:          0       0       0       0       0       0       0       0       0       0       0       0       
      +0       0       0       0       0       0       0       0       0       0       0       0       0       0       0       
      +0       0       0       0       0       0       0       0       0       0       0       0       0       0       0       
      +0       0       0       0       0       0       0       0       0       0
  1546 ;;      Totals:         0       0       0       0       0       0       0       0       0       0       0       0       
      +0       0       0       0       0       0       0       0       0       0       0       0       0       0       0       
      +0       0       0       0       0       0       0       0       0       0       0       0       0       0       0       
      +0       0       0       0       0       0       0       0       0       0
  1547 ;;Total ram usage:        0 bytes
  1548 ;; Hardware stack levels used:    1
  1549 ;; Hardware stack levels required when called:    2
  1550 ;; This function calls:
  1551 ;;		_espera
  1552 ;;		_off
  1553 ;; This function is called by:
  1554 ;;		_impresiont
  1555 ;; This function uses a non-reentrant model
  1556 ;;
  1557                           
  1558                           
  1559                           ;psect for function _puntos
  1560  044D                     _puntos:	
  1561                           
  1562                           ;main.c: 317: PORTA=0b10101100;
  1563                           
  1564                           ;incstack = 0
  1565                           ; Regs used in _puntos: [wreg+status,2+status,0+pclath+cstack]
  1566  044D  30AC               	movlw	172
  1567  044E  0140               	movlb	0	; select bank0
  1568  044F  008C               	movwf	12	;volatile
  1569                           
  1570                           ;main.c: 318: espera();
  1571  0450  3184  245F  3184   	fcall	_espera
  1572                           
  1573                           ;main.c: 319: off();
  1574  0453  3184  246C  3184   	fcall	_off
  1575                           
  1576                           ;main.c: 320: PORTA=0b10101100;
  1577  0456  30AC               	movlw	172
  1578  0457  0140               	movlb	0	; select bank0
  1579  0458  008C               	movwf	12	;volatile
  1580                           
  1581                           ;main.c: 321: espera();
  1582  0459  3184  245F  3184   	fcall	_espera
  1583                           
  1584                           ;main.c: 322: off();
  1585  045C  3184  246C         	fcall	_off
  1586  045E  0008               	return
  1587  045F                     __end_of_puntos:	
  1588                           
  1589                           	psect	text4
  1590  0298                     __ptext4:	
  1591 ;; *************** function _numero *****************
  1592 ;; Defined at:
  1593 ;;		line 326 in file "main.c"
  1594 ;; Parameters:    Size  Location     Type
  1595 ;;  n               2    3[COMMON] int 
  1596 ;; Auto vars:     Size  Location     Type
  1597 ;;		None
  1598 ;; Return value:  Size  Location     Type
  1599 ;;                  1    wreg      void 
  1600 ;; Registers used:
  1601 ;;		wreg, fsr0l, fsr0h, status,2, status,0, pclath, cstack
  1602 ;; Tracked objects:
  1603 ;;		On entry : 0/0
  1604 ;;		On exit  : 0/0
  1605 ;;		Unchanged: 0/0
  1606 ;; Data sizes:     COMMON   BANK0   BANK1   BANK2   BANK3   BANK4   BANK5   BANK6   BANK7   BANK8   BANK9  BANK10  BANK1
      +1  BANK12  BANK13  BANK14  BANK15  BANK16  BANK17  BANK18  BANK19  BANK20  BANK21  BANK22  BANK23  BANK24  BANK25  BANK2
      +6  BANK27  BANK28  BANK29  BANK30  BANK31  BANK32  BANK33  BANK34  BANK35  BANK36  BANK37  BANK38  BANK39  BANK40  BANK4
      +1  BANK42  BANK43  BANK44  BANK45  BANK46  BANK47  BANK48  BANK49  BANK50
  1607 ;;      Params:         2       0       0       0       0       0       0       0       0       0       0       0       
      +0       0       0       0       0       0       0       0       0       0       0       0       0       0       0       
      +0       0       0       0       0       0       0       0       0       0       0       0       0       0       0       
      +0       0       0       0       0       0       0       0       0       0
  1608 ;;      Locals:         0       0       0       0       0       0       0       0       0       0       0       0       
      +0       0       0       0       0       0       0       0       0       0       0       0       0       0       0       
      +0       0       0       0       0       0       0       0       0       0       0       0       0       0       0       
      +0       0       0       0       0       0       0       0       0       0
  1609 ;;      Temps:          0       0       0       0       0       0       0       0       0       0       0       0       
      +0       0       0       0       0       0       0       0       0       0       0       0       0       0       0       
      +0       0       0       0       0       0       0       0       0       0       0       0       0       0       0       
      +0       0       0       0       0       0       0       0       0       0
  1610 ;;      Totals:         2       0       0       0       0       0       0       0       0       0       0       0       
      +0       0       0       0       0       0       0       0       0       0       0       0       0       0       0       
      +0       0       0       0       0       0       0       0       0       0       0       0       0       0       0       
      +0       0       0       0       0       0       0       0       0       0
  1611 ;;Total ram usage:        2 bytes
  1612 ;; Hardware stack levels used:    1
  1613 ;; Hardware stack levels required when called:    3
  1614 ;; This function calls:
  1615 ;;		_cero
  1616 ;;		_cinco
  1617 ;;		_cuatro
  1618 ;;		_dos
  1619 ;;		_nueve
  1620 ;;		_ocho
  1621 ;;		_seis
  1622 ;;		_siete
  1623 ;;		_tres
  1624 ;;		_uno
  1625 ;; This function is called by:
  1626 ;;		_impresiont
  1627 ;; This function uses a non-reentrant model
  1628 ;;
  1629                           
  1630                           
  1631                           ;psect for function _numero
  1632  0298                     _numero:	
  1633                           
  1634                           ;main.c: 327: switch(n){
  1635                           
  1636                           ;incstack = 0
  1637                           ; Regs used in _numero: [wreg-fsr0h+status,2+status,0+pclath+cstack]
  1638  0298  2AB7               	goto	l1329
  1639  0299                     l1307:	
  1640                           ;main.c: 328: case 0:
  1641                           
  1642                           
  1643                           ;main.c: 329: cero();
  1644  0299  3183  23D8         	fcall	_cero
  1645                           
  1646                           ;main.c: 330: break;
  1647  029B  0008               	return
  1648  029C                     l1309:	
  1649                           ;main.c: 331: case 1:
  1650                           
  1651                           
  1652                           ;main.c: 332: uno();
  1653  029C  3183  23FF         	fcall	_uno
  1654                           
  1655                           ;main.c: 333: break;
  1656  029E  0008               	return
  1657  029F                     l1311:	
  1658                           ;main.c: 334: case 2:
  1659                           
  1660                           
  1661                           ;main.c: 335: dos();
  1662  029F  3183  2363         	fcall	_dos
  1663                           
  1664                           ;main.c: 336: break;
  1665  02A1  0008               	return
  1666  02A2                     l1313:	
  1667                           ;main.c: 337: case 3:
  1668                           
  1669                           
  1670                           ;main.c: 338: tres();
  1671  02A2  3182  2268         	fcall	_tres
  1672                           
  1673                           ;main.c: 339: break;
  1674  02A4  0008               	return
  1675  02A5                     l1315:	
  1676                           ;main.c: 340: case 4:
  1677                           
  1678                           
  1679                           ;main.c: 341: cuatro();
  1680  02A5  3183  238A         	fcall	_cuatro
  1681                           
  1682                           ;main.c: 342: break;
  1683  02A7  0008               	return
  1684  02A8                     l1317:	
  1685                           ;main.c: 343: case 5:
  1686                           
  1687                           
  1688                           ;main.c: 344: cinco();
  1689  02A8  3183  23B1         	fcall	_cinco
  1690                           
  1691                           ;main.c: 345: break;
  1692  02AA  0008               	return
  1693  02AB                     l1319:	
  1694                           ;main.c: 346: case 6:
  1695                           
  1696                           
  1697                           ;main.c: 347: seis();
  1698  02AB  3182  22EE         	fcall	_seis
  1699                           
  1700                           ;main.c: 348: break;
  1701  02AD  0008               	return
  1702  02AE                     l1321:	
  1703                           ;main.c: 349: case 7:
  1704                           
  1705                           
  1706                           ;main.c: 350: siete();
  1707  02AE  3182  22C7         	fcall	_siete
  1708                           
  1709                           ;main.c: 351: break;
  1710  02B0  0008               	return
  1711  02B1                     l1323:	
  1712                           ;main.c: 352: case 8:
  1713                           
  1714                           
  1715                           ;main.c: 353: ocho();
  1716  02B1  3183  2315         	fcall	_ocho
  1717                           
  1718                           ;main.c: 354: break;
  1719  02B3  0008               	return
  1720  02B4                     l1325:	
  1721                           ;main.c: 355: case 9:
  1722                           
  1723                           
  1724                           ;main.c: 356: nueve();
  1725  02B4  3183  233C         	fcall	_nueve
  1726                           
  1727                           ;main.c: 358: }
  1728                           
  1729                           ;main.c: 357: break;
  1730  02B6  0008               	return
  1731  02B7                     l1329:	
  1732                           
  1733                           ; Switch on 2 bytes has been partitioned into a top level switch of size 1, and 1 sub-sw
      +                          itches
  1734                           ; Switch size 1, requested type "space"
  1735                           ; Number of cases is 1, Range of values is 0 to 0
  1736                           ; switch strategies available:
  1737                           ; Name         Instructions Cycles
  1738                           ; simple_byte            4     3 (average)
  1739                           ; direct_byte            8     6 (fixed)
  1740                           ; jumptable            260     6 (fixed)
  1741                           ;	Chosen strategy is simple_byte
  1742  02B7  0874               	movf	numero@n+1,w
  1743  02B8  3A00               	xorlw	0	; case 0
  1744  02B9  1903               	skipnz
  1745  02BA  2ABC               	goto	l1837
  1746  02BB  2AC6               	goto	l126
  1747  02BC                     l1837:	
  1748                           
  1749                           ; Switch size 1, requested type "space"
  1750                           ; Number of cases is 10, Range of values is 0 to 9
  1751                           ; switch strategies available:
  1752                           ; Name         Instructions Cycles
  1753                           ; direct_byte           26     6 (fixed)
  1754                           ; simple_byte           31    16 (average)
  1755                           ; jumptable            260     6 (fixed)
  1756                           ;	Chosen strategy is direct_byte
  1757  02BC  0873               	movf	numero@n,w
  1758  02BD  0084               	movwf	4
  1759  02BE  300A               	movlw	10
  1760  02BF  0204               	subwf	4,w
  1761  02C0  1803               	skipnc
  1762  02C1  0008               	return
  1763  02C2  3184               	movlp	high S1839
  1764  02C3  3504               	lslf	4,w
  1765  02C4  3E39               	addlw	low S1839
  1766  02C5  0082               	movwf	2
  1767  02C6                     l126:	
  1768  02C6  0008               	return
  1769  02C7                     __end_of_numero:	
  1770                           
  1771                           	psect	swtext1
  1772  0439                     __pswtext1:	
  1773  0439                     S1839:	
  1774  0439  3182  2A99         	ljmp	l1307
  1775  043B  3182  2A9C         	ljmp	l1309
  1776  043D  3182  2A9F         	ljmp	l1311
  1777  043F  3182  2AA2         	ljmp	l1313
  1778  0441  3182  2AA5         	ljmp	l1315
  1779  0443  3182  2AA8         	ljmp	l1317
  1780  0445  3182  2AAB         	ljmp	l1319
  1781  0447  3182  2AAE         	ljmp	l1321
  1782  0449  3182  2AB1         	ljmp	l1323
  1783  044B  3182  2AB4         	ljmp	l1325
  1784                           
  1785                           	psect	text5
  1786  03FF                     __ptext5:	
  1787 ;; *************** function _uno *****************
  1788 ;; Defined at:
  1789 ;;		line 172 in file "main.c"
  1790 ;; Parameters:    Size  Location     Type
  1791 ;;		None
  1792 ;; Auto vars:     Size  Location     Type
  1793 ;;		None
  1794 ;; Return value:  Size  Location     Type
  1795 ;;                  1    wreg      void 
  1796 ;; Registers used:
  1797 ;;		wreg, status,2, status,0, pclath, cstack
  1798 ;; Tracked objects:
  1799 ;;		On entry : 0/0
  1800 ;;		On exit  : 0/0
  1801 ;;		Unchanged: 0/0
  1802 ;; Data sizes:     COMMON   BANK0   BANK1   BANK2   BANK3   BANK4   BANK5   BANK6   BANK7   BANK8   BANK9  BANK10  BANK1
      +1  BANK12  BANK13  BANK14  BANK15  BANK16  BANK17  BANK18  BANK19  BANK20  BANK21  BANK22  BANK23  BANK24  BANK25  BANK2
      +6  BANK27  BANK28  BANK29  BANK30  BANK31  BANK32  BANK33  BANK34  BANK35  BANK36  BANK37  BANK38  BANK39  BANK40  BANK4
      +1  BANK42  BANK43  BANK44  BANK45  BANK46  BANK47  BANK48  BANK49  BANK50
  1803 ;;      Params:         0       0       0       0       0       0       0       0       0       0       0       0       
      +0       0       0       0       0       0       0       0       0       0       0       0       0       0       0       
      +0       0       0       0       0       0       0       0       0       0       0       0       0       0       0       
      +0       0       0       0       0       0       0       0       0       0
  1804 ;;      Locals:         0       0       0       0       0       0       0       0       0       0       0       0       
      +0       0       0       0       0       0       0       0       0       0       0       0       0       0       0       
      +0       0       0       0       0       0       0       0       0       0       0       0       0       0       0       
      +0       0       0       0       0       0       0       0       0       0
  1805 ;;      Temps:          0       0       0       0       0       0       0       0       0       0       0       0       
      +0       0       0       0       0       0       0       0       0       0       0       0       0       0       0       
      +0       0       0       0       0       0       0       0       0       0       0       0       0       0       0       
      +0       0       0       0       0       0       0       0       0       0
  1806 ;;      Totals:         0       0       0       0       0       0       0       0       0       0       0       0       
      +0       0       0       0       0       0       0       0       0       0       0       0       0       0       0       
      +0       0       0       0       0       0       0       0       0       0       0       0       0       0       0       
      +0       0       0       0       0       0       0       0       0       0
  1807 ;;Total ram usage:        0 bytes
  1808 ;; Hardware stack levels used:    1
  1809 ;; Hardware stack levels required when called:    2
  1810 ;; This function calls:
  1811 ;;		_espera
  1812 ;;		_off
  1813 ;; This function is called by:
  1814 ;;		_numero
  1815 ;; This function uses a non-reentrant model
  1816 ;;
  1817                           
  1818                           
  1819                           ;psect for function _uno
  1820  03FF                     _uno:	
  1821                           
  1822                           ;main.c: 173: PORTA=0b00000001;
  1823                           
  1824                           ;incstack = 0
  1825                           ; Regs used in _uno: [wreg+status,2+status,0+pclath+cstack]
  1826  03FF  3001               	movlw	1
  1827  0400  0140               	movlb	0	; select bank0
  1828  0401  008C               	movwf	12	;volatile
  1829                           
  1830                           ;main.c: 174: espera();
  1831  0402  3184  245F  3183   	fcall	_espera
  1832                           
  1833                           ;main.c: 175: off();
  1834  0405  3184  246C  3183   	fcall	_off
  1835                           
  1836                           ;main.c: 176: PORTA=0b11111111;
  1837  0408  30FF               	movlw	255
  1838  0409  0140               	movlb	0	; select bank0
  1839  040A  008C               	movwf	12	;volatile
  1840                           
  1841                           ;main.c: 177: espera();
  1842  040B  3184  245F  3183   	fcall	_espera
  1843                           
  1844                           ;main.c: 178: off();
  1845  040E  3184  246C  3183   	fcall	_off
  1846                           
  1847                           ;main.c: 179: PORTA=0b01000001;
  1848  0411  3041               	movlw	65
  1849  0412  0140               	movlb	0	; select bank0
  1850  0413  008C               	movwf	12	;volatile
  1851                           
  1852                           ;main.c: 180: espera();
  1853  0414  3184  245F  3183   	fcall	_espera
  1854                           
  1855                           ;main.c: 181: off();
  1856  0417  3184  246C  3183   	fcall	_off
  1857                           
  1858                           ;main.c: 182: espera();
  1859  041A  3184  245F         	fcall	_espera
  1860  041C  0008               	return
  1861  041D                     __end_of_uno:	
  1862                           
  1863                           	psect	text6
  1864  0268                     __ptext6:	
  1865 ;; *************** function _tres *****************
  1866 ;; Defined at:
  1867 ;;		line 201 in file "main.c"
  1868 ;; Parameters:    Size  Location     Type
  1869 ;;		None
  1870 ;; Auto vars:     Size  Location     Type
  1871 ;;		None
  1872 ;; Return value:  Size  Location     Type
  1873 ;;                  1    wreg      void 
  1874 ;; Registers used:
  1875 ;;		wreg, status,2, status,0, pclath, cstack
  1876 ;; Tracked objects:
  1877 ;;		On entry : 0/0
  1878 ;;		On exit  : 0/0
  1879 ;;		Unchanged: 0/0
  1880 ;; Data sizes:     COMMON   BANK0   BANK1   BANK2   BANK3   BANK4   BANK5   BANK6   BANK7   BANK8   BANK9  BANK10  BANK1
      +1  BANK12  BANK13  BANK14  BANK15  BANK16  BANK17  BANK18  BANK19  BANK20  BANK21  BANK22  BANK23  BANK24  BANK25  BANK2
      +6  BANK27  BANK28  BANK29  BANK30  BANK31  BANK32  BANK33  BANK34  BANK35  BANK36  BANK37  BANK38  BANK39  BANK40  BANK4
      +1  BANK42  BANK43  BANK44  BANK45  BANK46  BANK47  BANK48  BANK49  BANK50
  1881 ;;      Params:         0       0       0       0       0       0       0       0       0       0       0       0       
      +0       0       0       0       0       0       0       0       0       0       0       0       0       0       0       
      +0       0       0       0       0       0       0       0       0       0       0       0       0       0       0       
      +0       0       0       0       0       0       0       0       0       0
  1882 ;;      Locals:         0       0       0       0       0       0       0       0       0       0       0       0       
      +0       0       0       0       0       0       0       0       0       0       0       0       0       0       0       
      +0       0       0       0       0       0       0       0       0       0       0       0       0       0       0       
      +0       0       0       0       0       0       0       0       0       0
  1883 ;;      Temps:          0       0       0       0       0       0       0       0       0       0       0       0       
      +0       0       0       0       0       0       0       0       0       0       0       0       0       0       0       
      +0       0       0       0       0       0       0       0       0       0       0       0       0       0       0       
      +0       0       0       0       0       0       0       0       0       0
  1884 ;;      Totals:         0       0       0       0       0       0       0       0       0       0       0       0       
      +0       0       0       0       0       0       0       0       0       0       0       0       0       0       0       
      +0       0       0       0       0       0       0       0       0       0       0       0       0       0       0       
      +0       0       0       0       0       0       0       0       0       0
  1885 ;;Total ram usage:        0 bytes
  1886 ;; Hardware stack levels used:    1
  1887 ;; Hardware stack levels required when called:    2
  1888 ;; This function calls:
  1889 ;;		_espera
  1890 ;;		_off
  1891 ;; This function is called by:
  1892 ;;		_numero
  1893 ;; This function uses a non-reentrant model
  1894 ;;
  1895                           
  1896                           
  1897                           ;psect for function _tres
  1898  0268                     _tres:	
  1899                           
  1900                           ;main.c: 202: PORTA=0b01000010;
  1901                           
  1902                           ;incstack = 0
  1903                           ; Regs used in _tres: [wreg+status,2+status,0+pclath+cstack]
  1904  0268  3042               	movlw	66
  1905  0269  0140               	movlb	0	; select bank0
  1906  026A  008C               	movwf	12	;volatile
  1907                           
  1908                           ;main.c: 203: espera();
  1909  026B  3184  245F  3182   	fcall	_espera
  1910                           
  1911                           ;main.c: 204: off();
  1912  026E  3184  246C  3182   	fcall	_off
  1913                           
  1914                           ;main.c: 205: PORTA=0b01000001;
  1915  0271  3041               	movlw	65
  1916  0272  0140               	movlb	0	; select bank0
  1917  0273  008C               	movwf	12	;volatile
  1918                           
  1919                           ;main.c: 206: espera();
  1920  0274  3184  245F  3182   	fcall	_espera
  1921                           
  1922                           ;main.c: 207: off();
  1923  0277  3184  246C  3182   	fcall	_off
  1924                           
  1925                           ;main.c: 208: PORTA=0b01010001;
  1926  027A  3051               	movlw	81
  1927  027B  0140               	movlb	0	; select bank0
  1928  027C  008C               	movwf	12	;volatile
  1929                           
  1930                           ;main.c: 209: espera();
  1931  027D  3184  245F  3182   	fcall	_espera
  1932                           
  1933                           ;main.c: 210: off();
  1934  0280  3184  246C  3182   	fcall	_off
  1935                           
  1936                           ;main.c: 211: PORTA=0b01110010;
  1937  0283  3072               	movlw	114
  1938  0284  0140               	movlb	0	; select bank0
  1939  0285  008C               	movwf	12	;volatile
  1940                           
  1941                           ;main.c: 212: espera();
  1942  0286  3184  245F  3182   	fcall	_espera
  1943                           
  1944                           ;main.c: 213: off();
  1945  0289  3184  246C  3182   	fcall	_off
  1946                           
  1947                           ;main.c: 214: PORTA=0b11001100;
  1948  028C  30CC               	movlw	204
  1949  028D  0140               	movlb	0	; select bank0
  1950  028E  008C               	movwf	12	;volatile
  1951                           
  1952                           ;main.c: 215: espera();
  1953  028F  3184  245F  3182   	fcall	_espera
  1954                           
  1955                           ;main.c: 216: off();
  1956  0292  3184  246C  3182   	fcall	_off
  1957                           
  1958                           ;main.c: 217: espera();
  1959  0295  3184  245F         	fcall	_espera
  1960  0297  0008               	return
  1961  0298                     __end_of_tres:	
  1962                           
  1963                           	psect	text7
  1964  02C7                     __ptext7:	
  1965 ;; *************** function _siete *****************
  1966 ;; Defined at:
  1967 ;;		line 268 in file "main.c"
  1968 ;; Parameters:    Size  Location     Type
  1969 ;;		None
  1970 ;; Auto vars:     Size  Location     Type
  1971 ;;		None
  1972 ;; Return value:  Size  Location     Type
  1973 ;;                  1    wreg      void 
  1974 ;; Registers used:
  1975 ;;		wreg, status,2, status,0, pclath, cstack
  1976 ;; Tracked objects:
  1977 ;;		On entry : 0/0
  1978 ;;		On exit  : 0/0
  1979 ;;		Unchanged: 0/0
  1980 ;; Data sizes:     COMMON   BANK0   BANK1   BANK2   BANK3   BANK4   BANK5   BANK6   BANK7   BANK8   BANK9  BANK10  BANK1
      +1  BANK12  BANK13  BANK14  BANK15  BANK16  BANK17  BANK18  BANK19  BANK20  BANK21  BANK22  BANK23  BANK24  BANK25  BANK2
      +6  BANK27  BANK28  BANK29  BANK30  BANK31  BANK32  BANK33  BANK34  BANK35  BANK36  BANK37  BANK38  BANK39  BANK40  BANK4
      +1  BANK42  BANK43  BANK44  BANK45  BANK46  BANK47  BANK48  BANK49  BANK50
  1981 ;;      Params:         0       0       0       0       0       0       0       0       0       0       0       0       
      +0       0       0       0       0       0       0       0       0       0       0       0       0       0       0       
      +0       0       0       0       0       0       0       0       0       0       0       0       0       0       0       
      +0       0       0       0       0       0       0       0       0       0
  1982 ;;      Locals:         0       0       0       0       0       0       0       0       0       0       0       0       
      +0       0       0       0       0       0       0       0       0       0       0       0       0       0       0       
      +0       0       0       0       0       0       0       0       0       0       0       0       0       0       0       
      +0       0       0       0       0       0       0       0       0       0
  1983 ;;      Temps:          0       0       0       0       0       0       0       0       0       0       0       0       
      +0       0       0       0       0       0       0       0       0       0       0       0       0       0       0       
      +0       0       0       0       0       0       0       0       0       0       0       0       0       0       0       
      +0       0       0       0       0       0       0       0       0       0
  1984 ;;      Totals:         0       0       0       0       0       0       0       0       0       0       0       0       
      +0       0       0       0       0       0       0       0       0       0       0       0       0       0       0       
      +0       0       0       0       0       0       0       0       0       0       0       0       0       0       0       
      +0       0       0       0       0       0       0       0       0       0
  1985 ;;Total ram usage:        0 bytes
  1986 ;; Hardware stack levels used:    1
  1987 ;; Hardware stack levels required when called:    2
  1988 ;; This function calls:
  1989 ;;		_espera
  1990 ;;		_off
  1991 ;; This function is called by:
  1992 ;;		_numero
  1993 ;; This function uses a non-reentrant model
  1994 ;;
  1995                           
  1996                           
  1997                           ;psect for function _siete
  1998  02C7                     _siete:	
  1999                           
  2000                           ;main.c: 269: PORTA=0b01000000;
  2001                           
  2002                           ;incstack = 0
  2003                           ; Regs used in _siete: [wreg+status,2+status,0+pclath+cstack]
  2004  02C7  3040               	movlw	64
  2005  02C8  0140               	movlb	0	; select bank0
  2006  02C9  008C               	movwf	12	;volatile
  2007                           
  2008                           ;main.c: 270: espera();
  2009  02CA  3184  245F  3182   	fcall	_espera
  2010                           
  2011                           ;main.c: 271: off();
  2012  02CD  3184  246C  3182   	fcall	_off
  2013                           
  2014                           ;main.c: 272: PORTA=0b01010000;
  2015  02D0  3050               	movlw	80
  2016  02D1  0140               	movlb	0	; select bank0
  2017  02D2  008C               	movwf	12	;volatile
  2018                           
  2019                           ;main.c: 273: espera();
  2020  02D3  3184  245F  3182   	fcall	_espera
  2021                           
  2022                           ;main.c: 274: off();
  2023  02D6  3184  246C  3182   	fcall	_off
  2024                           
  2025                           ;main.c: 275: PORTA=0b01010000;
  2026  02D9  3050               	movlw	80
  2027  02DA  0140               	movlb	0	; select bank0
  2028  02DB  008C               	movwf	12	;volatile
  2029                           
  2030                           ;main.c: 276: espera();
  2031  02DC  3184  245F  3182   	fcall	_espera
  2032                           
  2033                           ;main.c: 277: off();
  2034  02DF  3184  246C  3182   	fcall	_off
  2035                           
  2036                           ;main.c: 278: PORTA=0b11111111;
  2037  02E2  30FF               	movlw	255
  2038  02E3  0140               	movlb	0	; select bank0
  2039  02E4  008C               	movwf	12	;volatile
  2040                           
  2041                           ;main.c: 279: espera();
  2042  02E5  3184  245F  3182   	fcall	_espera
  2043                           
  2044                           ;main.c: 280: off();
  2045  02E8  3184  246C  3182   	fcall	_off
  2046                           
  2047                           ;main.c: 281: espera();
  2048  02EB  3184  245F         	fcall	_espera
  2049  02ED  0008               	return
  2050  02EE                     __end_of_siete:	
  2051                           
  2052                           	psect	text8
  2053  02EE                     __ptext8:	
  2054 ;; *************** function _seis *****************
  2055 ;; Defined at:
  2056 ;;		line 252 in file "main.c"
  2057 ;; Parameters:    Size  Location     Type
  2058 ;;		None
  2059 ;; Auto vars:     Size  Location     Type
  2060 ;;		None
  2061 ;; Return value:  Size  Location     Type
  2062 ;;                  1    wreg      void 
  2063 ;; Registers used:
  2064 ;;		wreg, status,2, status,0, pclath, cstack
  2065 ;; Tracked objects:
  2066 ;;		On entry : 0/0
  2067 ;;		On exit  : 0/0
  2068 ;;		Unchanged: 0/0
  2069 ;; Data sizes:     COMMON   BANK0   BANK1   BANK2   BANK3   BANK4   BANK5   BANK6   BANK7   BANK8   BANK9  BANK10  BANK1
      +1  BANK12  BANK13  BANK14  BANK15  BANK16  BANK17  BANK18  BANK19  BANK20  BANK21  BANK22  BANK23  BANK24  BANK25  BANK2
      +6  BANK27  BANK28  BANK29  BANK30  BANK31  BANK32  BANK33  BANK34  BANK35  BANK36  BANK37  BANK38  BANK39  BANK40  BANK4
      +1  BANK42  BANK43  BANK44  BANK45  BANK46  BANK47  BANK48  BANK49  BANK50
  2070 ;;      Params:         0       0       0       0       0       0       0       0       0       0       0       0       
      +0       0       0       0       0       0       0       0       0       0       0       0       0       0       0       
      +0       0       0       0       0       0       0       0       0       0       0       0       0       0       0       
      +0       0       0       0       0       0       0       0       0       0
  2071 ;;      Locals:         0       0       0       0       0       0       0       0       0       0       0       0       
      +0       0       0       0       0       0       0       0       0       0       0       0       0       0       0       
      +0       0       0       0       0       0       0       0       0       0       0       0       0       0       0       
      +0       0       0       0       0       0       0       0       0       0
  2072 ;;      Temps:          0       0       0       0       0       0       0       0       0       0       0       0       
      +0       0       0       0       0       0       0       0       0       0       0       0       0       0       0       
      +0       0       0       0       0       0       0       0       0       0       0       0       0       0       0       
      +0       0       0       0       0       0       0       0       0       0
  2073 ;;      Totals:         0       0       0       0       0       0       0       0       0       0       0       0       
      +0       0       0       0       0       0       0       0       0       0       0       0       0       0       0       
      +0       0       0       0       0       0       0       0       0       0       0       0       0       0       0       
      +0       0       0       0       0       0       0       0       0       0
  2074 ;;Total ram usage:        0 bytes
  2075 ;; Hardware stack levels used:    1
  2076 ;; Hardware stack levels required when called:    2
  2077 ;; This function calls:
  2078 ;;		_espera
  2079 ;;		_off
  2080 ;; This function is called by:
  2081 ;;		_numero
  2082 ;; This function uses a non-reentrant model
  2083 ;;
  2084                           
  2085                           
  2086                           ;psect for function _seis
  2087  02EE                     _seis:	
  2088                           
  2089                           ;main.c: 253: PORTA=0b00111110;
  2090                           
  2091                           ;incstack = 0
  2092                           ; Regs used in _seis: [wreg+status,2+status,0+pclath+cstack]
  2093  02EE  303E               	movlw	62
  2094  02EF  0140               	movlb	0	; select bank0
  2095  02F0  008C               	movwf	12	;volatile
  2096                           
  2097                           ;main.c: 254: espera();
  2098  02F1  3184  245F  3182   	fcall	_espera
  2099                           
  2100                           ;main.c: 255: off();
  2101  02F4  3184  246C  3182   	fcall	_off
  2102                           
  2103                           ;main.c: 256: PORTA=0b10010001;
  2104  02F7  3091               	movlw	145
  2105  02F8  0140               	movlb	0	; select bank0
  2106  02F9  008C               	movwf	12	;volatile
  2107                           
  2108                           ;main.c: 257: espera();
  2109  02FA  3184  245F  3182   	fcall	_espera
  2110                           
  2111                           ;main.c: 258: off();
  2112  02FD  3184  246C  3182   	fcall	_off
  2113                           
  2114                           ;main.c: 259: PORTA=0b01010001;
  2115  0300  3051               	movlw	81
  2116  0301  0140               	movlb	0	; select bank0
  2117  0302  008C               	movwf	12	;volatile
  2118                           
  2119                           ;main.c: 260: espera();
  2120  0303  3184  245F  3182   	fcall	_espera
  2121                           
  2122                           ;main.c: 261: off();
  2123  0306  3184  246C  3182   	fcall	_off
  2124                           
  2125                           ;main.c: 262: PORTA=0b01001110;
  2126  0309  304E               	movlw	78
  2127  030A  0140               	movlb	0	; select bank0
  2128  030B  008C               	movwf	12	;volatile
  2129                           
  2130                           ;main.c: 263: espera();
  2131  030C  3184  245F  3182   	fcall	_espera
  2132                           
  2133                           ;main.c: 264: off();
  2134  030F  3184  246C  3182   	fcall	_off
  2135                           
  2136                           ;main.c: 265: espera();
  2137  0312  3184  245F         	fcall	_espera
  2138  0314  0008               	return
  2139  0315                     __end_of_seis:	
  2140                           
  2141                           	psect	text9
  2142  0315                     __ptext9:	
  2143 ;; *************** function _ocho *****************
  2144 ;; Defined at:
  2145 ;;		line 284 in file "main.c"
  2146 ;; Parameters:    Size  Location     Type
  2147 ;;		None
  2148 ;; Auto vars:     Size  Location     Type
  2149 ;;		None
  2150 ;; Return value:  Size  Location     Type
  2151 ;;                  1    wreg      void 
  2152 ;; Registers used:
  2153 ;;		wreg, status,2, status,0, pclath, cstack
  2154 ;; Tracked objects:
  2155 ;;		On entry : 0/0
  2156 ;;		On exit  : 0/0
  2157 ;;		Unchanged: 0/0
  2158 ;; Data sizes:     COMMON   BANK0   BANK1   BANK2   BANK3   BANK4   BANK5   BANK6   BANK7   BANK8   BANK9  BANK10  BANK1
      +1  BANK12  BANK13  BANK14  BANK15  BANK16  BANK17  BANK18  BANK19  BANK20  BANK21  BANK22  BANK23  BANK24  BANK25  BANK2
      +6  BANK27  BANK28  BANK29  BANK30  BANK31  BANK32  BANK33  BANK34  BANK35  BANK36  BANK37  BANK38  BANK39  BANK40  BANK4
      +1  BANK42  BANK43  BANK44  BANK45  BANK46  BANK47  BANK48  BANK49  BANK50
  2159 ;;      Params:         0       0       0       0       0       0       0       0       0       0       0       0       
      +0       0       0       0       0       0       0       0       0       0       0       0       0       0       0       
      +0       0       0       0       0       0       0       0       0       0       0       0       0       0       0       
      +0       0       0       0       0       0       0       0       0       0
  2160 ;;      Locals:         0       0       0       0       0       0       0       0       0       0       0       0       
      +0       0       0       0       0       0       0       0       0       0       0       0       0       0       0       
      +0       0       0       0       0       0       0       0       0       0       0       0       0       0       0       
      +0       0       0       0       0       0       0       0       0       0
  2161 ;;      Temps:          0       0       0       0       0       0       0       0       0       0       0       0       
      +0       0       0       0       0       0       0       0       0       0       0       0       0       0       0       
      +0       0       0       0       0       0       0       0       0       0       0       0       0       0       0       
      +0       0       0       0       0       0       0       0       0       0
  2162 ;;      Totals:         0       0       0       0       0       0       0       0       0       0       0       0       
      +0       0       0       0       0       0       0       0       0       0       0       0       0       0       0       
      +0       0       0       0       0       0       0       0       0       0       0       0       0       0       0       
      +0       0       0       0       0       0       0       0       0       0
  2163 ;;Total ram usage:        0 bytes
  2164 ;; Hardware stack levels used:    1
  2165 ;; Hardware stack levels required when called:    2
  2166 ;; This function calls:
  2167 ;;		_espera
  2168 ;;		_off
  2169 ;; This function is called by:
  2170 ;;		_numero
  2171 ;; This function uses a non-reentrant model
  2172 ;;
  2173                           
  2174                           
  2175                           ;psect for function _ocho
  2176  0315                     _ocho:	
  2177                           
  2178                           ;main.c: 285: PORTA=0b10101110;
  2179                           
  2180                           ;incstack = 0
  2181                           ; Regs used in _ocho: [wreg+status,2+status,0+pclath+cstack]
  2182  0315  30AE               	movlw	174
  2183  0316  0140               	movlb	0	; select bank0
  2184  0317  008C               	movwf	12	;volatile
  2185                           
  2186                           ;main.c: 286: espera();
  2187  0318  3184  245F  3183   	fcall	_espera
  2188                           
  2189                           ;main.c: 287: off();
  2190  031B  3184  246C  3183   	fcall	_off
  2191                           
  2192                           ;main.c: 288: PORTA=0b01010001;
  2193  031E  3051               	movlw	81
  2194  031F  0140               	movlb	0	; select bank0
  2195  0320  008C               	movwf	12	;volatile
  2196                           
  2197                           ;main.c: 289: espera();
  2198  0321  3184  245F  3183   	fcall	_espera
  2199                           
  2200                           ;main.c: 290: off();
  2201  0324  3184  246C  3183   	fcall	_off
  2202                           
  2203                           ;main.c: 291: PORTA=0b01010001;
  2204  0327  3051               	movlw	81
  2205  0328  0140               	movlb	0	; select bank0
  2206  0329  008C               	movwf	12	;volatile
  2207                           
  2208                           ;main.c: 292: espera();
  2209  032A  3184  245F  3183   	fcall	_espera
  2210                           
  2211                           ;main.c: 293: off();
  2212  032D  3184  246C  3183   	fcall	_off
  2213                           
  2214                           ;main.c: 294: PORTA=0b10101110;
  2215  0330  30AE               	movlw	174
  2216  0331  0140               	movlb	0	; select bank0
  2217  0332  008C               	movwf	12	;volatile
  2218                           
  2219                           ;main.c: 295: espera();
  2220  0333  3184  245F  3183   	fcall	_espera
  2221                           
  2222                           ;main.c: 296: off();
  2223  0336  3184  246C  3183   	fcall	_off
  2224                           
  2225                           ;main.c: 297: espera();
  2226  0339  3184  245F         	fcall	_espera
  2227  033B  0008               	return
  2228  033C                     __end_of_ocho:	
  2229                           
  2230                           	psect	text10
  2231  033C                     __ptext10:	
  2232 ;; *************** function _nueve *****************
  2233 ;; Defined at:
  2234 ;;		line 300 in file "main.c"
  2235 ;; Parameters:    Size  Location     Type
  2236 ;;		None
  2237 ;; Auto vars:     Size  Location     Type
  2238 ;;		None
  2239 ;; Return value:  Size  Location     Type
  2240 ;;                  1    wreg      void 
  2241 ;; Registers used:
  2242 ;;		wreg, status,2, status,0, pclath, cstack
  2243 ;; Tracked objects:
  2244 ;;		On entry : 0/0
  2245 ;;		On exit  : 0/0
  2246 ;;		Unchanged: 0/0
  2247 ;; Data sizes:     COMMON   BANK0   BANK1   BANK2   BANK3   BANK4   BANK5   BANK6   BANK7   BANK8   BANK9  BANK10  BANK1
      +1  BANK12  BANK13  BANK14  BANK15  BANK16  BANK17  BANK18  BANK19  BANK20  BANK21  BANK22  BANK23  BANK24  BANK25  BANK2
      +6  BANK27  BANK28  BANK29  BANK30  BANK31  BANK32  BANK33  BANK34  BANK35  BANK36  BANK37  BANK38  BANK39  BANK40  BANK4
      +1  BANK42  BANK43  BANK44  BANK45  BANK46  BANK47  BANK48  BANK49  BANK50
  2248 ;;      Params:         0       0       0       0       0       0       0       0       0       0       0       0       
      +0       0       0       0       0       0       0       0       0       0       0       0       0       0       0       
      +0       0       0       0       0       0       0       0       0       0       0       0       0       0       0       
      +0       0       0       0       0       0       0       0       0       0
  2249 ;;      Locals:         0       0       0       0       0       0       0       0       0       0       0       0       
      +0       0       0       0       0       0       0       0       0       0       0       0       0       0       0       
      +0       0       0       0       0       0       0       0       0       0       0       0       0       0       0       
      +0       0       0       0       0       0       0       0       0       0
  2250 ;;      Temps:          0       0       0       0       0       0       0       0       0       0       0       0       
      +0       0       0       0       0       0       0       0       0       0       0       0       0       0       0       
      +0       0       0       0       0       0       0       0       0       0       0       0       0       0       0       
      +0       0       0       0       0       0       0       0       0       0
  2251 ;;      Totals:         0       0       0       0       0       0       0       0       0       0       0       0       
      +0       0       0       0       0       0       0       0       0       0       0       0       0       0       0       
      +0       0       0       0       0       0       0       0       0       0       0       0       0       0       0       
      +0       0       0       0       0       0       0       0       0       0
  2252 ;;Total ram usage:        0 bytes
  2253 ;; Hardware stack levels used:    1
  2254 ;; Hardware stack levels required when called:    2
  2255 ;; This function calls:
  2256 ;;		_espera
  2257 ;;		_off
  2258 ;; This function is called by:
  2259 ;;		_numero
  2260 ;; This function uses a non-reentrant model
  2261 ;;
  2262                           
  2263                           
  2264                           ;psect for function _nueve
  2265  033C                     _nueve:	
  2266                           
  2267                           ;main.c: 301: PORTA=0b10100001;
  2268                           
  2269                           ;incstack = 0
  2270                           ; Regs used in _nueve: [wreg+status,2+status,0+pclath+cstack]
  2271  033C  30A1               	movlw	161
  2272  033D  0140               	movlb	0	; select bank0
  2273  033E  008C               	movwf	12	;volatile
  2274                           
  2275                           ;main.c: 302: espera();
  2276  033F  3184  245F  3183   	fcall	_espera
  2277                           
  2278                           ;main.c: 303: off();
  2279  0342  3184  246C  3183   	fcall	_off
  2280                           
  2281                           ;main.c: 304: PORTA=0b01010010;
  2282  0345  3052               	movlw	82
  2283  0346  0140               	movlb	0	; select bank0
  2284  0347  008C               	movwf	12	;volatile
  2285                           
  2286                           ;main.c: 305: espera();
  2287  0348  3184  245F  3183   	fcall	_espera
  2288                           
  2289                           ;main.c: 306: off();
  2290  034B  3184  246C  3183   	fcall	_off
  2291                           
  2292                           ;main.c: 307: PORTA=0b01010100;
  2293  034E  3054               	movlw	84
  2294  034F  0140               	movlb	0	; select bank0
  2295  0350  008C               	movwf	12	;volatile
  2296                           
  2297                           ;main.c: 308: espera();
  2298  0351  3184  245F  3183   	fcall	_espera
  2299                           
  2300                           ;main.c: 309: off();
  2301  0354  3184  246C  3183   	fcall	_off
  2302                           
  2303                           ;main.c: 310: PORTA=0b10111000;
  2304  0357  30B8               	movlw	184
  2305  0358  0140               	movlb	0	; select bank0
  2306  0359  008C               	movwf	12	;volatile
  2307                           
  2308                           ;main.c: 311: espera();
  2309  035A  3184  245F  3183   	fcall	_espera
  2310                           
  2311                           ;main.c: 312: off();
  2312  035D  3184  246C  3183   	fcall	_off
  2313                           
  2314                           ;main.c: 313: espera();
  2315  0360  3184  245F         	fcall	_espera
  2316  0362  0008               	return
  2317  0363                     __end_of_nueve:	
  2318                           
  2319                           	psect	text11
  2320  0363                     __ptext11:	
  2321 ;; *************** function _dos *****************
  2322 ;; Defined at:
  2323 ;;		line 185 in file "main.c"
  2324 ;; Parameters:    Size  Location     Type
  2325 ;;		None
  2326 ;; Auto vars:     Size  Location     Type
  2327 ;;		None
  2328 ;; Return value:  Size  Location     Type
  2329 ;;                  1    wreg      void 
  2330 ;; Registers used:
  2331 ;;		wreg, status,2, status,0, pclath, cstack
  2332 ;; Tracked objects:
  2333 ;;		On entry : 0/0
  2334 ;;		On exit  : 0/0
  2335 ;;		Unchanged: 0/0
  2336 ;; Data sizes:     COMMON   BANK0   BANK1   BANK2   BANK3   BANK4   BANK5   BANK6   BANK7   BANK8   BANK9  BANK10  BANK1
      +1  BANK12  BANK13  BANK14  BANK15  BANK16  BANK17  BANK18  BANK19  BANK20  BANK21  BANK22  BANK23  BANK24  BANK25  BANK2
      +6  BANK27  BANK28  BANK29  BANK30  BANK31  BANK32  BANK33  BANK34  BANK35  BANK36  BANK37  BANK38  BANK39  BANK40  BANK4
      +1  BANK42  BANK43  BANK44  BANK45  BANK46  BANK47  BANK48  BANK49  BANK50
  2337 ;;      Params:         0       0       0       0       0       0       0       0       0       0       0       0       
      +0       0       0       0       0       0       0       0       0       0       0       0       0       0       0       
      +0       0       0       0       0       0       0       0       0       0       0       0       0       0       0       
      +0       0       0       0       0       0       0       0       0       0
  2338 ;;      Locals:         0       0       0       0       0       0       0       0       0       0       0       0       
      +0       0       0       0       0       0       0       0       0       0       0       0       0       0       0       
      +0       0       0       0       0       0       0       0       0       0       0       0       0       0       0       
      +0       0       0       0       0       0       0       0       0       0
  2339 ;;      Temps:          0       0       0       0       0       0       0       0       0       0       0       0       
      +0       0       0       0       0       0       0       0       0       0       0       0       0       0       0       
      +0       0       0       0       0       0       0       0       0       0       0       0       0       0       0       
      +0       0       0       0       0       0       0       0       0       0
  2340 ;;      Totals:         0       0       0       0       0       0       0       0       0       0       0       0       
      +0       0       0       0       0       0       0       0       0       0       0       0       0       0       0       
      +0       0       0       0       0       0       0       0       0       0       0       0       0       0       0       
      +0       0       0       0       0       0       0       0       0       0
  2341 ;;Total ram usage:        0 bytes
  2342 ;; Hardware stack levels used:    1
  2343 ;; Hardware stack levels required when called:    2
  2344 ;; This function calls:
  2345 ;;		_espera
  2346 ;;		_off
  2347 ;; This function is called by:
  2348 ;;		_numero
  2349 ;; This function uses a non-reentrant model
  2350 ;;
  2351                           
  2352                           
  2353                           ;psect for function _dos
  2354  0363                     _dos:	
  2355                           
  2356                           ;main.c: 186: PORTA=0b10100111;
  2357                           
  2358                           ;incstack = 0
  2359                           ; Regs used in _dos: [wreg+status,2+status,0+pclath+cstack]
  2360  0363  30A7               	movlw	167
  2361  0364  0140               	movlb	0	; select bank0
  2362  0365  008C               	movwf	12	;volatile
  2363                           
  2364                           ;main.c: 187: espera();
  2365  0366  3184  245F  3183   	fcall	_espera
  2366                           
  2367                           ;main.c: 188: off();
  2368  0369  3184  246C  3183   	fcall	_off
  2369                           
  2370                           ;main.c: 189: PORTA=0b01001001;
  2371  036C  3049               	movlw	73
  2372  036D  0140               	movlb	0	; select bank0
  2373  036E  008C               	movwf	12	;volatile
  2374                           
  2375                           ;main.c: 190: espera();
  2376  036F  3184  245F  3183   	fcall	_espera
  2377                           
  2378                           ;main.c: 191: off();
  2379  0372  3184  246C  3183   	fcall	_off
  2380                           
  2381                           ;main.c: 192: PORTA=0b01010001;
  2382  0375  3051               	movlw	81
  2383  0376  0140               	movlb	0	; select bank0
  2384  0377  008C               	movwf	12	;volatile
  2385                           
  2386                           ;main.c: 193: espera();
  2387  0378  3184  245F  3183   	fcall	_espera
  2388                           
  2389                           ;main.c: 194: off();
  2390  037B  3184  246C  3183   	fcall	_off
  2391                           
  2392                           ;main.c: 195: PORTA=0b10100001;
  2393  037E  30A1               	movlw	161
  2394  037F  0140               	movlb	0	; select bank0
  2395  0380  008C               	movwf	12	;volatile
  2396                           
  2397                           ;main.c: 196: espera();
  2398  0381  3184  245F  3183   	fcall	_espera
  2399                           
  2400                           ;main.c: 197: off();
  2401  0384  3184  246C  3183   	fcall	_off
  2402                           
  2403                           ;main.c: 198: espera();
  2404  0387  3184  245F         	fcall	_espera
  2405  0389  0008               	return
  2406  038A                     __end_of_dos:	
  2407                           
  2408                           	psect	text12
  2409  038A                     __ptext12:	
  2410 ;; *************** function _cuatro *****************
  2411 ;; Defined at:
  2412 ;;		line 220 in file "main.c"
  2413 ;; Parameters:    Size  Location     Type
  2414 ;;		None
  2415 ;; Auto vars:     Size  Location     Type
  2416 ;;		None
  2417 ;; Return value:  Size  Location     Type
  2418 ;;                  1    wreg      void 
  2419 ;; Registers used:
  2420 ;;		wreg, status,2, status,0, pclath, cstack
  2421 ;; Tracked objects:
  2422 ;;		On entry : 0/0
  2423 ;;		On exit  : 0/0
  2424 ;;		Unchanged: 0/0
  2425 ;; Data sizes:     COMMON   BANK0   BANK1   BANK2   BANK3   BANK4   BANK5   BANK6   BANK7   BANK8   BANK9  BANK10  BANK1
      +1  BANK12  BANK13  BANK14  BANK15  BANK16  BANK17  BANK18  BANK19  BANK20  BANK21  BANK22  BANK23  BANK24  BANK25  BANK2
      +6  BANK27  BANK28  BANK29  BANK30  BANK31  BANK32  BANK33  BANK34  BANK35  BANK36  BANK37  BANK38  BANK39  BANK40  BANK4
      +1  BANK42  BANK43  BANK44  BANK45  BANK46  BANK47  BANK48  BANK49  BANK50
  2426 ;;      Params:         0       0       0       0       0       0       0       0       0       0       0       0       
      +0       0       0       0       0       0       0       0       0       0       0       0       0       0       0       
      +0       0       0       0       0       0       0       0       0       0       0       0       0       0       0       
      +0       0       0       0       0       0       0       0       0       0
  2427 ;;      Locals:         0       0       0       0       0       0       0       0       0       0       0       0       
      +0       0       0       0       0       0       0       0       0       0       0       0       0       0       0       
      +0       0       0       0       0       0       0       0       0       0       0       0       0       0       0       
      +0       0       0       0       0       0       0       0       0       0
  2428 ;;      Temps:          0       0       0       0       0       0       0       0       0       0       0       0       
      +0       0       0       0       0       0       0       0       0       0       0       0       0       0       0       
      +0       0       0       0       0       0       0       0       0       0       0       0       0       0       0       
      +0       0       0       0       0       0       0       0       0       0
  2429 ;;      Totals:         0       0       0       0       0       0       0       0       0       0       0       0       
      +0       0       0       0       0       0       0       0       0       0       0       0       0       0       0       
      +0       0       0       0       0       0       0       0       0       0       0       0       0       0       0       
      +0       0       0       0       0       0       0       0       0       0
  2430 ;;Total ram usage:        0 bytes
  2431 ;; Hardware stack levels used:    1
  2432 ;; Hardware stack levels required when called:    2
  2433 ;; This function calls:
  2434 ;;		_espera
  2435 ;;		_off
  2436 ;; This function is called by:
  2437 ;;		_numero
  2438 ;; This function uses a non-reentrant model
  2439 ;;
  2440                           
  2441                           
  2442                           ;psect for function _cuatro
  2443  038A                     _cuatro:	
  2444                           
  2445                           ;main.c: 221: PORTA=0b11110000;
  2446                           
  2447                           ;incstack = 0
  2448                           ; Regs used in _cuatro: [wreg+status,2+status,0+pclath+cstack]
  2449  038A  30F0               	movlw	240
  2450  038B  0140               	movlb	0	; select bank0
  2451  038C  008C               	movwf	12	;volatile
  2452                           
  2453                           ;main.c: 222: espera();
  2454  038D  3184  245F  3183   	fcall	_espera
  2455                           
  2456                           ;main.c: 223: off();
  2457  0390  3184  246C  3183   	fcall	_off
  2458                           
  2459                           ;main.c: 224: PORTA=0b00010000;
  2460  0393  3010               	movlw	16
  2461  0394  0140               	movlb	0	; select bank0
  2462  0395  008C               	movwf	12	;volatile
  2463                           
  2464                           ;main.c: 225: espera();
  2465  0396  3184  245F  3183   	fcall	_espera
  2466                           
  2467                           ;main.c: 226: off();
  2468  0399  3184  246C  3183   	fcall	_off
  2469                           
  2470                           ;main.c: 227: PORTA=0b00010000;
  2471  039C  3010               	movlw	16
  2472  039D  0140               	movlb	0	; select bank0
  2473  039E  008C               	movwf	12	;volatile
  2474                           
  2475                           ;main.c: 228: espera();
  2476  039F  3184  245F  3183   	fcall	_espera
  2477                           
  2478                           ;main.c: 229: off();
  2479  03A2  3184  246C  3183   	fcall	_off
  2480                           
  2481                           ;main.c: 230: PORTA=0b11111111;
  2482  03A5  30FF               	movlw	255
  2483  03A6  0140               	movlb	0	; select bank0
  2484  03A7  008C               	movwf	12	;volatile
  2485                           
  2486                           ;main.c: 231: espera();
  2487  03A8  3184  245F  3183   	fcall	_espera
  2488                           
  2489                           ;main.c: 232: off();
  2490  03AB  3184  246C  3183   	fcall	_off
  2491                           
  2492                           ;main.c: 233: espera();
  2493  03AE  3184  245F         	fcall	_espera
  2494  03B0  0008               	return
  2495  03B1                     __end_of_cuatro:	
  2496                           
  2497                           	psect	text13
  2498  03B1                     __ptext13:	
  2499 ;; *************** function _cinco *****************
  2500 ;; Defined at:
  2501 ;;		line 236 in file "main.c"
  2502 ;; Parameters:    Size  Location     Type
  2503 ;;		None
  2504 ;; Auto vars:     Size  Location     Type
  2505 ;;		None
  2506 ;; Return value:  Size  Location     Type
  2507 ;;                  1    wreg      void 
  2508 ;; Registers used:
  2509 ;;		wreg, status,2, status,0, pclath, cstack
  2510 ;; Tracked objects:
  2511 ;;		On entry : 0/0
  2512 ;;		On exit  : 0/0
  2513 ;;		Unchanged: 0/0
  2514 ;; Data sizes:     COMMON   BANK0   BANK1   BANK2   BANK3   BANK4   BANK5   BANK6   BANK7   BANK8   BANK9  BANK10  BANK1
      +1  BANK12  BANK13  BANK14  BANK15  BANK16  BANK17  BANK18  BANK19  BANK20  BANK21  BANK22  BANK23  BANK24  BANK25  BANK2
      +6  BANK27  BANK28  BANK29  BANK30  BANK31  BANK32  BANK33  BANK34  BANK35  BANK36  BANK37  BANK38  BANK39  BANK40  BANK4
      +1  BANK42  BANK43  BANK44  BANK45  BANK46  BANK47  BANK48  BANK49  BANK50
  2515 ;;      Params:         0       0       0       0       0       0       0       0       0       0       0       0       
      +0       0       0       0       0       0       0       0       0       0       0       0       0       0       0       
      +0       0       0       0       0       0       0       0       0       0       0       0       0       0       0       
      +0       0       0       0       0       0       0       0       0       0
  2516 ;;      Locals:         0       0       0       0       0       0       0       0       0       0       0       0       
      +0       0       0       0       0       0       0       0       0       0       0       0       0       0       0       
      +0       0       0       0       0       0       0       0       0       0       0       0       0       0       0       
      +0       0       0       0       0       0       0       0       0       0
  2517 ;;      Temps:          0       0       0       0       0       0       0       0       0       0       0       0       
      +0       0       0       0       0       0       0       0       0       0       0       0       0       0       0       
      +0       0       0       0       0       0       0       0       0       0       0       0       0       0       0       
      +0       0       0       0       0       0       0       0       0       0
  2518 ;;      Totals:         0       0       0       0       0       0       0       0       0       0       0       0       
      +0       0       0       0       0       0       0       0       0       0       0       0       0       0       0       
      +0       0       0       0       0       0       0       0       0       0       0       0       0       0       0       
      +0       0       0       0       0       0       0       0       0       0
  2519 ;;Total ram usage:        0 bytes
  2520 ;; Hardware stack levels used:    1
  2521 ;; Hardware stack levels required when called:    2
  2522 ;; This function calls:
  2523 ;;		_espera
  2524 ;;		_off
  2525 ;; This function is called by:
  2526 ;;		_numero
  2527 ;; This function uses a non-reentrant model
  2528 ;;
  2529                           
  2530                           
  2531                           ;psect for function _cinco
  2532  03B1                     _cinco:	
  2533                           
  2534                           ;main.c: 237: PORTA=0b11110011;
  2535                           
  2536                           ;incstack = 0
  2537                           ; Regs used in _cinco: [wreg+status,2+status,0+pclath+cstack]
  2538  03B1  30F3               	movlw	243
  2539  03B2  0140               	movlb	0	; select bank0
  2540  03B3  008C               	movwf	12	;volatile
  2541                           
  2542                           ;main.c: 238: espera();
  2543  03B4  3184  245F  3183   	fcall	_espera
  2544                           
  2545                           ;main.c: 239: off();
  2546  03B7  3184  246C  3183   	fcall	_off
  2547                           
  2548                           ;main.c: 240: PORTA=0b01010001;
  2549  03BA  3051               	movlw	81
  2550  03BB  0140               	movlb	0	; select bank0
  2551  03BC  008C               	movwf	12	;volatile
  2552                           
  2553                           ;main.c: 241: espera();
  2554  03BD  3184  245F  3183   	fcall	_espera
  2555                           
  2556                           ;main.c: 242: off();
  2557  03C0  3184  246C  3183   	fcall	_off
  2558                           
  2559                           ;main.c: 243: PORTA=0b01010001;
  2560  03C3  3051               	movlw	81
  2561  03C4  0140               	movlb	0	; select bank0
  2562  03C5  008C               	movwf	12	;volatile
  2563                           
  2564                           ;main.c: 244: espera();
  2565  03C6  3184  245F  3183   	fcall	_espera
  2566                           
  2567                           ;main.c: 245: off();
  2568  03C9  3184  246C  3183   	fcall	_off
  2569                           
  2570                           ;main.c: 246: PORTA=0b01001110;
  2571  03CC  304E               	movlw	78
  2572  03CD  0140               	movlb	0	; select bank0
  2573  03CE  008C               	movwf	12	;volatile
  2574                           
  2575                           ;main.c: 247: espera();
  2576  03CF  3184  245F  3183   	fcall	_espera
  2577                           
  2578                           ;main.c: 248: off();
  2579  03D2  3184  246C  3183   	fcall	_off
  2580                           
  2581                           ;main.c: 249: espera();
  2582  03D5  3184  245F         	fcall	_espera
  2583  03D7  0008               	return
  2584  03D8                     __end_of_cinco:	
  2585                           
  2586                           	psect	text14
  2587  03D8                     __ptext14:	
  2588 ;; *************** function _cero *****************
  2589 ;; Defined at:
  2590 ;;		line 156 in file "main.c"
  2591 ;; Parameters:    Size  Location     Type
  2592 ;;		None
  2593 ;; Auto vars:     Size  Location     Type
  2594 ;;		None
  2595 ;; Return value:  Size  Location     Type
  2596 ;;                  1    wreg      void 
  2597 ;; Registers used:
  2598 ;;		wreg, status,2, status,0, pclath, cstack
  2599 ;; Tracked objects:
  2600 ;;		On entry : 0/0
  2601 ;;		On exit  : 0/0
  2602 ;;		Unchanged: 0/0
  2603 ;; Data sizes:     COMMON   BANK0   BANK1   BANK2   BANK3   BANK4   BANK5   BANK6   BANK7   BANK8   BANK9  BANK10  BANK1
      +1  BANK12  BANK13  BANK14  BANK15  BANK16  BANK17  BANK18  BANK19  BANK20  BANK21  BANK22  BANK23  BANK24  BANK25  BANK2
      +6  BANK27  BANK28  BANK29  BANK30  BANK31  BANK32  BANK33  BANK34  BANK35  BANK36  BANK37  BANK38  BANK39  BANK40  BANK4
      +1  BANK42  BANK43  BANK44  BANK45  BANK46  BANK47  BANK48  BANK49  BANK50
  2604 ;;      Params:         0       0       0       0       0       0       0       0       0       0       0       0       
      +0       0       0       0       0       0       0       0       0       0       0       0       0       0       0       
      +0       0       0       0       0       0       0       0       0       0       0       0       0       0       0       
      +0       0       0       0       0       0       0       0       0       0
  2605 ;;      Locals:         0       0       0       0       0       0       0       0       0       0       0       0       
      +0       0       0       0       0       0       0       0       0       0       0       0       0       0       0       
      +0       0       0       0       0       0       0       0       0       0       0       0       0       0       0       
      +0       0       0       0       0       0       0       0       0       0
  2606 ;;      Temps:          0       0       0       0       0       0       0       0       0       0       0       0       
      +0       0       0       0       0       0       0       0       0       0       0       0       0       0       0       
      +0       0       0       0       0       0       0       0       0       0       0       0       0       0       0       
      +0       0       0       0       0       0       0       0       0       0
  2607 ;;      Totals:         0       0       0       0       0       0       0       0       0       0       0       0       
      +0       0       0       0       0       0       0       0       0       0       0       0       0       0       0       
      +0       0       0       0       0       0       0       0       0       0       0       0       0       0       0       
      +0       0       0       0       0       0       0       0       0       0
  2608 ;;Total ram usage:        0 bytes
  2609 ;; Hardware stack levels used:    1
  2610 ;; Hardware stack levels required when called:    2
  2611 ;; This function calls:
  2612 ;;		_espera
  2613 ;;		_off
  2614 ;; This function is called by:
  2615 ;;		_numero
  2616 ;;		_impresiont
  2617 ;; This function uses a non-reentrant model
  2618 ;;
  2619                           
  2620                           
  2621                           ;psect for function _cero
  2622  03D8                     _cero:	
  2623                           
  2624                           ;main.c: 157: PORTA=0b10111110;
  2625                           
  2626                           ;incstack = 0
  2627                           ; Regs used in _cero: [wreg+status,2+status,0+pclath+cstack]
  2628  03D8  30BE               	movlw	190
  2629  03D9  0140               	movlb	0	; select bank0
  2630  03DA  008C               	movwf	12	;volatile
  2631                           
  2632                           ;main.c: 158: espera();
  2633  03DB  3184  245F  3183   	fcall	_espera
  2634                           
  2635                           ;main.c: 159: off();
  2636  03DE  3184  246C  3183   	fcall	_off
  2637                           
  2638                           ;main.c: 160: PORTA=0b01000001;
  2639  03E1  3041               	movlw	65
  2640  03E2  0140               	movlb	0	; select bank0
  2641  03E3  008C               	movwf	12	;volatile
  2642                           
  2643                           ;main.c: 161: espera();
  2644  03E4  3184  245F  3183   	fcall	_espera
  2645                           
  2646                           ;main.c: 162: off();
  2647  03E7  3184  246C  3183   	fcall	_off
  2648                           
  2649                           ;main.c: 163: PORTA=0b01000001;
  2650  03EA  3041               	movlw	65
  2651  03EB  0140               	movlb	0	; select bank0
  2652  03EC  008C               	movwf	12	;volatile
  2653                           
  2654                           ;main.c: 164: espera();
  2655  03ED  3184  245F  3183   	fcall	_espera
  2656                           
  2657                           ;main.c: 165: off();
  2658  03F0  3184  246C  3183   	fcall	_off
  2659                           
  2660                           ;main.c: 166: PORTA=0b10111110;
  2661  03F3  30BE               	movlw	190
  2662  03F4  0140               	movlb	0	; select bank0
  2663  03F5  008C               	movwf	12	;volatile
  2664                           
  2665                           ;main.c: 167: espera();
  2666  03F6  3184  245F  3183   	fcall	_espera
  2667                           
  2668                           ;main.c: 168: off();
  2669  03F9  3184  246C  3183   	fcall	_off
  2670                           
  2671                           ;main.c: 169: espera();
  2672  03FC  3184  245F         	fcall	_espera
  2673  03FE  0008               	return
  2674  03FF                     __end_of_cero:	
  2675                           
  2676                           	psect	text15
  2677  046C                     __ptext15:	
  2678 ;; *************** function _off *****************
  2679 ;; Defined at:
  2680 ;;		line 78 in file "main.c"
  2681 ;; Parameters:    Size  Location     Type
  2682 ;;		None
  2683 ;; Auto vars:     Size  Location     Type
  2684 ;;		None
  2685 ;; Return value:  Size  Location     Type
  2686 ;;                  1    wreg      void 
  2687 ;; Registers used:
  2688 ;;		status,2
  2689 ;; Tracked objects:
  2690 ;;		On entry : 0/0
  2691 ;;		On exit  : 0/0
  2692 ;;		Unchanged: 0/0
  2693 ;; Data sizes:     COMMON   BANK0   BANK1   BANK2   BANK3   BANK4   BANK5   BANK6   BANK7   BANK8   BANK9  BANK10  BANK1
      +1  BANK12  BANK13  BANK14  BANK15  BANK16  BANK17  BANK18  BANK19  BANK20  BANK21  BANK22  BANK23  BANK24  BANK25  BANK2
      +6  BANK27  BANK28  BANK29  BANK30  BANK31  BANK32  BANK33  BANK34  BANK35  BANK36  BANK37  BANK38  BANK39  BANK40  BANK4
      +1  BANK42  BANK43  BANK44  BANK45  BANK46  BANK47  BANK48  BANK49  BANK50
  2694 ;;      Params:         0       0       0       0       0       0       0       0       0       0       0       0       
      +0       0       0       0       0       0       0       0       0       0       0       0       0       0       0       
      +0       0       0       0       0       0       0       0       0       0       0       0       0       0       0       
      +0       0       0       0       0       0       0       0       0       0
  2695 ;;      Locals:         0       0       0       0       0       0       0       0       0       0       0       0       
      +0       0       0       0       0       0       0       0       0       0       0       0       0       0       0       
      +0       0       0       0       0       0       0       0       0       0       0       0       0       0       0       
      +0       0       0       0       0       0       0       0       0       0
  2696 ;;      Temps:          0       0       0       0       0       0       0       0       0       0       0       0       
      +0       0       0       0       0       0       0       0       0       0       0       0       0       0       0       
      +0       0       0       0       0       0       0       0       0       0       0       0       0       0       0       
      +0       0       0       0       0       0       0       0       0       0
  2697 ;;      Totals:         0       0       0       0       0       0       0       0       0       0       0       0       
      +0       0       0       0       0       0       0       0       0       0       0       0       0       0       0       
      +0       0       0       0       0       0       0       0       0       0       0       0       0       0       0       
      +0       0       0       0       0       0       0       0       0       0
  2698 ;;Total ram usage:        0 bytes
  2699 ;; Hardware stack levels used:    1
  2700 ;; Hardware stack levels required when called:    1
  2701 ;; This function calls:
  2702 ;;		Nothing
  2703 ;; This function is called by:
  2704 ;;		_leyenda
  2705 ;;		_cero
  2706 ;;		_uno
  2707 ;;		_dos
  2708 ;;		_tres
  2709 ;;		_cuatro
  2710 ;;		_cinco
  2711 ;;		_seis
  2712 ;;		_siete
  2713 ;;		_ocho
  2714 ;;		_nueve
  2715 ;;		_puntos
  2716 ;;		_corazon
  2717 ;; This function uses a non-reentrant model
  2718 ;;
  2719                           
  2720                           
  2721                           ;psect for function _off
  2722  046C                     _off:	
  2723                           
  2724                           ;main.c: 79: PORTA=0b00000000;
  2725                           
  2726                           ;incstack = 0
  2727                           ; Regs used in _off: [status,2]
  2728  046C  0140               	movlb	0	; select bank0
  2729  046D  018C               	clrf	12	;volatile
  2730  046E  0008               	return
  2731  046F                     __end_of_off:	
  2732                           
  2733                           	psect	text16
  2734  045F                     __ptext16:	
  2735 ;; *************** function _espera *****************
  2736 ;; Defined at:
  2737 ;;		line 92 in file "main.c"
  2738 ;; Parameters:    Size  Location     Type
  2739 ;;		None
  2740 ;; Auto vars:     Size  Location     Type
  2741 ;;		None
  2742 ;; Return value:  Size  Location     Type
  2743 ;;                  1    wreg      void 
  2744 ;; Registers used:
  2745 ;;		wreg
  2746 ;; Tracked objects:
  2747 ;;		On entry : 0/0
  2748 ;;		On exit  : 0/0
  2749 ;;		Unchanged: 0/0
  2750 ;; Data sizes:     COMMON   BANK0   BANK1   BANK2   BANK3   BANK4   BANK5   BANK6   BANK7   BANK8   BANK9  BANK10  BANK1
      +1  BANK12  BANK13  BANK14  BANK15  BANK16  BANK17  BANK18  BANK19  BANK20  BANK21  BANK22  BANK23  BANK24  BANK25  BANK2
      +6  BANK27  BANK28  BANK29  BANK30  BANK31  BANK32  BANK33  BANK34  BANK35  BANK36  BANK37  BANK38  BANK39  BANK40  BANK4
      +1  BANK42  BANK43  BANK44  BANK45  BANK46  BANK47  BANK48  BANK49  BANK50
  2751 ;;      Params:         0       0       0       0       0       0       0       0       0       0       0       0       
      +0       0       0       0       0       0       0       0       0       0       0       0       0       0       0       
      +0       0       0       0       0       0       0       0       0       0       0       0       0       0       0       
      +0       0       0       0       0       0       0       0       0       0
  2752 ;;      Locals:         0       0       0       0       0       0       0       0       0       0       0       0       
      +0       0       0       0       0       0       0       0       0       0       0       0       0       0       0       
      +0       0       0       0       0       0       0       0       0       0       0       0       0       0       0       
      +0       0       0       0       0       0       0       0       0       0
  2753 ;;      Temps:          1       0       0       0       0       0       0       0       0       0       0       0       
      +0       0       0       0       0       0       0       0       0       0       0       0       0       0       0       
      +0       0       0       0       0       0       0       0       0       0       0       0       0       0       0       
      +0       0       0       0       0       0       0       0       0       0
  2754 ;;      Totals:         1       0       0       0       0       0       0       0       0       0       0       0       
      +0       0       0       0       0       0       0       0       0       0       0       0       0       0       0       
      +0       0       0       0       0       0       0       0       0       0       0       0       0       0       0       
      +0       0       0       0       0       0       0       0       0       0
  2755 ;;Total ram usage:        1 bytes
  2756 ;; Hardware stack levels used:    1
  2757 ;; Hardware stack levels required when called:    1
  2758 ;; This function calls:
  2759 ;;		Nothing
  2760 ;; This function is called by:
  2761 ;;		_leyenda
  2762 ;;		_cero
  2763 ;;		_uno
  2764 ;;		_dos
  2765 ;;		_tres
  2766 ;;		_cuatro
  2767 ;;		_cinco
  2768 ;;		_seis
  2769 ;;		_siete
  2770 ;;		_ocho
  2771 ;;		_nueve
  2772 ;;		_puntos
  2773 ;;		_impresiont
  2774 ;;		_corazon
  2775 ;; This function uses a non-reentrant model
  2776 ;;
  2777                           
  2778                           
  2779                           ;psect for function _espera
  2780  045F                     _espera:	
  2781                           
  2782                           ;main.c: 93: _delay((unsigned long)((800)*(32000000/4000000.0)));
  2783                           
  2784                           ;incstack = 0
  2785                           ; Regs used in _espera: [wreg]
  2786  045F  3009               	movlw	9
  2787  0460  00F2               	movwf	??_espera
  2788  0461  304E               	movlw	78
  2789  0462                     u617:	
  2790  0462  0B89               	decfsz	9,f
  2791  0463  2C62               	goto	u617
  2792  0464  0BF2               	decfsz	??_espera,f
  2793  0465  2C62               	goto	u617
  2794  0466  3200               	nop2
  2795  0467  0008               	return
  2796  0468                     __end_of_espera:	
  2797                           
  2798                           	psect	text17
  2799  041D                     __ptext17:	
  2800 ;; *************** function ___wmul *****************
  2801 ;; Defined at:
  2802 ;;		line 15 in file "C:\Program Files (x86)\Microchip\xc8\v1.45\sources\common\Umul16.c"
  2803 ;; Parameters:    Size  Location     Type
  2804 ;;  multiplier      2    4[BANK0 ] unsigned int 
  2805 ;;  multiplicand    2    6[BANK0 ] unsigned int 
  2806 ;; Auto vars:     Size  Location     Type
  2807 ;;  product         2    7[COMMON] unsigned int 
  2808 ;; Return value:  Size  Location     Type
  2809 ;;                  2    4[BANK0 ] unsigned int 
  2810 ;; Registers used:
  2811 ;;		wreg, status,2, status,0
  2812 ;; Tracked objects:
  2813 ;;		On entry : 0/0
  2814 ;;		On exit  : 0/0
  2815 ;;		Unchanged: 0/0
  2816 ;; Data sizes:     COMMON   BANK0   BANK1   BANK2   BANK3   BANK4   BANK5   BANK6   BANK7   BANK8   BANK9  BANK10  BANK1
      +1  BANK12  BANK13  BANK14  BANK15  BANK16  BANK17  BANK18  BANK19  BANK20  BANK21  BANK22  BANK23  BANK24  BANK25  BANK2
      +6  BANK27  BANK28  BANK29  BANK30  BANK31  BANK32  BANK33  BANK34  BANK35  BANK36  BANK37  BANK38  BANK39  BANK40  BANK4
      +1  BANK42  BANK43  BANK44  BANK45  BANK46  BANK47  BANK48  BANK49  BANK50
  2817 ;;      Params:         0       4       0       0       0       0       0       0       0       0       0       0       
      +0       0       0       0       0       0       0       0       0       0       0       0       0       0       0       
      +0       0       0       0       0       0       0       0       0       0       0       0       0       0       0       
      +0       0       0       0       0       0       0       0       0       0
  2818 ;;      Locals:         2       0       0       0       0       0       0       0       0       0       0       0       
      +0       0       0       0       0       0       0       0       0       0       0       0       0       0       0       
      +0       0       0       0       0       0       0       0       0       0       0       0       0       0       0       
      +0       0       0       0       0       0       0       0       0       0
  2819 ;;      Temps:          0       0       0       0       0       0       0       0       0       0       0       0       
      +0       0       0       0       0       0       0       0       0       0       0       0       0       0       0       
      +0       0       0       0       0       0       0       0       0       0       0       0       0       0       0       
      +0       0       0       0       0       0       0       0       0       0
  2820 ;;      Totals:         2       4       0       0       0       0       0       0       0       0       0       0       
      +0       0       0       0       0       0       0       0       0       0       0       0       0       0       0       
      +0       0       0       0       0       0       0       0       0       0       0       0       0       0       0       
      +0       0       0       0       0       0       0       0       0       0
  2821 ;;Total ram usage:        6 bytes
  2822 ;; Hardware stack levels used:    1
  2823 ;; Hardware stack levels required when called:    1
  2824 ;; This function calls:
  2825 ;;		Nothing
  2826 ;; This function is called by:
  2827 ;;		_impresiont
  2828 ;; This function uses a non-reentrant model
  2829 ;;
  2830                           
  2831                           
  2832                           ;psect for function ___wmul
  2833  041D                     ___wmul:	
  2834                           
  2835                           ;incstack = 0
  2836                           ; Regs used in ___wmul: [wreg+status,2+status,0]
  2837  041D  01F7               	clrf	___wmul@product
  2838  041E  01F8               	clrf	___wmul@product+1
  2839  041F                     l1641:	
  2840  041F  0140               	movlb	0	; select bank0
  2841  0420  1C24               	btfss	___wmul@multiplier,0
  2842  0421  2C26               	goto	l225
  2843  0422  0826               	movf	___wmul@multiplicand,w
  2844  0423  07F7               	addwf	___wmul@product,f
  2845  0424  0827               	movf	___wmul@multiplicand+1,w
  2846  0425  3DF8               	addwfc	___wmul@product+1,f
  2847  0426                     l225:	
  2848  0426  3001               	movlw	1
  2849  0427                     u445:	
  2850  0427  35A6               	lslf	___wmul@multiplicand,f
  2851  0428  0DA7               	rlf	___wmul@multiplicand+1,f
  2852  0429  0B89               	decfsz	9,f
  2853  042A  2C27               	goto	u445
  2854  042B  3001               	movlw	1
  2855  042C                     u455:	
  2856  042C  36A5               	lsrf	___wmul@multiplier+1,f
  2857  042D  0CA4               	rrf	___wmul@multiplier,f
  2858  042E  0B89               	decfsz	9,f
  2859  042F  2C2C               	goto	u455
  2860  0430  0824               	movf	___wmul@multiplier,w
  2861  0431  0425               	iorwf	___wmul@multiplier+1,w
  2862  0432  1D03               	btfss	3,2
  2863  0433  2C1F               	goto	l1641
  2864  0434  0878               	movf	___wmul@product+1,w
  2865  0435  00A5               	movwf	?___wmul+1
  2866  0436  0877               	movf	___wmul@product,w
  2867  0437  00A4               	movwf	?___wmul
  2868  0438  0008               	return
  2869  0439                     __end_of___wmul:	
  2870                           
  2871                           	psect	text18
  2872  018B                     __ptext18:	
  2873 ;; *************** function ___awdiv *****************
  2874 ;; Defined at:
  2875 ;;		line 6 in file "C:\Program Files (x86)\Microchip\xc8\v1.45\sources\common\awdiv.c"
  2876 ;; Parameters:    Size  Location     Type
  2877 ;;  divisor         2    2[COMMON] int 
  2878 ;;  dividend        2    4[COMMON] int 
  2879 ;; Auto vars:     Size  Location     Type
  2880 ;;  quotient        2    2[BANK0 ] int 
  2881 ;;  sign            1    1[BANK0 ] unsigned char 
  2882 ;;  counter         1    0[BANK0 ] unsigned char 
  2883 ;; Return value:  Size  Location     Type
  2884 ;;                  2    2[COMMON] int 
  2885 ;; Registers used:
  2886 ;;		wreg, status,2, status,0
  2887 ;; Tracked objects:
  2888 ;;		On entry : 0/0
  2889 ;;		On exit  : 0/0
  2890 ;;		Unchanged: 0/0
  2891 ;; Data sizes:     COMMON   BANK0   BANK1   BANK2   BANK3   BANK4   BANK5   BANK6   BANK7   BANK8   BANK9  BANK10  BANK1
      +1  BANK12  BANK13  BANK14  BANK15  BANK16  BANK17  BANK18  BANK19  BANK20  BANK21  BANK22  BANK23  BANK24  BANK25  BANK2
      +6  BANK27  BANK28  BANK29  BANK30  BANK31  BANK32  BANK33  BANK34  BANK35  BANK36  BANK37  BANK38  BANK39  BANK40  BANK4
      +1  BANK42  BANK43  BANK44  BANK45  BANK46  BANK47  BANK48  BANK49  BANK50
  2892 ;;      Params:         4       0       0       0       0       0       0       0       0       0       0       0       
      +0       0       0       0       0       0       0       0       0       0       0       0       0       0       0       
      +0       0       0       0       0       0       0       0       0       0       0       0       0       0       0       
      +0       0       0       0       0       0       0       0       0       0
  2893 ;;      Locals:         0       4       0       0       0       0       0       0       0       0       0       0       
      +0       0       0       0       0       0       0       0       0       0       0       0       0       0       0       
      +0       0       0       0       0       0       0       0       0       0       0       0       0       0       0       
      +0       0       0       0       0       0       0       0       0       0
  2894 ;;      Temps:          1       0       0       0       0       0       0       0       0       0       0       0       
      +0       0       0       0       0       0       0       0       0       0       0       0       0       0       0       
      +0       0       0       0       0       0       0       0       0       0       0       0       0       0       0       
      +0       0       0       0       0       0       0       0       0       0
  2895 ;;      Totals:         5       4       0       0       0       0       0       0       0       0       0       0       
      +0       0       0       0       0       0       0       0       0       0       0       0       0       0       0       
      +0       0       0       0       0       0       0       0       0       0       0       0       0       0       0       
      +0       0       0       0       0       0       0       0       0       0
  2896 ;;Total ram usage:        9 bytes
  2897 ;; Hardware stack levels used:    1
  2898 ;; Hardware stack levels required when called:    1
  2899 ;; This function calls:
  2900 ;;		Nothing
  2901 ;; This function is called by:
  2902 ;;		_impresiont
  2903 ;; This function uses a non-reentrant model
  2904 ;;
  2905                           
  2906                           
  2907                           ;psect for function ___awdiv
  2908  018B                     ___awdiv:	
  2909                           
  2910                           ;incstack = 0
  2911                           ; Regs used in ___awdiv: [wreg+status,2+status,0]
  2912  018B  0140               	movlb	0	; select bank0
  2913  018C  01A1               	clrf	___awdiv@sign
  2914  018D  1FF3               	btfss	___awdiv@divisor+1,7
  2915  018E  2996               	goto	l1661
  2916  018F  09F2               	comf	___awdiv@divisor,f
  2917  0190  09F3               	comf	___awdiv@divisor+1,f
  2918  0191  0AF2               	incf	___awdiv@divisor,f
  2919  0192  1903               	skipnz
  2920  0193  0AF3               	incf	___awdiv@divisor+1,f
  2921  0194  01A1               	clrf	___awdiv@sign
  2922  0195  0AA1               	incf	___awdiv@sign,f
  2923  0196                     l1661:	
  2924  0196  1FF5               	btfss	___awdiv@dividend+1,7
  2925  0197  29A1               	goto	l1667
  2926  0198  09F4               	comf	___awdiv@dividend,f
  2927  0199  09F5               	comf	___awdiv@dividend+1,f
  2928  019A  0AF4               	incf	___awdiv@dividend,f
  2929  019B  1903               	skipnz
  2930  019C  0AF5               	incf	___awdiv@dividend+1,f
  2931  019D  3001               	movlw	1
  2932  019E  00F6               	movwf	??___awdiv
  2933  019F  0876               	movf	??___awdiv,w
  2934  01A0  06A1               	xorwf	___awdiv@sign,f
  2935  01A1                     l1667:	
  2936  01A1  01A2               	clrf	___awdiv@quotient
  2937  01A2  01A3               	clrf	___awdiv@quotient+1
  2938  01A3  0872               	movf	___awdiv@divisor,w
  2939  01A4  0473               	iorwf	___awdiv@divisor+1,w
  2940  01A5  1903               	btfsc	3,2
  2941  01A6  29D0               	goto	l1689
  2942  01A7  01A0               	clrf	___awdiv@counter
  2943  01A8  0AA0               	incf	___awdiv@counter,f
  2944  01A9                     l1677:	
  2945  01A9  1BF3               	btfsc	___awdiv@divisor+1,7
  2946  01AA  29B5               	goto	l1679
  2947  01AB  3001               	movlw	1
  2948  01AC                     u505:	
  2949  01AC  35F2               	lslf	___awdiv@divisor,f
  2950  01AD  0DF3               	rlf	___awdiv@divisor+1,f
  2951  01AE  0B89               	decfsz	9,f
  2952  01AF  29AC               	goto	u505
  2953  01B0  3001               	movlw	1
  2954  01B1  00F6               	movwf	??___awdiv
  2955  01B2  0876               	movf	??___awdiv,w
  2956  01B3  07A0               	addwf	___awdiv@counter,f
  2957  01B4  29A9               	goto	l1677
  2958  01B5                     l1679:	
  2959  01B5  3001               	movlw	1
  2960  01B6                     u525:	
  2961  01B6  35A2               	lslf	___awdiv@quotient,f
  2962  01B7  0DA3               	rlf	___awdiv@quotient+1,f
  2963  01B8  0B89               	decfsz	9,f
  2964  01B9  29B6               	goto	u525
  2965  01BA  0873               	movf	___awdiv@divisor+1,w
  2966  01BB  0275               	subwf	___awdiv@dividend+1,w
  2967  01BC  1D03               	skipz
  2968  01BD  29C0               	goto	u535
  2969  01BE  0872               	movf	___awdiv@divisor,w
  2970  01BF  0274               	subwf	___awdiv@dividend,w
  2971  01C0                     u535:	
  2972  01C0  1C03               	skipc
  2973  01C1  29C7               	goto	l1685
  2974  01C2  0872               	movf	___awdiv@divisor,w
  2975  01C3  02F4               	subwf	___awdiv@dividend,f
  2976  01C4  0873               	movf	___awdiv@divisor+1,w
  2977  01C5  3BF5               	subwfb	___awdiv@dividend+1,f
  2978  01C6  1422               	bsf	___awdiv@quotient,0
  2979  01C7                     l1685:	
  2980  01C7  3001               	movlw	1
  2981  01C8                     u545:	
  2982  01C8  36F3               	lsrf	___awdiv@divisor+1,f
  2983  01C9  0CF2               	rrf	___awdiv@divisor,f
  2984  01CA  0B89               	decfsz	9,f
  2985  01CB  29C8               	goto	u545
  2986  01CC  3001               	movlw	1
  2987  01CD  02A0               	subwf	___awdiv@counter,f
  2988  01CE  1D03               	btfss	3,2
  2989  01CF  29B5               	goto	l1679
  2990  01D0                     l1689:	
  2991  01D0  0821               	movf	___awdiv@sign,w
  2992  01D1  1903               	btfsc	3,2
  2993  01D2  29D8               	goto	l1693
  2994  01D3  09A2               	comf	___awdiv@quotient,f
  2995  01D4  09A3               	comf	___awdiv@quotient+1,f
  2996  01D5  0AA2               	incf	___awdiv@quotient,f
  2997  01D6  1903               	skipnz
  2998  01D7  0AA3               	incf	___awdiv@quotient+1,f
  2999  01D8                     l1693:	
  3000  01D8  0823               	movf	___awdiv@quotient+1,w
  3001  01D9  00F3               	movwf	?___awdiv+1
  3002  01DA  0822               	movf	___awdiv@quotient,w
  3003  01DB  00F2               	movwf	?___awdiv
  3004  01DC  0008               	return
  3005  01DD                     __end_of___awdiv:	
  3006                           
  3007                           	psect	intentry
  3008  0004                     __pintentry:	
  3009 ;; *************** function _interrupcion *****************
  3010 ;; Defined at:
  3011 ;;		line 49 in file "main.c"
  3012 ;; Parameters:    Size  Location     Type
  3013 ;;		None
  3014 ;; Auto vars:     Size  Location     Type
  3015 ;;		None
  3016 ;; Return value:  Size  Location     Type
  3017 ;;                  1    wreg      void 
  3018 ;; Registers used:
  3019 ;;		wreg, status,2, status,0
  3020 ;; Tracked objects:
  3021 ;;		On entry : 0/0
  3022 ;;		On exit  : 0/0
  3023 ;;		Unchanged: 0/0
  3024 ;; Data sizes:     COMMON   BANK0   BANK1   BANK2   BANK3   BANK4   BANK5   BANK6   BANK7   BANK8   BANK9  BANK10  BANK1
      +1  BANK12  BANK13  BANK14  BANK15  BANK16  BANK17  BANK18  BANK19  BANK20  BANK21  BANK22  BANK23  BANK24  BANK25  BANK2
      +6  BANK27  BANK28  BANK29  BANK30  BANK31  BANK32  BANK33  BANK34  BANK35  BANK36  BANK37  BANK38  BANK39  BANK40  BANK4
      +1  BANK42  BANK43  BANK44  BANK45  BANK46  BANK47  BANK48  BANK49  BANK50
  3025 ;;      Params:         0       0       0       0       0       0       0       0       0       0       0       0       
      +0       0       0       0       0       0       0       0       0       0       0       0       0       0       0       
      +0       0       0       0       0       0       0       0       0       0       0       0       0       0       0       
      +0       0       0       0       0       0       0       0       0       0
  3026 ;;      Locals:         0       0       0       0       0       0       0       0       0       0       0       0       
      +0       0       0       0       0       0       0       0       0       0       0       0       0       0       0       
      +0       0       0       0       0       0       0       0       0       0       0       0       0       0       0       
      +0       0       0       0       0       0       0       0       0       0
  3027 ;;      Temps:          2       0       0       0       0       0       0       0       0       0       0       0       
      +0       0       0       0       0       0       0       0       0       0       0       0       0       0       0       
      +0       0       0       0       0       0       0       0       0       0       0       0       0       0       0       
      +0       0       0       0       0       0       0       0       0       0
  3028 ;;      Totals:         2       0       0       0       0       0       0       0       0       0       0       0       
      +0       0       0       0       0       0       0       0       0       0       0       0       0       0       0       
      +0       0       0       0       0       0       0       0       0       0       0       0       0       0       0       
      +0       0       0       0       0       0       0       0       0       0
  3029 ;;Total ram usage:        2 bytes
  3030 ;; Hardware stack levels used:    1
  3031 ;; This function calls:
  3032 ;;		Nothing
  3033 ;; This function is called by:
  3034 ;;		Interrupt level 1
  3035 ;; This function uses a non-reentrant model
  3036 ;;
  3037                           
  3038  0004                     _interrupcion:	
  3039                           
  3040                           ;incstack = 0
  3041  0004  147E               	bsf	126,0	;set compiler interrupt flag (level 1)
  3042                           
  3043                           ; Regs used in _interrupcion: [wreg+status,2+status,0]
  3044  0005  3180               	pagesel	$
  3045  0006  0140               	movlb	0	; select bank0
  3046  0007  087F               	movf	127,w
  3047  0008  00F1               	movwf	??_interrupcion+1
  3048                           
  3049                           ;main.c: 50: if(cmils==16){
  3050  0009  3010               	movlw	16
  3051  000A  0679               	xorwf	_cmils,w
  3052  000B  047A               	iorwf	_cmils+1,w
  3053  000C  1D03               	btfss	3,2
  3054  000D  2817               	goto	i1l1495
  3055                           
  3056                           ;main.c: 51: cseg=cseg+1;
  3057  000E  0838               	movf	_cseg,w
  3058  000F  3E01               	addlw	1
  3059  0010  00B8               	movwf	_cseg
  3060  0011  3000               	movlw	0
  3061  0012  3D39               	addwfc	_cseg+1,w
  3062  0013  00B9               	movwf	_cseg+1
  3063                           
  3064                           ;main.c: 52: cmils=0;
  3065  0014  01F9               	clrf	_cmils
  3066  0015  01FA               	clrf	_cmils+1
  3067                           
  3068                           ;main.c: 53: }else{
  3069  0016  281D               	goto	i1l1497
  3070  0017                     i1l1495:	
  3071                           
  3072                           ;main.c: 54: cmils=cmils+1;
  3073  0017  0879               	movf	_cmils,w
  3074  0018  3E01               	addlw	1
  3075  0019  00F9               	movwf	_cmils
  3076  001A  3000               	movlw	0
  3077  001B  3D7A               	addwfc	_cmils+1,w
  3078  001C  00FA               	movwf	_cmils+1
  3079  001D                     i1l1497:	
  3080                           
  3081                           ;main.c: 55: }
  3082                           ;main.c: 57: if(cseg>58){
  3083  001D  0839               	movf	_cseg+1,w
  3084  001E  3A80               	xorlw	128
  3085  001F  00F0               	movwf	??_interrupcion
  3086  0020  3080               	movlw	128
  3087  0021  0270               	subwf	??_interrupcion,w
  3088  0022  1D03               	skipz
  3089  0023  2826               	goto	u40_25
  3090  0024  303B               	movlw	59
  3091  0025  0238               	subwf	_cseg,w
  3092  0026                     u40_25:	
  3093  0026  1C03               	skipc
  3094  0027  2831               	goto	i1l1503
  3095                           
  3096                           ;main.c: 58: cmin=cmin+1;
  3097  0028  0140               	movlb	0	; select bank0
  3098  0029  083C               	movf	_cmin,w
  3099  002A  3E01               	addlw	1
  3100  002B  00BC               	movwf	_cmin
  3101  002C  3000               	movlw	0
  3102  002D  3D3D               	addwfc	_cmin+1,w
  3103  002E  00BD               	movwf	_cmin+1
  3104                           
  3105                           ;main.c: 59: cseg=0;
  3106  002F  01B8               	clrf	_cseg
  3107  0030  01B9               	clrf	_cseg+1
  3108  0031                     i1l1503:	
  3109                           
  3110                           ;main.c: 60: }
  3111                           ;main.c: 62: if(cmin>59){
  3112  0031  0140               	movlb	0	; select bank0
  3113  0032  083D               	movf	_cmin+1,w
  3114  0033  3A80               	xorlw	128
  3115  0034  00F0               	movwf	??_interrupcion
  3116  0035  3080               	movlw	128
  3117  0036  0270               	subwf	??_interrupcion,w
  3118  0037  1D03               	skipz
  3119  0038  283B               	goto	u41_25
  3120  0039  303C               	movlw	60
  3121  003A  023C               	subwf	_cmin,w
  3122  003B                     u41_25:	
  3123  003B  1C03               	skipc
  3124  003C  2846               	goto	i1l1509
  3125                           
  3126                           ;main.c: 63: chr=chr+1;
  3127  003D  0140               	movlb	0	; select bank0
  3128  003E  083A               	movf	_chr,w
  3129  003F  3E01               	addlw	1
  3130  0040  00BA               	movwf	_chr
  3131  0041  3000               	movlw	0
  3132  0042  3D3B               	addwfc	_chr+1,w
  3133  0043  00BB               	movwf	_chr+1
  3134                           
  3135                           ;main.c: 64: cmin=0;
  3136  0044  01BC               	clrf	_cmin
  3137  0045  01BD               	clrf	_cmin+1
  3138  0046                     i1l1509:	
  3139                           
  3140                           ;main.c: 65: }
  3141                           ;main.c: 67: if(chr>12){
  3142  0046  0140               	movlb	0	; select bank0
  3143  0047  083B               	movf	_chr+1,w
  3144  0048  3A80               	xorlw	128
  3145  0049  00F0               	movwf	??_interrupcion
  3146  004A  3080               	movlw	128
  3147  004B  0270               	subwf	??_interrupcion,w
  3148  004C  1D03               	skipz
  3149  004D  2850               	goto	u42_25
  3150  004E  300D               	movlw	13
  3151  004F  023A               	subwf	_chr,w
  3152  0050                     u42_25:	
  3153  0050  1C03               	skipc
  3154  0051  2855               	goto	i1l1513
  3155                           
  3156                           ;main.c: 68: chr=0;
  3157  0052  0140               	movlb	0	; select bank0
  3158  0053  01BA               	clrf	_chr
  3159  0054  01BB               	clrf	_chr+1
  3160  0055                     i1l1513:	
  3161                           
  3162                           ;main.c: 69: }
  3163                           ;main.c: 73: TMR1=536;
  3164  0055  3002               	movlw	2
  3165  0056  0144               	movlb	4	; select bank4
  3166  0057  008D               	movwf	13	;volatile
  3167  0058  3018               	movlw	24
  3168  0059  008C               	movwf	12	;volatile
  3169                           
  3170                           ;main.c: 74: PIR4bits.TMR1IF=0;
  3171  005A  014E               	movlb	14	; select bank14
  3172  005B  1010               	bcf	16,0	;volatile
  3173  005C  0871               	movf	??_interrupcion+1,w
  3174  005D  0140               	movlb	0	; select bank0
  3175  005E  00FF               	movwf	127
  3176  005F  107E               	bcf	126,0	;clear compiler interrupt flag (level 1)
  3177  0060  0009               	retfie
  3178  0061                     __end_of_interrupcion:	
  3179  007E                     btemp	set	126	;btemp
  3180  007E                     int$flags	set	126
  3181  007E                     wtemp0	set	126


Data Sizes:
    Strings     0
    Constant    0
    Data        4
    BSS         8
    Persistent  0
    Stack       0

Auto Spaces:
    Space          Size  Autos    Used
    COMMON           14      9      11
    BANK0            80     20      30
    BANK1            80      0       0
    BANK2            80      0       0
    BANK3            80      0       0
    BANK4            80      0       0
    BANK5            80      0       0
    BANK6            80      0       0
    BANK7            80      0       0
    BANK8            80      0       0
    BANK9            80      0       0
    BANK10           80      0       0
    BANK11           80      0       0
    BANK12           80      0       0
    BANK13           80      0       0
    BANK14           80      0       0
    BANK15           80      0       0
    BANK16           80      0       0
    BANK17           80      0       0
    BANK18           80      0       0
    BANK19           80      0       0
    BANK20           80      0       0
    BANK21           80      0       0
    BANK22           80      0       0
    BANK23           80      0       0
    BANK24           80      0       0
    BANK25           80      0       0
    BANK26           80      0       0
    BANK27           80      0       0
    BANK28           80      0       0
    BANK29           80      0       0
    BANK30           80      0       0
    BANK31           80      0       0
    BANK32           80      0       0
    BANK33           80      0       0
    BANK34           80      0       0
    BANK35           80      0       0
    BANK36           80      0       0
    BANK37           80      0       0
    BANK38           80      0       0
    BANK39           80      0       0
    BANK40           80      0       0
    BANK41           80      0       0
    BANK42           80      0       0
    BANK43           80      0       0
    BANK44           80      0       0
    BANK45           80      0       0
    BANK46           80      0       0
    BANK47           80      0       0
    BANK48           80      0       0
    BANK49           80      0       0
    BANK50           80      0       0

Pointer List with Targets:

    None.

Critical Paths under _main in COMMON

    _leyenda->_espera
    _impresiont->___wmul
    _puntos->_espera
    _uno->_espera
    _tres->_espera
    _siete->_espera
    _seis->_espera
    _ocho->_espera
    _nueve->_espera
    _dos->_espera
    _cuatro->_espera
    _cinco->_espera
    _cero->_espera
    ___wmul->___awdiv

Critical Paths under _interrupcion in COMMON

    None.

Critical Paths under _main in BANK0

    _main->_impresiont
    _impresiont->___wmul
    ___wmul->___awdiv

Critical Paths under _interrupcion in BANK0

    None.

Critical Paths under _main in BANK1

    None.

Critical Paths under _interrupcion in BANK1

    None.

Critical Paths under _main in BANK2

    None.

Critical Paths under _interrupcion in BANK2

    None.

Critical Paths under _main in BANK3

    None.

Critical Paths under _interrupcion in BANK3

    None.

Critical Paths under _main in BANK4

    None.

Critical Paths under _interrupcion in BANK4

    None.

Critical Paths under _main in BANK5

    None.

Critical Paths under _interrupcion in BANK5

    None.

Critical Paths under _main in BANK6

    None.

Critical Paths under _interrupcion in BANK6

    None.

Critical Paths under _main in BANK7

    None.

Critical Paths under _interrupcion in BANK7

    None.

Critical Paths under _main in BANK8

    None.

Critical Paths under _interrupcion in BANK8

    None.

Critical Paths under _main in BANK9

    None.

Critical Paths under _interrupcion in BANK9

    None.

Critical Paths under _main in BANK10

    None.

Critical Paths under _interrupcion in BANK10

    None.

Critical Paths under _main in BANK11

    None.

Critical Paths under _interrupcion in BANK11

    None.

Critical Paths under _main in BANK12

    None.

Critical Paths under _interrupcion in BANK12

    None.

Critical Paths under _main in BANK13

    None.

Critical Paths under _interrupcion in BANK13

    None.

Critical Paths under _main in BANK14

    None.

Critical Paths under _interrupcion in BANK14

    None.

Critical Paths under _main in BANK15

    None.

Critical Paths under _interrupcion in BANK15

    None.

Critical Paths under _main in BANK16

    None.

Critical Paths under _interrupcion in BANK16

    None.

Critical Paths under _main in BANK17

    None.

Critical Paths under _interrupcion in BANK17

    None.

Critical Paths under _main in BANK18

    None.

Critical Paths under _interrupcion in BANK18

    None.

Critical Paths under _main in BANK19

    None.

Critical Paths under _interrupcion in BANK19

    None.

Critical Paths under _main in BANK20

    None.

Critical Paths under _interrupcion in BANK20

    None.

Critical Paths under _main in BANK21

    None.

Critical Paths under _interrupcion in BANK21

    None.

Critical Paths under _main in BANK22

    None.

Critical Paths under _interrupcion in BANK22

    None.

Critical Paths under _main in BANK23

    None.

Critical Paths under _interrupcion in BANK23

    None.

Critical Paths under _main in BANK24

    None.

Critical Paths under _interrupcion in BANK24

    None.

Critical Paths under _main in BANK25

    None.

Critical Paths under _interrupcion in BANK25

    None.

Critical Paths under _main in BANK26

    None.

Critical Paths under _interrupcion in BANK26

    None.

Critical Paths under _main in BANK27

    None.

Critical Paths under _interrupcion in BANK27

    None.

Critical Paths under _main in BANK28

    None.

Critical Paths under _interrupcion in BANK28

    None.

Critical Paths under _main in BANK29

    None.

Critical Paths under _interrupcion in BANK29

    None.

Critical Paths under _main in BANK30

    None.

Critical Paths under _interrupcion in BANK30

    None.

Critical Paths under _main in BANK31

    None.

Critical Paths under _interrupcion in BANK31

    None.

Critical Paths under _main in BANK32

    None.

Critical Paths under _interrupcion in BANK32

    None.

Critical Paths under _main in BANK33

    None.

Critical Paths under _interrupcion in BANK33

    None.

Critical Paths under _main in BANK34

    None.

Critical Paths under _interrupcion in BANK34

    None.

Critical Paths under _main in BANK35

    None.

Critical Paths under _interrupcion in BANK35

    None.

Critical Paths under _main in BANK36

    None.

Critical Paths under _interrupcion in BANK36

    None.

Critical Paths under _main in BANK37

    None.

Critical Paths under _interrupcion in BANK37

    None.

Critical Paths under _main in BANK38

    None.

Critical Paths under _interrupcion in BANK38

    None.

Critical Paths under _main in BANK39

    None.

Critical Paths under _interrupcion in BANK39

    None.

Critical Paths under _main in BANK40

    None.

Critical Paths under _interrupcion in BANK40

    None.

Critical Paths under _main in BANK41

    None.

Critical Paths under _interrupcion in BANK41

    None.

Critical Paths under _main in BANK42

    None.

Critical Paths under _interrupcion in BANK42

    None.

Critical Paths under _main in BANK43

    None.

Critical Paths under _interrupcion in BANK43

    None.

Critical Paths under _main in BANK44

    None.

Critical Paths under _interrupcion in BANK44

    None.

Critical Paths under _main in BANK45

    None.

Critical Paths under _interrupcion in BANK45

    None.

Critical Paths under _main in BANK46

    None.

Critical Paths under _interrupcion in BANK46

    None.

Critical Paths under _main in BANK47

    None.

Critical Paths under _interrupcion in BANK47

    None.

Critical Paths under _main in BANK48

    None.

Critical Paths under _interrupcion in BANK48

    None.

Critical Paths under _main in BANK49

    None.

Critical Paths under _interrupcion in BANK49

    None.

Critical Paths under _main in BANK50

    None.

Critical Paths under _interrupcion in BANK50

    None.

Call Graph Tables:

 ---------------------------------------------------------------------------------
 (Depth) Function   	        Calls       Base Space   Used Autos Params    Refs
 ---------------------------------------------------------------------------------
 (0) _main                                                 4     4      0    3254
                                             16 BANK0      4     4      0
                         _impresiont
                            _leyenda
 ---------------------------------------------------------------------------------
 (1) _leyenda                                              0     0      0       0
                             _espera
                                _off
 ---------------------------------------------------------------------------------
 (1) _impresiont                                           8     2      6    3251
                                              8 BANK0      8     2      6
                            ___awdiv
                             ___wmul
                               _cero
                             _espera
                             _numero
                             _puntos
 ---------------------------------------------------------------------------------
 (2) _puntos                                               0     0      0       0
                             _espera
                                _off
 ---------------------------------------------------------------------------------
 (2) _numero                                               2     0      2     706
                                              3 COMMON     2     0      2
                               _cero
                              _cinco
                             _cuatro
                                _dos
                              _nueve
                               _ocho
                               _seis
                              _siete
                               _tres
                                _uno
 ---------------------------------------------------------------------------------
 (3) _uno                                                  0     0      0       0
                             _espera
                                _off
 ---------------------------------------------------------------------------------
 (3) _tres                                                 0     0      0       0
                             _espera
                                _off
 ---------------------------------------------------------------------------------
 (3) _siete                                                0     0      0       0
                             _espera
                                _off
 ---------------------------------------------------------------------------------
 (3) _seis                                                 0     0      0       0
                             _espera
                                _off
 ---------------------------------------------------------------------------------
 (3) _ocho                                                 0     0      0       0
                             _espera
                                _off
 ---------------------------------------------------------------------------------
 (3) _nueve                                                0     0      0       0
                             _espera
                                _off
 ---------------------------------------------------------------------------------
 (3) _dos                                                  0     0      0       0
                             _espera
                                _off
 ---------------------------------------------------------------------------------
 (3) _cuatro                                               0     0      0       0
                             _espera
                                _off
 ---------------------------------------------------------------------------------
 (3) _cinco                                                0     0      0       0
                             _espera
                                _off
 ---------------------------------------------------------------------------------
 (3) _cero                                                 0     0      0       0
                             _espera
                                _off
 ---------------------------------------------------------------------------------
 (2) _off                                                  0     0      0       0
 ---------------------------------------------------------------------------------
 (2) _espera                                               1     1      0       0
                                              2 COMMON     1     1      0
 ---------------------------------------------------------------------------------
 (2) ___wmul                                               6     2      4     496
                                              7 COMMON     2     2      0
                                              4 BANK0      4     0      4
                            ___awdiv (ARG)
 ---------------------------------------------------------------------------------
 (2) ___awdiv                                              9     5      4    1345
                                              2 COMMON     5     1      4
                                              0 BANK0      4     4      0
 ---------------------------------------------------------------------------------
 Estimated maximum stack depth 3
 ---------------------------------------------------------------------------------
 (Depth) Function   	        Calls       Base Space   Used Autos Params    Refs
 ---------------------------------------------------------------------------------
 (5) _interrupcion                                         2     2      0       0
                                              0 COMMON     2     2      0
 ---------------------------------------------------------------------------------
 Estimated maximum stack depth 5
 ---------------------------------------------------------------------------------

 Call Graph Graphs:

 _main (ROOT)
   _impresiont
     ___awdiv
     ___wmul
       ___awdiv (ARG)
     _cero
       _espera
       _off
     _espera
     _numero
       _cero
         _espera
         _off
       _cinco
         _espera
         _off
       _cuatro
         _espera
         _off
       _dos
         _espera
         _off
       _nueve
         _espera
         _off
       _ocho
         _espera
         _off
       _seis
         _espera
         _off
       _siete
         _espera
         _off
       _tres
         _espera
         _off
       _uno
         _espera
         _off
     _puntos
       _espera
       _off
   _leyenda
     _espera
     _off

 _interrupcion (ROOT)

 Address spaces:
Name               Size   Autos  Total    Cost      Usage
BIGRAM             FF0      0       0       0        0.0%
EEDATA             100      0       0       0        0.0%
NULL                 0      0       0       0        0.0%
CODE                 0      0       0       0        0.0%
BITCOMMON            E      0       0       1        0.0%
BITSFR0              0      0       0       1        0.0%
SFR0                 0      0       0       1        0.0%
COMMON               E      9       B       2       78.6%
BITSFR1              0      0       0       2        0.0%
SFR1                 0      0       0       2        0.0%
BITSFR2              0      0       0       3        0.0%
SFR2                 0      0       0       3        0.0%
STACK                0      0       0       3        0.0%
BITBANK0            50      0       0       4        0.0%
BITSFR3              0      0       0       4        0.0%
SFR3                 0      0       0       4        0.0%
BANK0               50     14      1E       5       37.5%
BITSFR4              0      0       0       5        0.0%
SFR4                 0      0       0       5        0.0%
BITBANK1            50      0       0       6        0.0%
BITSFR5              0      0       0       6        0.0%
SFR5                 0      0       0       6        0.0%
BANK1               50      0       0       7        0.0%
BITSFR6              0      0       0       7        0.0%
SFR6                 0      0       0       7        0.0%
BITBANK2            50      0       0       8        0.0%
BITSFR7              0      0       0       8        0.0%
SFR7                 0      0       0       8        0.0%
BANK2               50      0       0       9        0.0%
BITSFR8              0      0       0       9        0.0%
SFR8                 0      0       0       9        0.0%
BITBANK3            50      0       0      10        0.0%
BITSFR9              0      0       0      10        0.0%
SFR9                 0      0       0      10        0.0%
BANK3               50      0       0      11        0.0%
BITSFR10             0      0       0      11        0.0%
SFR10                0      0       0      11        0.0%
BITBANK4            50      0       0      12        0.0%
BITSFR11             0      0       0      12        0.0%
SFR11                0      0       0      12        0.0%
BANK4               50      0       0      13        0.0%
BITSFR12             0      0       0      13        0.0%
SFR12                0      0       0      13        0.0%
BITBANK5            50      0       0      14        0.0%
BITSFR13             0      0       0      14        0.0%
SFR13                0      0       0      14        0.0%
BANK5               50      0       0      15        0.0%
BITSFR14             0      0       0      15        0.0%
SFR14                0      0       0      15        0.0%
BITBANK6            50      0       0      16        0.0%
BITSFR15             0      0       0      16        0.0%
SFR15                0      0       0      16        0.0%
BANK6               50      0       0      17        0.0%
BITSFR16             0      0       0      17        0.0%
SFR16                0      0       0      17        0.0%
BITBANK7            50      0       0      18        0.0%
BITSFR17             0      0       0      18        0.0%
SFR17                0      0       0      18        0.0%
BANK7               50      0       0      19        0.0%
BITSFR18             0      0       0      19        0.0%
SFR18                0      0       0      19        0.0%
BITBANK8            50      0       0      20        0.0%
BITSFR19             0      0       0      20        0.0%
SFR19                0      0       0      20        0.0%
BANK8               50      0       0      21        0.0%
BITSFR20             0      0       0      21        0.0%
SFR20                0      0       0      21        0.0%
BITBANK9            50      0       0      22        0.0%
BITSFR21             0      0       0      22        0.0%
SFR21                0      0       0      22        0.0%
BANK9               50      0       0      23        0.0%
BITSFR22             0      0       0      23        0.0%
SFR22                0      0       0      23        0.0%
BITBANK10           50      0       0      24        0.0%
BITSFR23             0      0       0      24        0.0%
SFR23                0      0       0      24        0.0%
BANK10              50      0       0      25        0.0%
BITSFR24             0      0       0      25        0.0%
SFR24                0      0       0      25        0.0%
BITBANK11           50      0       0      26        0.0%
BITSFR25             0      0       0      26        0.0%
SFR25                0      0       0      26        0.0%
BANK11              50      0       0      27        0.0%
BITSFR26             0      0       0      27        0.0%
SFR26                0      0       0      27        0.0%
BITSFR27             0      0       0      28        0.0%
SFR27                0      0       0      28        0.0%
ABS                  0      0      29      28        0.0%
BITBANK12           50      0       0      29        0.0%
BITSFR28             0      0       0      29        0.0%
SFR28                0      0       0      29        0.0%
BANK12              50      0       0      30        0.0%
BITSFR29             0      0       0      30        0.0%
SFR29                0      0       0      30        0.0%
BITBANK13           50      0       0      31        0.0%
BITSFR30             0      0       0      31        0.0%
SFR30                0      0       0      31        0.0%
BANK13              50      0       0      32        0.0%
BITSFR31             0      0       0      32        0.0%
SFR31                0      0       0      32        0.0%
BITBANK14           50      0       0      33        0.0%
BITSFR32             0      0       0      33        0.0%
SFR32                0      0       0      33        0.0%
BANK14              50      0       0      34        0.0%
BITSFR33             0      0       0      34        0.0%
SFR33                0      0       0      34        0.0%
BITBANK15           50      0       0      35        0.0%
BITSFR34             0      0       0      35        0.0%
SFR34                0      0       0      35        0.0%
BANK15              50      0       0      36        0.0%
BITSFR35             0      0       0      36        0.0%
SFR35                0      0       0      36        0.0%
BITBANK16           50      0       0      37        0.0%
BITSFR36             0      0       0      37        0.0%
SFR36                0      0       0      37        0.0%
BANK16              50      0       0      38        0.0%
BITSFR37             0      0       0      38        0.0%
SFR37                0      0       0      38        0.0%
BITBANK17           50      0       0      39        0.0%
BITSFR38             0      0       0      39        0.0%
SFR38                0      0       0      39        0.0%
BANK17              50      0       0      40        0.0%
BITSFR39             0      0       0      40        0.0%
SFR39                0      0       0      40        0.0%
BITBANK18           50      0       0      41        0.0%
BITSFR40             0      0       0      41        0.0%
SFR40                0      0       0      41        0.0%
BANK18              50      0       0      42        0.0%
BITSFR41             0      0       0      42        0.0%
SFR41                0      0       0      42        0.0%
BITBANK19           50      0       0      43        0.0%
BITSFR42             0      0       0      43        0.0%
SFR42                0      0       0      43        0.0%
BANK19              50      0       0      44        0.0%
BITSFR43             0      0       0      44        0.0%
SFR43                0      0       0      44        0.0%
BITBANK20           50      0       0      45        0.0%
BITSFR44             0      0       0      45        0.0%
SFR44                0      0       0      45        0.0%
BANK20              50      0       0      46        0.0%
BITSFR45             0      0       0      46        0.0%
SFR45                0      0       0      46        0.0%
BITBANK21           50      0       0      47        0.0%
BITSFR46             0      0       0      47        0.0%
SFR46                0      0       0      47        0.0%
BANK21              50      0       0      48        0.0%
BITSFR47             0      0       0      48        0.0%
SFR47                0      0       0      48        0.0%
BITBANK22           50      0       0      49        0.0%
BITSFR48             0      0       0      49        0.0%
SFR48                0      0       0      49        0.0%
BANK22              50      0       0      50        0.0%
BITSFR49             0      0       0      50        0.0%
SFR49                0      0       0      50        0.0%
BITBANK23           50      0       0      51        0.0%
BITSFR50             0      0       0      51        0.0%
SFR50                0      0       0      51        0.0%
BANK23              50      0       0      52        0.0%
BITSFR51             0      0       0      52        0.0%
SFR51                0      0       0      52        0.0%
BITBANK24           50      0       0      53        0.0%
BITSFR52             0      0       0      53        0.0%
SFR52                0      0       0      53        0.0%
BANK24              50      0       0      54        0.0%
BITSFR53             0      0       0      54        0.0%
SFR53                0      0       0      54        0.0%
BITBANK25           50      0       0      55        0.0%
BITSFR54             0      0       0      55        0.0%
SFR54                0      0       0      55        0.0%
BANK25              50      0       0      56        0.0%
BITSFR55             0      0       0      56        0.0%
SFR55                0      0       0      56        0.0%
BITBANK26           50      0       0      57        0.0%
BITSFR56             0      0       0      57        0.0%
SFR56                0      0       0      57        0.0%
BANK26              50      0       0      58        0.0%
BITSFR57             0      0       0      58        0.0%
SFR57                0      0       0      58        0.0%
BITSFR58             0      0       0      59        0.0%
SFR58                0      0       0      59        0.0%
DATA                 0      0      29      59        0.0%
BITBANK27           50      0       0      60        0.0%
BITSFR59             0      0       0      60        0.0%
SFR59                0      0       0      60        0.0%
BANK27              50      0       0      61        0.0%
BITSFR60             0      0       0      61        0.0%
SFR60                0      0       0      61        0.0%
BITBANK28           50      0       0      62        0.0%
BITSFR61             0      0       0      62        0.0%
SFR61                0      0       0      62        0.0%
BANK28              50      0       0      63        0.0%
BITSFR62             0      0       0      63        0.0%
SFR62                0      0       0      63        0.0%
BITBANK29           50      0       0      64        0.0%
BITSFR63             0      0       0      64        0.0%
SFR63                0      0       0      64        0.0%
BANK29              50      0       0      65        0.0%
BITBANK30           50      0       0      66        0.0%
BANK30              50      0       0      67        0.0%
BITBANK31           50      0       0      68        0.0%
BANK31              50      0       0      69        0.0%
BITBANK32           50      0       0      70        0.0%
BANK32              50      0       0      71        0.0%
BITBANK33           50      0       0      72        0.0%
BANK33              50      0       0      73        0.0%
BITBANK34           50      0       0      74        0.0%
BANK34              50      0       0      75        0.0%
BITBANK35           50      0       0      76        0.0%
BANK35              50      0       0      77        0.0%
BITBANK36           50      0       0      78        0.0%
BANK36              50      0       0      79        0.0%
BITBANK37           50      0       0      80        0.0%
BANK37              50      0       0      81        0.0%
BITBANK38           50      0       0      82        0.0%
BANK38              50      0       0      83        0.0%
BITBANK39           50      0       0      84        0.0%
BANK39              50      0       0      85        0.0%
BITBANK40           50      0       0      86        0.0%
BANK40              50      0       0      87        0.0%
BITBANK41           50      0       0      88        0.0%
BANK41              50      0       0      89        0.0%
BITBANK42           50      0       0      90        0.0%
BANK42              50      0       0      91        0.0%
BITBANK43           50      0       0      92        0.0%
BANK43              50      0       0      93        0.0%
BITBANK44           50      0       0      94        0.0%
BANK44              50      0       0      95        0.0%
BITBANK45           50      0       0      96        0.0%
BANK45              50      0       0      97        0.0%
BITBANK46           50      0       0      98        0.0%
BANK46              50      0       0      99        0.0%
BITBANK47           50      0       0     100        0.0%
BANK47              50      0       0     101        0.0%
BITBANK48           50      0       0     102        0.0%
BANK48              50      0       0     103        0.0%
BITBANK49           50      0       0     104        0.0%
BANK49              50      0       0     105        0.0%
BITBANK50           50      0       0     106        0.0%
BANK50              50      0       0     107        0.0%


Microchip Technology PIC Macro Assembler V1.45 build -152302408 
Symbol Table                                                                                   Mon Oct 15 21:24:29 2018

                      pc 0002              __CFG_CP$OFF 0000             ___awdiv@sign 0021  
    ___wmul@multiplicand 0026              __CFG_LVP$ON 0000                      l126 02C6  
                    l225 0426                      u505 01AC             __CFG_CPD$OFF 0000  
                    u525 01B6                      u445 0427                      u535 01C0  
                    u455 042C                      u607 0222                      u545 01C8  
                    u617 0462                      u575 0088                      u585 00C8  
                    u595 012D                      _chr 003A                      _dos 0363  
                    _off 046C                      _uno 03FF             __CFG_BORV$LO 0000  
                    wreg 0009                     S1839 0439             __CFG_ZCD$OFF 0000  
                   l1311 029F                     l1321 02AE                     l1313 02A2  
                   l1323 02B1                     l1315 02A5                     l1307 0299  
                   l1325 02B4                     l1317 02A8                     l1309 029C  
                   l1319 02AB                     l1329 02B7                     l1641 041F  
                   l1705 008F                     l1661 0196                     l1729 00D5  
                   l1667 01A1                     l1747 0140                     l1693 01D8  
                   l1685 01C7                     l1677 01A9                     l1837 02BC  
                   l1679 01B5                     l1791 0209                     l1689 01D0  
                   ?_dos 0070                     ?_off 0070                     ?_uno 0070  
                   _TMR1 020C             __CFG_WRT$OFF 0000            __CFG_FCMEN$ON 0000  
                   _cero 03D8                     _cmin 003C                     _cseg 0038  
                   _main 01DD                     _ocho 0315                     _seis 02EE  
                   fsr0l 0004                     _tres 0268                     btemp 007E  
          __CFG_BOREN$ON 0000                     start 0061            __CFG_CSWEN$ON 0000  
          __CFG_MCLRE$ON 0000                    ??_dos 0073                    ??_off 0072  
                  ??_uno 0073                    ?_cero 0070                    ?_main 0070  
                  ?_ocho 0070          __end_of___awdiv 01DD                    ?_seis 0070  
          __CFG_WDTE$OFF 0000                    ?_tres 0070          ___awdiv@divisor 0072  
                  _T1CON 020E          ___awdiv@counter 0020                    u40_25 0026  
                  u41_25 003B                    u42_25 0050                    _PORTA 000C  
                  _PORTC 000E                    _PORTD 000F                    _TRISA 0011  
                  _TRISC 0013                    _TRISD 0014            __CFG_PWRTE$ON 0000  
                  _cinco 03B1                    _cmils 0079          __end_of_leyenda 0268  
                  _siete 02C7                    _nueve 033C                    main@v 0032  
          impresiont@min 002A            impresiont@seg 002C                    status 0003  
                  wtemp0 007E          __initialization 0063             __end_of_cero 03FF  
           __end_of_main 0229             __end_of_ocho 033C             __end_of_seis 0315  
           __end_of_tres 0298                   ??_cero 0073                   ??_main 0030  
                 ??_ocho 0073                   ??_seis 0073                   ??_tres 0073  
                 ?_cinco 0070         ___awdiv@dividend 0074                   ?_siete 0070  
                 ?_nueve 0070                   _ANSELA 1F38                   _ANSELC 1F4E  
                 _ANSELD 1F59                   i1l1503 0031                   i1l1513 0055  
                 i1l1509 0046                   i1l1495 0017                   i1l1497 001D  
         __CFG_WDTCCS$SC 0000                   ___wmul 041D                ??___awdiv 0076  
         __CFG_STVREN$ON 0000                   _cuatro 038A                   _espera 045F  
       ___awdiv@quotient 0022                   _numero 0298                   _puntos 044D  
              ??_leyenda 0073  __end_of__initialization 007A           __pcstackCOMMON 0070  
          ?_interrupcion 0070             __pidataBANK0 0468            __end_of_cinco 03D8  
          __end_of_siete 02EE            __end_of_nueve 0363                  ??_cinco 0073  
                ??_siete 0073                  ??_nueve 0073               __pbssBANK0 0034  
         ??_interrupcion 0070               __pmaintext 01DD                  ?___wmul 0024  
        __CFG_PPS1WAY$ON 0000               __pintentry 0004                  ?_cuatro 0070  
                ?_espera 0070                  ?_numero 0073      __CFG_RSTOSC$HFINT32 0000  
                ?_puntos 0070     __CFG_SCANE$available 0000                  ___awdiv 018B  
        __size_of___wmul 001C                  _decenas 0034          __size_of_cuatro 0027  
        __size_of_espera 0009                  __ptext1 0229                  __ptext2 007E  
                __ptext3 044D                  __ptext4 0298                  __ptext5 03FF  
                __ptext6 0268                  __ptext7 02C7                  __ptext8 02EE  
                __ptext9 0315          __size_of_numero 002F                _T1CLKbits 0211  
        __size_of_puntos 0012                _T1CONbits 020E             __size_of_dos 0027  
           __size_of_off 0003             __size_of_uno 001E                  _leyenda 0229  
             _impresiont 007E     end_of_initialization 007A                  numero@n 0073  
  __CFG_WDTCPS$WDTCPS_31 0000     __end_of_interrupcion 0061         __CFG_FEXTOSC$OFF 0000  
         __end_of___wmul 0439           __end_of_cuatro 03B1           __end_of_espera 0468  
           impresiont@hr 0028           __end_of_numero 02C7           __end_of_puntos 045F  
            ?_impresiont 0028      start_initialization 0063              __end_of_dos 038A  
            __end_of_off 046F              __end_of_uno 041D         __CFG_LPBOREN$OFF 0000  
               ??___wmul 0077              __pdataBANK0 003A                 ??_cuatro 0073  
               ??_espera 0072                 ??_numero 0075                 ??_puntos 0073  
            __pbssCOMMON 0079                ___latbits 0004            __pcstackBANK0 0020  
    __size_of_impresiont 010D                 ?___awdiv 0072                __pswtext1 0439  
  __size_of_interrupcion 005D                 ?_leyenda 0070           __size_of_cinco 0027  
         __size_of_siete 0027           __size_of_nueve 0027           ___wmul@product 0077  
               _LATCbits 0018                 _PIE4bits 071A                 _PIR4bits 0710  
           _interrupcion 0004        ___wmul@multiplier 0024         __size_of___awdiv 0052  
           ??_impresiont 002E         __size_of_leyenda 003F                 __ptext10 033C  
               __ptext11 0363                 __ptext12 038A                 __ptext13 03B1  
               __ptext14 03D8                 __ptext15 046C                 __ptext16 045F  
               __ptext17 041D                 __ptext18 018B            __size_of_cero 0027  
          __size_of_main 004C            __size_of_ocho 0027            __size_of_seis 0027  
          __size_of_tres 0030     __CFG_WDTCWS$WDTCWS_7 0000       __end_of_impresiont 018B  
               int$flags 007E                 _unidades 0036               _INTCONbits 000B  
               intlevel1 0000        __CFG_CLKOUTEN$OFF 0000               _OSCFRQbits 0893  
