

Microchip Technology PIC LITE Macro Assembler V1.45 build -152302408 
                                                                                               Wed Oct 31 16:34:08 2018

Microchip Technology Omniscient Code Generator v1.45 (Free mode) build 201711160504
     1                           	processor	16F18877
     2                           	opt	pw 120
     3                           	opt	lm
     4                           	psect	idataBANK0,global,class=CODE,delta=2
     5                           	psect	idataBANK1,global,class=CODE,delta=2
     6                           	psect	cinit,global,class=CODE,merge=1,delta=2
     7                           	psect	bssBANK0,global,class=BANK0,space=1,delta=1
     8                           	psect	dataBANK0,global,class=BANK0,space=1,delta=1
     9                           	psect	bssBANK1,global,class=BANK1,space=1,delta=1
    10                           	psect	dataBANK1,global,class=BANK1,space=1,delta=1
    11                           	psect	inittext,global,class=CODE,delta=2
    12                           	psect	clrtext,global,class=CODE,delta=2
    13                           	psect	cstackBANK1,global,class=BANK1,space=1,delta=1
    14                           	psect	cstackCOMMON,global,class=COMMON,space=1,delta=1
    15                           	psect	cstackBANK0,global,class=BANK0,space=1,delta=1
    16                           	psect	maintext,global,class=CODE,merge=1,split=1,delta=2
    17                           	psect	text1,local,class=CODE,merge=1,delta=2
    18                           	psect	text2,local,class=CODE,merge=1,delta=2,group=2
    19                           	psect	text3,local,class=CODE,merge=1,delta=2
    20                           	psect	text4,local,class=CODE,merge=1,delta=2,group=2
    21                           	psect	text5,local,class=CODE,merge=1,delta=2,group=2
    22                           	psect	text6,local,class=CODE,merge=1,delta=2,group=2
    23                           	psect	text7,local,class=CODE,merge=1,delta=2,group=2
    24                           	psect	text8,local,class=CODE,merge=1,delta=2,group=2
    25                           	psect	text9,local,class=CODE,merge=1,delta=2,group=2
    26                           	dabs	1,0x7E,2
    27  0000                     
    28                           ; Version 1.45
    29                           ; Generated 16/11/2017 GMT
    30                           ; 
    31                           ; Copyright © 2017, Microchip Technology Inc. and its subsidiaries ("Microchip")
    32                           ; All rights reserved.
    33                           ; 
    34                           ; This software is developed by Microchip Technology Inc. and its subsidiaries ("Microch
      +                          ip").
    35                           ; 
    36                           ; Redistribution and use in source and binary forms, with or without modification, are
    37                           ; permitted provided that the following conditions are met:
    38                           ; 
    39                           ;     1. Redistributions of source code must retain the above copyright notice, this lis
      +                          t of
    40                           ;        conditions and the following disclaimer.
    41                           ; 
    42                           ;     2. Redistributions in binary form must reproduce the above copyright notice, this 
      +                          list
    43                           ;        of conditions and the following disclaimer in the documentation and/or other
    44                           ;        materials provided with the distribution.
    45                           ; 
    46                           ;     3. Microchip's name may not be used to endorse or promote products derived from th
      +                          is
    47                           ;        software without specific prior written permission.
    48                           ; 
    49                           ; THIS SOFTWARE IS PROVIDED BY MICROCHIP "AS IS" AND ANY EXPRESS OR IMPLIED WARRANTIES,
    50                           ; INCLUDING, BUT NOT LIMITED TO, THE IMPLIED WARRANTIES OF MERCHANTABILITY AND FITNESS F
      +                          OR
    51                           ; PURPOSE ARE DISCLAIMED.  IN NO EVENT SHALL MICROCHIP BE LIABLE FOR ANY DIRECT, INDIREC
      +                          T,
    52                           ; INCIDENTAL, SPECIAL, EXEMPLARY, OR CONSEQUENTIAL DAMAGES (INCLUDING BUT NOT LIMITED TO
    53                           ; PROCUREMENT OF SUBSTITUTE GOODS OR SERVICES; LOSS OF USE, DATA OR PROFITS; OR BUSINESS
    54                           ; INTERRUPTION) HOWSOEVER CAUSED AND ON ANY THEORY OF LIABILITY, WHETHER IN CONTRACT, ST
      +                          RICT
    55                           ; LIABILITY, OR TORT (INCLUDING NEGLIGENCE OR OTHERWISE) ARISING IN ANY WAY OUT OF THE U
      +                          SE OF
    56                           ; THIS SOFTWARE, EVEN IF ADVISED OF THE POSSIBILITY OF SUCH DAMAGE.
    57                           ; 
    58                           ; 
    59                           ; Code-generator required, PIC16F18877 Definitions
    60                           ; 
    61                           ; SFR Addresses
    62  0000                     	;# 
    63  0001                     	;# 
    64  0002                     	;# 
    65  0003                     	;# 
    66  0004                     	;# 
    67  0005                     	;# 
    68  0006                     	;# 
    69  0007                     	;# 
    70  0008                     	;# 
    71  0009                     	;# 
    72  000A                     	;# 
    73  000B                     	;# 
    74  000C                     	;# 
    75  000D                     	;# 
    76  000E                     	;# 
    77  000F                     	;# 
    78  0010                     	;# 
    79  0011                     	;# 
    80  0012                     	;# 
    81  0013                     	;# 
    82  0014                     	;# 
    83  0015                     	;# 
    84  0016                     	;# 
    85  0017                     	;# 
    86  0018                     	;# 
    87  0019                     	;# 
    88  001A                     	;# 
    89  001C                     	;# 
    90  001C                     	;# 
    91  001D                     	;# 
    92  001D                     	;# 
    93  001E                     	;# 
    94  001F                     	;# 
    95  008C                     	;# 
    96  008C                     	;# 
    97  008D                     	;# 
    98  008E                     	;# 
    99  008E                     	;# 
   100  008F                     	;# 
   101  0090                     	;# 
   102  0090                     	;# 
   103  0091                     	;# 
   104  0093                     	;# 
   105  0094                     	;# 
   106  0095                     	;# 
   107  0096                     	;# 
   108  0097                     	;# 
   109  0098                     	;# 
   110  0099                     	;# 
   111  009A                     	;# 
   112  009B                     	;# 
   113  009C                     	;# 
   114  009D                     	;# 
   115  009E                     	;# 
   116  010C                     	;# 
   117  010D                     	;# 
   118  010E                     	;# 
   119  010E                     	;# 
   120  010F                     	;# 
   121  0110                     	;# 
   122  0110                     	;# 
   123  0111                     	;# 
   124  0112                     	;# 
   125  0112                     	;# 
   126  0113                     	;# 
   127  0114                     	;# 
   128  0114                     	;# 
   129  0115                     	;# 
   130  0116                     	;# 
   131  0116                     	;# 
   132  0117                     	;# 
   133  0119                     	;# 
   134  0119                     	;# 
   135  0119                     	;# 
   136  011A                     	;# 
   137  011A                     	;# 
   138  011A                     	;# 
   139  011B                     	;# 
   140  011B                     	;# 
   141  011B                     	;# 
   142  011B                     	;# 
   143  011B                     	;# 
   144  011C                     	;# 
   145  011C                     	;# 
   146  011C                     	;# 
   147  011D                     	;# 
   148  011D                     	;# 
   149  011D                     	;# 
   150  011E                     	;# 
   151  011E                     	;# 
   152  011E                     	;# 
   153  011F                     	;# 
   154  011F                     	;# 
   155  011F                     	;# 
   156  011F                     	;# 
   157  011F                     	;# 
   158  018C                     	;# 
   159  018D                     	;# 
   160  018E                     	;# 
   161  018F                     	;# 
   162  0190                     	;# 
   163  0191                     	;# 
   164  0192                     	;# 
   165  0196                     	;# 
   166  0197                     	;# 
   167  0198                     	;# 
   168  0199                     	;# 
   169  019A                     	;# 
   170  019B                     	;# 
   171  019C                     	;# 
   172  020C                     	;# 
   173  020C                     	;# 
   174  020D                     	;# 
   175  020E                     	;# 
   176  020F                     	;# 
   177  020F                     	;# 
   178  0210                     	;# 
   179  0210                     	;# 
   180  0211                     	;# 
   181  0211                     	;# 
   182  0212                     	;# 
   183  0212                     	;# 
   184  0213                     	;# 
   185  0214                     	;# 
   186  0215                     	;# 
   187  0215                     	;# 
   188  0216                     	;# 
   189  0216                     	;# 
   190  0217                     	;# 
   191  0217                     	;# 
   192  0218                     	;# 
   193  0218                     	;# 
   194  0219                     	;# 
   195  021A                     	;# 
   196  021B                     	;# 
   197  021B                     	;# 
   198  021C                     	;# 
   199  021C                     	;# 
   200  021D                     	;# 
   201  021D                     	;# 
   202  021E                     	;# 
   203  021F                     	;# 
   204  028C                     	;# 
   205  028C                     	;# 
   206  028D                     	;# 
   207  028D                     	;# 
   208  028E                     	;# 
   209  028F                     	;# 
   210  0290                     	;# 
   211  0290                     	;# 
   212  0291                     	;# 
   213  0292                     	;# 
   214  0292                     	;# 
   215  0293                     	;# 
   216  0293                     	;# 
   217  0294                     	;# 
   218  0295                     	;# 
   219  0296                     	;# 
   220  0296                     	;# 
   221  0297                     	;# 
   222  0298                     	;# 
   223  0298                     	;# 
   224  0299                     	;# 
   225  0299                     	;# 
   226  029A                     	;# 
   227  029B                     	;# 
   228  029C                     	;# 
   229  029C                     	;# 
   230  029D                     	;# 
   231  030C                     	;# 
   232  030C                     	;# 
   233  030D                     	;# 
   234  030E                     	;# 
   235  030F                     	;# 
   236  0310                     	;# 
   237  0310                     	;# 
   238  0311                     	;# 
   239  0312                     	;# 
   240  0313                     	;# 
   241  0314                     	;# 
   242  0314                     	;# 
   243  0315                     	;# 
   244  0316                     	;# 
   245  0317                     	;# 
   246  0318                     	;# 
   247  0318                     	;# 
   248  0319                     	;# 
   249  031A                     	;# 
   250  031B                     	;# 
   251  031C                     	;# 
   252  031C                     	;# 
   253  031D                     	;# 
   254  031E                     	;# 
   255  031F                     	;# 
   256  038C                     	;# 
   257  038D                     	;# 
   258  038E                     	;# 
   259  0390                     	;# 
   260  0391                     	;# 
   261  0392                     	;# 
   262  040C                     	;# 
   263  040D                     	;# 
   264  040E                     	;# 
   265  040F                     	;# 
   266  0410                     	;# 
   267  0411                     	;# 
   268  0416                     	;# 
   269  0416                     	;# 
   270  0417                     	;# 
   271  0418                     	;# 
   272  0418                     	;# 
   273  0419                     	;# 
   274  041A                     	;# 
   275  041A                     	;# 
   276  041B                     	;# 
   277  041C                     	;# 
   278  041C                     	;# 
   279  041D                     	;# 
   280  041E                     	;# 
   281  041F                     	;# 
   282  048C                     	;# 
   283  048C                     	;# 
   284  048D                     	;# 
   285  048E                     	;# 
   286  048F                     	;# 
   287  048F                     	;# 
   288  0490                     	;# 
   289  0491                     	;# 
   290  0492                     	;# 
   291  0492                     	;# 
   292  0493                     	;# 
   293  0494                     	;# 
   294  0495                     	;# 
   295  0495                     	;# 
   296  0496                     	;# 
   297  0497                     	;# 
   298  0498                     	;# 
   299  0499                     	;# 
   300  049A                     	;# 
   301  049B                     	;# 
   302  049C                     	;# 
   303  049D                     	;# 
   304  050C                     	;# 
   305  050C                     	;# 
   306  050D                     	;# 
   307  050E                     	;# 
   308  050F                     	;# 
   309  050F                     	;# 
   310  0510                     	;# 
   311  0511                     	;# 
   312  0512                     	;# 
   313  0512                     	;# 
   314  0513                     	;# 
   315  0514                     	;# 
   316  0515                     	;# 
   317  0515                     	;# 
   318  0516                     	;# 
   319  0517                     	;# 
   320  0518                     	;# 
   321  0519                     	;# 
   322  051A                     	;# 
   323  051B                     	;# 
   324  051C                     	;# 
   325  051D                     	;# 
   326  058C                     	;# 
   327  058C                     	;# 
   328  058D                     	;# 
   329  058E                     	;# 
   330  058F                     	;# 
   331  058F                     	;# 
   332  0590                     	;# 
   333  0591                     	;# 
   334  0592                     	;# 
   335  0593                     	;# 
   336  060C                     	;# 
   337  060D                     	;# 
   338  060E                     	;# 
   339  060F                     	;# 
   340  0610                     	;# 
   341  0611                     	;# 
   342  0612                     	;# 
   343  0613                     	;# 
   344  0614                     	;# 
   345  0616                     	;# 
   346  0617                     	;# 
   347  0618                     	;# 
   348  0619                     	;# 
   349  061A                     	;# 
   350  061B                     	;# 
   351  061C                     	;# 
   352  061D                     	;# 
   353  061E                     	;# 
   354  068C                     	;# 
   355  068D                     	;# 
   356  068E                     	;# 
   357  068F                     	;# 
   358  0690                     	;# 
   359  0691                     	;# 
   360  0692                     	;# 
   361  0693                     	;# 
   362  0694                     	;# 
   363  070C                     	;# 
   364  070D                     	;# 
   365  070E                     	;# 
   366  070F                     	;# 
   367  0710                     	;# 
   368  0711                     	;# 
   369  0712                     	;# 
   370  0713                     	;# 
   371  0714                     	;# 
   372  0716                     	;# 
   373  0717                     	;# 
   374  0718                     	;# 
   375  0719                     	;# 
   376  071A                     	;# 
   377  071B                     	;# 
   378  071C                     	;# 
   379  071D                     	;# 
   380  071E                     	;# 
   381  0796                     	;# 
   382  0797                     	;# 
   383  0798                     	;# 
   384  0799                     	;# 
   385  079A                     	;# 
   386  079B                     	;# 
   387  080C                     	;# 
   388  080D                     	;# 
   389  080E                     	;# 
   390  080F                     	;# 
   391  0810                     	;# 
   392  0811                     	;# 
   393  0812                     	;# 
   394  0813                     	;# 
   395  0814                     	;# 
   396  081A                     	;# 
   397  081B                     	;# 
   398  081C                     	;# 
   399  081D                     	;# 
   400  081E                     	;# 
   401  081F                     	;# 
   402  088C                     	;# 
   403  088D                     	;# 
   404  088E                     	;# 
   405  088F                     	;# 
   406  0890                     	;# 
   407  0891                     	;# 
   408  0892                     	;# 
   409  0893                     	;# 
   410  0895                     	;# 
   411  0896                     	;# 
   412  0897                     	;# 
   413  0898                     	;# 
   414  0899                     	;# 
   415  089A                     	;# 
   416  089B                     	;# 
   417  090C                     	;# 
   418  090E                     	;# 
   419  090F                     	;# 
   420  091F                     	;# 
   421  098F                     	;# 
   422  098F                     	;# 
   423  0990                     	;# 
   424  0991                     	;# 
   425  0992                     	;# 
   426  0993                     	;# 
   427  0994                     	;# 
   428  0995                     	;# 
   429  0996                     	;# 
   430  0997                     	;# 
   431  1E0F                     	;# 
   432  1E10                     	;# 
   433  1E11                     	;# 
   434  1E12                     	;# 
   435  1E13                     	;# 
   436  1E14                     	;# 
   437  1E15                     	;# 
   438  1E16                     	;# 
   439  1E17                     	;# 
   440  1E18                     	;# 
   441  1E19                     	;# 
   442  1E1A                     	;# 
   443  1E1B                     	;# 
   444  1E1C                     	;# 
   445  1E1D                     	;# 
   446  1E1E                     	;# 
   447  1E1F                     	;# 
   448  1E20                     	;# 
   449  1E21                     	;# 
   450  1E22                     	;# 
   451  1E23                     	;# 
   452  1E24                     	;# 
   453  1E25                     	;# 
   454  1E26                     	;# 
   455  1E27                     	;# 
   456  1E28                     	;# 
   457  1E29                     	;# 
   458  1E2A                     	;# 
   459  1E2B                     	;# 
   460  1E2C                     	;# 
   461  1E2D                     	;# 
   462  1E2E                     	;# 
   463  1E2F                     	;# 
   464  1E30                     	;# 
   465  1E31                     	;# 
   466  1E32                     	;# 
   467  1E33                     	;# 
   468  1E34                     	;# 
   469  1E35                     	;# 
   470  1E36                     	;# 
   471  1E37                     	;# 
   472  1E8F                     	;# 
   473  1E90                     	;# 
   474  1E91                     	;# 
   475  1E92                     	;# 
   476  1E93                     	;# 
   477  1E94                     	;# 
   478  1E95                     	;# 
   479  1E96                     	;# 
   480  1E97                     	;# 
   481  1E9C                     	;# 
   482  1E9D                     	;# 
   483  1E9E                     	;# 
   484  1EA1                     	;# 
   485  1EA2                     	;# 
   486  1EA3                     	;# 
   487  1EA4                     	;# 
   488  1EA5                     	;# 
   489  1EA9                     	;# 
   490  1EAA                     	;# 
   491  1EAB                     	;# 
   492  1EAC                     	;# 
   493  1EB1                     	;# 
   494  1EB2                     	;# 
   495  1EB3                     	;# 
   496  1EB8                     	;# 
   497  1EB9                     	;# 
   498  1EBA                     	;# 
   499  1EBB                     	;# 
   500  1EBC                     	;# 
   501  1EBD                     	;# 
   502  1EBE                     	;# 
   503  1EC3                     	;# 
   504  1EC5                     	;# 
   505  1EC6                     	;# 
   506  1EC7                     	;# 
   507  1EC8                     	;# 
   508  1EC9                     	;# 
   509  1ECA                     	;# 
   510  1ECB                     	;# 
   511  1ECC                     	;# 
   512  1F10                     	;# 
   513  1F11                     	;# 
   514  1F12                     	;# 
   515  1F13                     	;# 
   516  1F14                     	;# 
   517  1F15                     	;# 
   518  1F16                     	;# 
   519  1F17                     	;# 
   520  1F18                     	;# 
   521  1F19                     	;# 
   522  1F1A                     	;# 
   523  1F1B                     	;# 
   524  1F1C                     	;# 
   525  1F1D                     	;# 
   526  1F1E                     	;# 
   527  1F1F                     	;# 
   528  1F20                     	;# 
   529  1F21                     	;# 
   530  1F22                     	;# 
   531  1F23                     	;# 
   532  1F24                     	;# 
   533  1F25                     	;# 
   534  1F26                     	;# 
   535  1F27                     	;# 
   536  1F28                     	;# 
   537  1F29                     	;# 
   538  1F2A                     	;# 
   539  1F2B                     	;# 
   540  1F2C                     	;# 
   541  1F2D                     	;# 
   542  1F2E                     	;# 
   543  1F2F                     	;# 
   544  1F30                     	;# 
   545  1F31                     	;# 
   546  1F32                     	;# 
   547  1F38                     	;# 
   548  1F39                     	;# 
   549  1F3A                     	;# 
   550  1F3B                     	;# 
   551  1F3C                     	;# 
   552  1F3D                     	;# 
   553  1F3E                     	;# 
   554  1F3F                     	;# 
   555  1F40                     	;# 
   556  1F41                     	;# 
   557  1F43                     	;# 
   558  1F44                     	;# 
   559  1F45                     	;# 
   560  1F46                     	;# 
   561  1F47                     	;# 
   562  1F48                     	;# 
   563  1F49                     	;# 
   564  1F4A                     	;# 
   565  1F4B                     	;# 
   566  1F4C                     	;# 
   567  1F4E                     	;# 
   568  1F4F                     	;# 
   569  1F50                     	;# 
   570  1F51                     	;# 
   571  1F52                     	;# 
   572  1F53                     	;# 
   573  1F54                     	;# 
   574  1F55                     	;# 
   575  1F56                     	;# 
   576  1F57                     	;# 
   577  1F59                     	;# 
   578  1F5A                     	;# 
   579  1F5B                     	;# 
   580  1F5C                     	;# 
   581  1F5D                     	;# 
   582  1F61                     	;# 
   583  1F62                     	;# 
   584  1F64                     	;# 
   585  1F65                     	;# 
   586  1F66                     	;# 
   587  1F67                     	;# 
   588  1F68                     	;# 
   589  1F69                     	;# 
   590  1F6A                     	;# 
   591  1F6B                     	;# 
   592  1F6C                     	;# 
   593  1F6D                     	;# 
   594  1FE4                     	;# 
   595  1FE5                     	;# 
   596  1FE6                     	;# 
   597  1FE7                     	;# 
   598  1FE8                     	;# 
   599  1FE9                     	;# 
   600  1FEA                     	;# 
   601  1FEB                     	;# 
   602  1FED                     	;# 
   603  1FEE                     	;# 
   604  1FEF                     	;# 
   605                           
   606                           	psect	idataBANK0
   607  08ED                     __pidataBANK0:	
   608                           
   609                           ;initializer for _kp
   610                           ;main.c: 20: int error=0, errorant=0;
   611  08ED  34CD               	retlw	205
   612  08EE  344C               	retlw	76
   613  08EF  343E               	retlw	62
   614                           
   615                           ;initializer for _velocidad
   616  08F0  3420               	retlw	32
   617  08F1  3403               	retlw	3
   618                           
   619                           	psect	idataBANK1
   620  0006                     __pidataBANK1:	
   621                           
   622                           ;initializer for _ki
   623  0006  3400               	retlw	0
   624  0007  3470               	retlw	112
   625  0008  3442               	retlw	66
   626                           
   627                           ;initializer for _kd
   628                           ;main.c: 20: int error=0, errorant=0;
   629  0009  346A               	retlw	106
   630  000A  343C               	retlw	60
   631  000B  343D               	retlw	61
   632  0013                     _TRISCbits	set	19
   633  000E                     _PORTC	set	14
   634  0011                     _TRISA	set	17
   635  000C                     _PORTA	set	12
   636  0012                     _TRISBbits	set	18
   637  0012                     _TRISB	set	18
   638  000D                     _PORTB	set	13
   639  009A                     _ADREFbits	set	154
   640  008C                     _ADRESL	set	140
   641  008D                     _ADRESH	set	141
   642  0093                     _ADCON0bits	set	147
   643  009E                     _ADPCH	set	158
   644  021E                     _CCPTMRS0bits	set	542
   645  028D                     _PR2	set	653
   646  028E                     _T2CONbits	set	654
   647  0290                     _T2CLKCON	set	656
   648  0318                     _CCPR4	set	792
   649  0314                     _CCPR3	set	788
   650  0310                     _CCPR2	set	784
   651  030C                     _CCPR1	set	780
   652  031A                     _CCP4CONbits	set	794
   653  0316                     _CCP3CONbits	set	790
   654  0312                     _CCP2CONbits	set	786
   655  030E                     _CCP1CONbits	set	782
   656  0893                     _OSCFRQbits	set	2195
   657  1F1B                     _RB3PPS	set	7963
   658  1F1A                     _RB2PPS	set	7962
   659  1F19                     _RB1PPS	set	7961
   660  1F18                     _RB0PPS	set	7960
   661  1F43                     _ANSELB	set	8003
   662  1F4E                     _ANSELC	set	8014
   663  1F38                     _ANSELA	set	7992
   664                           
   665                           ; #config settings
   666  0000                     
   667                           	psect	cinit
   668  07DC                     start_initialization:	
   669  07DC                     __initialization:	
   670                           
   671                           ; Initialize objects allocated to BANK0
   672  07DC  30ED               	movlw	low __pidataBANK0
   673  07DD  0084               	movwf	4
   674  07DE  3088               	movlw	(high __pidataBANK0)| (0+128)
   675  07DF  0085               	movwf	5
   676  07E0  3068               	movlw	low __pdataBANK0
   677  07E1  0086               	movwf	6
   678  07E2  3000               	movlw	high __pdataBANK0
   679  07E3  0087               	movwf	7
   680  07E4  3005               	movlw	5
   681  07E5  3188  20F8  3187   	fcall	init_ram
   682                           
   683                           ; Initialize objects allocated to BANK1
   684  07E8  3006               	movlw	low __pidataBANK1
   685  07E9  0084               	movwf	4
   686  07EA  3080               	movlw	(high __pidataBANK1)| (0+128)
   687  07EB  0085               	movwf	5
   688  07EC  30E4               	movlw	low __pdataBANK1
   689  07ED  0086               	movwf	6
   690  07EE  3000               	movlw	high __pdataBANK1
   691  07EF  0087               	movwf	7
   692  07F0  3006               	movlw	6
   693  07F1  3188  20F8  3187   	fcall	init_ram
   694                           
   695                           ; Clear objects allocated to BANK0
   696  07F4  01ED               	clrf	__pbssBANK0& (0+127)
   697  07F5  01EE               	clrf	(__pbssBANK0+1)& (0+127)
   698                           
   699                           ; Clear objects allocated to BANK1
   700  07F6  30C8               	movlw	low __pbssBANK1
   701  07F7  0084               	movwf	4
   702  07F8  3000               	movlw	high __pbssBANK1
   703  07F9  0085               	movwf	5
   704  07FA  301C               	movlw	28
   705  07FB  3188  20F2         	fcall	clear_ram0
   706  07FD                     end_of_initialization:	
   707                           ;End of C runtime variable initialization code
   708                           
   709  07FD                     __end_of__initialization:	
   710  07FD  0140               	movlb	0
   711  07FE  3189  29F2         	ljmp	_main	;jump to C main() function
   712                           
   713                           	psect	bssBANK0
   714  006D                     __pbssBANK0:	
   715  006D                     _errorant:	
   716  006D                     	ds	2
   717                           
   718                           	psect	dataBANK0
   719  0068                     __pdataBANK0:	
   720  0068                     _kp:	
   721  0068                     	ds	3
   722  006B                     _velocidad:	
   723  006B                     	ds	2
   724                           
   725                           	psect	bssBANK1
   726  00C8                     __pbssBANK1:	
   727  00C8                     _v7:	
   728  00C8                     	ds	3
   729  00CB                     _v6:	
   730  00CB                     	ds	3
   731  00CE                     _v5:	
   732  00CE                     	ds	3
   733  00D1                     _v4:	
   734  00D1                     	ds	3
   735  00D4                     _v3:	
   736  00D4                     	ds	3
   737  00D7                     _v2:	
   738  00D7                     	ds	3
   739  00DA                     _v1:	
   740  00DA                     	ds	3
   741  00DD                     _adc:	
   742  00DD                     	ds	2
   743  00DF                     _error:	
   744  00DF                     	ds	2
   745  00E1                     _v0:	
   746  00E1                     	ds	3
   747                           
   748                           	psect	dataBANK1
   749  00E4                     __pdataBANK1:	
   750  00E4                     _ki:	
   751  00E4                     	ds	3
   752  00E7                     _kd:	
   753  00E7                     	ds	3
   754                           
   755                           	psect	inittext
   756  08F8                     init_ram:	
   757  08F8  00FE               	movwf	126
   758  08F9                     initloop:	
   759  08F9  0012               	moviw fsr0++
   760  08FA  001E               	movwi fsr1++
   761  08FB  0BFE               	decfsz	126,f
   762  08FC  28F9               	goto	initloop
   763  08FD  3400               	retlw	0
   764                           
   765                           	psect	clrtext
   766  08F2                     clear_ram0:	
   767                           ;	Called with FSR0 containing the base address, and
   768                           ;	WREG with the size to clear
   769                           
   770  08F2  0064               	clrwdt	;clear the watchdog before getting into this loop
   771  08F3                     clrloop0:	
   772  08F3  0180               	clrf	0	;clear RAM location pointed to by FSR
   773  08F4  3101               	addfsr 0,1
   774  08F5  0B89               	decfsz	9,f	;Have we reached the end of clearing yet?
   775  08F6  28F3               	goto	clrloop0	;have we reached the end yet?
   776  08F7  3400               	retlw	0	;all done for this memory range, return
   777                           
   778                           	psect	cstackBANK1
   779  00A0                     __pcstackBANK1:	
   780  00A0                     _geterror$1030:	
   781                           
   782                           ; 3 bytes @ 0x0
   783  00A0                     	ds	3
   784  00A3                     _geterror$1031:	
   785                           
   786                           ; 3 bytes @ 0x3
   787  00A3                     	ds	3
   788  00A6                     _geterror$1032:	
   789                           
   790                           ; 3 bytes @ 0x6
   791  00A6                     	ds	3
   792  00A9                     _geterror$1033:	
   793                           
   794                           ; 3 bytes @ 0x9
   795  00A9                     	ds	3
   796  00AC                     _geterror$1034:	
   797                           
   798                           ; 3 bytes @ 0xC
   799  00AC                     	ds	3
   800  00AF                     _geterror$1035:	
   801                           
   802                           ; 3 bytes @ 0xF
   803  00AF                     	ds	3
   804  00B2                     _geterror$1036:	
   805                           
   806                           ; 3 bytes @ 0x12
   807  00B2                     	ds	3
   808  00B5                     _geterror$1037:	
   809                           
   810                           ; 3 bytes @ 0x15
   811  00B5                     	ds	3
   812  00B8                     _geterror$1038:	
   813                           
   814                           ; 3 bytes @ 0x18
   815  00B8                     	ds	3
   816  00BB                     _geterror$1039:	
   817                           
   818                           ; 3 bytes @ 0x1B
   819  00BB                     	ds	3
   820  00BE                     _geterror$1040:	
   821                           
   822                           ; 3 bytes @ 0x1E
   823  00BE                     	ds	3
   824  00C1                     _geterror$1041:	
   825                           
   826                           ; 3 bytes @ 0x21
   827  00C1                     	ds	3
   828  00C4                     ?_main:	
   829  00C4                     main@argc:	
   830                           ; 2 bytes @ 0x24
   831                           
   832                           
   833                           ; 2 bytes @ 0x24
   834  00C4                     	ds	2
   835  00C6                     main@argv:	
   836                           
   837                           ; 2 bytes @ 0x26
   838  00C6                     	ds	2
   839                           
   840                           	psect	cstackCOMMON
   841  0070                     __pcstackCOMMON:	
   842  0070                     ?_geterror:	
   843  0070                     ?_formula:	
   844                           ; 1 bytes @ 0x0
   845                           
   846  0070                     ?___ftpack:	
   847                           ; 1 bytes @ 0x0
   848                           
   849  0070                     ___ftpack@arg:	
   850                           ; 3 bytes @ 0x0
   851                           
   852                           
   853                           ; 3 bytes @ 0x0
   854  0070                     	ds	3
   855  0073                     ___ftpack@exp:	
   856                           
   857                           ; 1 bytes @ 0x3
   858  0073                     	ds	1
   859  0074                     ___ftpack@sign:	
   860                           
   861                           ; 1 bytes @ 0x4
   862  0074                     	ds	1
   863  0075                     ??___ftpack:	
   864                           
   865                           ; 1 bytes @ 0x5
   866  0075                     	ds	3
   867  0078                     ?___awtoft:	
   868  0078                     ___awtoft@c:	
   869                           ; 3 bytes @ 0x8
   870                           
   871                           
   872                           ; 2 bytes @ 0x8
   873  0078                     	ds	3
   874  007B                     ??___awtoft:	
   875                           
   876                           ; 1 bytes @ 0xB
   877  007B                     	ds	2
   878  007D                     ___awtoft@sign:	
   879                           
   880                           ; 1 bytes @ 0xD
   881  007D                     	ds	1
   882  007E                     ??___ftneg:	
   883                           
   884                           	psect	cstackBANK0
   885  0020                     __pcstackBANK0:	
   886                           ; 1 bytes @ 0xE
   887                           
   888  0020                     ?___ftneg:	
   889  0020                     ___ftneg@f1:	
   890                           ; 3 bytes @ 0x0
   891                           
   892                           
   893                           ; 3 bytes @ 0x0
   894  0020                     	ds	3
   895  0023                     ?___ftmul:	
   896  0023                     ___ftmul@f1:	
   897                           ; 3 bytes @ 0x3
   898                           
   899                           
   900                           ; 3 bytes @ 0x3
   901  0023                     	ds	3
   902  0026                     ___ftmul@f2:	
   903                           
   904                           ; 3 bytes @ 0x6
   905  0026                     	ds	3
   906  0029                     ??___ftmul:	
   907                           
   908                           ; 1 bytes @ 0x9
   909  0029                     	ds	4
   910  002D                     ___ftmul@exp:	
   911                           
   912                           ; 1 bytes @ 0xD
   913  002D                     	ds	1
   914  002E                     ___ftmul@f3_as_product:	
   915                           
   916                           ; 3 bytes @ 0xE
   917  002E                     	ds	3
   918  0031                     ___ftmul@cntr:	
   919                           
   920                           ; 1 bytes @ 0x11
   921  0031                     	ds	1
   922  0032                     ___ftmul@sign:	
   923                           
   924                           ; 1 bytes @ 0x12
   925  0032                     	ds	1
   926  0033                     ?___ftadd:	
   927  0033                     ___ftadd@f1:	
   928                           ; 3 bytes @ 0x13
   929                           
   930                           
   931                           ; 3 bytes @ 0x13
   932  0033                     	ds	3
   933  0036                     ___ftadd@f2:	
   934                           
   935                           ; 3 bytes @ 0x16
   936  0036                     	ds	3
   937  0039                     ??___ftadd:	
   938                           
   939                           ; 1 bytes @ 0x19
   940  0039                     	ds	4
   941  003D                     ___ftadd@sign:	
   942                           
   943                           ; 1 bytes @ 0x1D
   944  003D                     	ds	1
   945  003E                     ___ftadd@exp2:	
   946                           
   947                           ; 1 bytes @ 0x1E
   948  003E                     	ds	1
   949  003F                     ___ftadd@exp1:	
   950                           
   951                           ; 1 bytes @ 0x1F
   952  003F                     	ds	1
   953  0040                     ?___ftdiv:	
   954  0040                     ___ftdiv@f2:	
   955                           ; 3 bytes @ 0x20
   956                           
   957                           
   958                           ; 3 bytes @ 0x20
   959  0040                     	ds	3
   960  0043                     ___ftdiv@f1:	
   961                           
   962                           ; 3 bytes @ 0x23
   963  0043                     	ds	3
   964  0046                     ??___ftdiv:	
   965                           
   966                           ; 1 bytes @ 0x26
   967  0046                     	ds	4
   968  004A                     ___ftdiv@cntr:	
   969                           
   970                           ; 1 bytes @ 0x2A
   971  004A                     	ds	1
   972  004B                     ___ftdiv@f3:	
   973                           
   974                           ; 3 bytes @ 0x2B
   975  004B                     	ds	3
   976  004E                     ___ftdiv@exp:	
   977                           
   978                           ; 1 bytes @ 0x2E
   979  004E                     	ds	1
   980  004F                     ___ftdiv@sign:	
   981                           
   982                           ; 1 bytes @ 0x2F
   983  004F                     	ds	1
   984  0050                     ?___fttol:	
   985  0050                     ___fttol@f1:	
   986                           ; 4 bytes @ 0x30
   987                           
   988                           
   989                           ; 3 bytes @ 0x30
   990  0050                     	ds	4
   991  0054                     ??___fttol:	
   992                           
   993                           ; 1 bytes @ 0x34
   994  0054                     	ds	4
   995  0058                     ___fttol@sign1:	
   996                           
   997                           ; 1 bytes @ 0x38
   998  0058                     	ds	1
   999  0059                     ___fttol@lval:	
  1000                           
  1001                           ; 4 bytes @ 0x39
  1002  0059                     	ds	4
  1003  005D                     ___fttol@exp1:	
  1004                           
  1005                           ; 1 bytes @ 0x3D
  1006  005D                     	ds	1
  1007  005E                     ??_geterror:	
  1008  005E                     ??_formula:	
  1009                           ; 1 bytes @ 0x3E
  1010                           
  1011                           
  1012                           ; 1 bytes @ 0x3E
  1013  005E                     	ds	2
  1014  0060                     _formula$1043:	
  1015                           
  1016                           ; 3 bytes @ 0x40
  1017  0060                     	ds	3
  1018  0063                     _formula$1042:	
  1019                           
  1020                           ; 3 bytes @ 0x43
  1021  0063                     	ds	3
  1022  0066                     ??_main:	
  1023                           
  1024                           ; 1 bytes @ 0x46
  1025  0066                     	ds	2
  1026                           
  1027                           	psect	maintext
  1028  09F2                     __pmaintext:	
  1029 ;;
  1030 ;;Main: autosize = 0, tempsize = 2, incstack = 0, save=0
  1031 ;;
  1032 ;; *************** function _main *****************
  1033 ;; Defined at:
  1034 ;;		line 164 in file "main.c"
  1035 ;; Parameters:    Size  Location     Type
  1036 ;;  argc            2   36[BANK1 ] int 
  1037 ;;  argv            2   38[BANK1 ] PTR PTR unsigned char 
  1038 ;; Auto vars:     Size  Location     Type
  1039 ;;		None
  1040 ;; Return value:  Size  Location     Type
  1041 ;;                  2   36[BANK1 ] int 
  1042 ;; Registers used:
  1043 ;;		wreg, status,2, status,0, pclath, cstack
  1044 ;; Tracked objects:
  1045 ;;		On entry : B3F/0
  1046 ;;		On exit  : 0/0
  1047 ;;		Unchanged: 0/0
  1048 ;; Data sizes:     COMMON   BANK0   BANK1   BANK2   BANK3   BANK4   BANK5   BANK6   BANK7   BANK8   BANK9  BANK10  BANK1
      +1  BANK12  BANK13  BANK14  BANK15  BANK16  BANK17  BANK18  BANK19  BANK20  BANK21  BANK22  BANK23  BANK24  BANK25  BANK2
      +6  BANK27  BANK28  BANK29  BANK30  BANK31  BANK32  BANK33  BANK34  BANK35  BANK36  BANK37  BANK38  BANK39  BANK40  BANK4
      +1  BANK42  BANK43  BANK44  BANK45  BANK46  BANK47  BANK48  BANK49  BANK50
  1049 ;;      Params:         0       0       4       0       0       0       0       0       0       0       0       0       
      +0       0       0       0       0       0       0       0       0       0       0       0       0       0       0       
      +0       0       0       0       0       0       0       0       0       0       0       0       0       0       0       
      +0       0       0       0       0       0       0       0       0       0
  1050 ;;      Locals:         0       0       0       0       0       0       0       0       0       0       0       0       
      +0       0       0       0       0       0       0       0       0       0       0       0       0       0       0       
      +0       0       0       0       0       0       0       0       0       0       0       0       0       0       0       
      +0       0       0       0       0       0       0       0       0       0
  1051 ;;      Temps:          0       2       0       0       0       0       0       0       0       0       0       0       
      +0       0       0       0       0       0       0       0       0       0       0       0       0       0       0       
      +0       0       0       0       0       0       0       0       0       0       0       0       0       0       0       
      +0       0       0       0       0       0       0       0       0       0
  1052 ;;      Totals:         0       2       4       0       0       0       0       0       0       0       0       0       
      +0       0       0       0       0       0       0       0       0       0       0       0       0       0       0       
      +0       0       0       0       0       0       0       0       0       0       0       0       0       0       0       
      +0       0       0       0       0       0       0       0       0       0
  1053 ;;Total ram usage:        6 bytes
  1054 ;; Hardware stack levels required when called:    3
  1055 ;; This function calls:
  1056 ;;		_formula
  1057 ;;		_geterror
  1058 ;; This function is called by:
  1059 ;;		Startup code after reset
  1060 ;; This function uses a non-reentrant model
  1061 ;;
  1062                           
  1063                           
  1064                           ;psect for function _main
  1065  09F2                     _main:	
  1066                           
  1067                           ;main.c: 165: OSCFRQbits.HFFRQ=0b110;
  1068                           
  1069                           ;incstack = 0
  1070                           ; Regs used in _main: [wreg+status,2+status,0+pclath+cstack]
  1071  09F2  0151               	movlb	17	; select bank17
  1072  09F3  0813               	movf	19,w	;volatile
  1073  09F4  39F8               	andlw	-8
  1074  09F5  3806               	iorlw	6
  1075  09F6  0093               	movwf	19	;volatile
  1076                           
  1077                           ;main.c: 167: PORTA=0;
  1078  09F7  0140               	movlb	0	; select bank0
  1079  09F8  018C               	clrf	12	;volatile
  1080                           
  1081                           ;main.c: 168: ANSELA=0b11111111;
  1082  09F9  30FF               	movlw	255
  1083  09FA  017E               	movlb	62	; select bank62
  1084  09FB  00B8               	movwf	56	;volatile
  1085                           
  1086                           ;main.c: 169: TRISA=0b11111111;
  1087  09FC  30FF               	movlw	255
  1088  09FD  0140               	movlb	0	; select bank0
  1089  09FE  0091               	movwf	17	;volatile
  1090                           
  1091                           ;main.c: 170: PORTC=0;
  1092  09FF  018E               	clrf	14	;volatile
  1093                           
  1094                           ;main.c: 171: ANSELC=0b11111111;
  1095  0A00  30FF               	movlw	255
  1096  0A01  017E               	movlb	62	; select bank62
  1097  0A02  00CE               	movwf	78	;volatile
  1098                           
  1099                           ;main.c: 172: TRISCbits.TRISC0=1;
  1100  0A03  0140               	movlb	0	; select bank0
  1101  0A04  1413               	bsf	19,0	;volatile
  1102                           
  1103                           ;main.c: 221: ADCON0bits.ADON=1;
  1104  0A05  0141               	movlb	1	; select bank1
  1105  0A06  1793               	bsf	19,7	;volatile
  1106                           
  1107                           ;main.c: 222: ADCON0bits.ADCONT=0;
  1108  0A07  1313               	bcf	19,6	;volatile
  1109                           
  1110                           ;main.c: 223: ADCON0bits.ADCS=1;
  1111  0A08  1613               	bsf	19,4	;volatile
  1112                           
  1113                           ;main.c: 224: ADCON0bits.ADFRM=1;
  1114  0A09  0813               	movf	19,w	;volatile
  1115  0A0A  39F3               	andlw	-13
  1116  0A0B  3804               	iorlw	4
  1117  0A0C  0093               	movwf	19	;volatile
  1118                           
  1119                           ;main.c: 225: ADREFbits.ADNREF=0;
  1120  0A0D  121A               	bcf	26,4	;volatile
  1121                           
  1122                           ;main.c: 226: ADREFbits.ADPREF=0b00;
  1123  0A0E  30FC               	movlw	-4
  1124  0A0F  059A               	andwf	26,f	;volatile
  1125                           
  1126                           ;main.c: 228: PORTB=0;
  1127  0A10  0140               	movlb	0	; select bank0
  1128  0A11  018D               	clrf	13	;volatile
  1129                           
  1130                           ;main.c: 229: ANSELB=0b11111111;
  1131  0A12  30FF               	movlw	255
  1132  0A13  017E               	movlb	62	; select bank62
  1133  0A14  00C3               	movwf	67	;volatile
  1134                           
  1135                           ;main.c: 230: TRISB=0b11111111;
  1136  0A15  30FF               	movlw	255
  1137  0A16  0140               	movlb	0	; select bank0
  1138  0A17  0092               	movwf	18	;volatile
  1139                           
  1140                           ;main.c: 232: T2CLKCON=0b0001;
  1141  0A18  3001               	movlw	1
  1142  0A19  0145               	movlb	5	; select bank5
  1143  0A1A  0090               	movwf	16	;volatile
  1144                           
  1145                           ;main.c: 233: T2CONbits.ON=1;
  1146  0A1B  178E               	bsf	14,7	;volatile
  1147                           
  1148                           ;main.c: 234: T2CONbits.OUTPS=0;
  1149  0A1C  30F0               	movlw	-16
  1150  0A1D  058E               	andwf	14,f	;volatile
  1151                           
  1152                           ;main.c: 235: T2CONbits.CKPS=0b100;
  1153  0A1E  080E               	movf	14,w	;volatile
  1154  0A1F  398F               	andlw	-113
  1155  0A20  3840               	iorlw	64
  1156  0A21  008E               	movwf	14	;volatile
  1157                           
  1158                           ;main.c: 236: PR2=255;
  1159  0A22  30FF               	movlw	255
  1160  0A23  008D               	movwf	13	;volatile
  1161                           
  1162                           ;main.c: 238: RB0PPS=0x09;
  1163  0A24  3009               	movlw	9
  1164  0A25  017E               	movlb	62	; select bank62
  1165  0A26  0098               	movwf	24	;volatile
  1166                           
  1167                           ;main.c: 242: CCP1CONbits.EN=1;
  1168  0A27  0146               	movlb	6	; select bank6
  1169  0A28  178E               	bsf	14,7	;volatile
  1170                           
  1171                           ;main.c: 243: CCP1CONbits.FMT=0;
  1172  0A29  120E               	bcf	14,4	;volatile
  1173                           
  1174                           ;main.c: 244: CCP1CONbits.MODE=0b1111;
  1175  0A2A  300F               	movlw	15
  1176  0A2B  048E               	iorwf	14,f	;volatile
  1177                           
  1178                           ;main.c: 245: CCPTMRS0bits.C1TSEL=0b01;
  1179  0A2C  0144               	movlb	4	; select bank4
  1180  0A2D  081E               	movf	30,w	;volatile
  1181  0A2E  39FC               	andlw	-4
  1182  0A2F  3801               	iorlw	1
  1183  0A30  009E               	movwf	30	;volatile
  1184                           
  1185                           ;main.c: 247: RB1PPS=0x0A;
  1186  0A31  300A               	movlw	10
  1187  0A32  017E               	movlb	62	; select bank62
  1188  0A33  0099               	movwf	25	;volatile
  1189                           
  1190                           ;main.c: 250: CCP2CONbits.EN=1;
  1191  0A34  0146               	movlb	6	; select bank6
  1192  0A35  1792               	bsf	18,7	;volatile
  1193                           
  1194                           ;main.c: 251: CCP2CONbits.FMT=0;
  1195  0A36  1212               	bcf	18,4	;volatile
  1196                           
  1197                           ;main.c: 252: CCP2CONbits.MODE=0b1111;
  1198  0A37  300F               	movlw	15
  1199  0A38  0492               	iorwf	18,f	;volatile
  1200                           
  1201                           ;main.c: 253: CCPTMRS0bits.C2TSEL=0b01;
  1202  0A39  0144               	movlb	4	; select bank4
  1203  0A3A  081E               	movf	30,w	;volatile
  1204  0A3B  39F3               	andlw	-13
  1205  0A3C  3804               	iorlw	4
  1206  0A3D  009E               	movwf	30	;volatile
  1207                           
  1208                           ;main.c: 255: RB2PPS=0x0B;
  1209  0A3E  300B               	movlw	11
  1210  0A3F  017E               	movlb	62	; select bank62
  1211  0A40  009A               	movwf	26	;volatile
  1212                           
  1213                           ;main.c: 257: CCP3CONbits.EN=1;
  1214  0A41  0146               	movlb	6	; select bank6
  1215  0A42  1796               	bsf	22,7	;volatile
  1216                           
  1217                           ;main.c: 258: CCP3CONbits.FMT=0;
  1218  0A43  1216               	bcf	22,4	;volatile
  1219                           
  1220                           ;main.c: 259: CCP3CONbits.MODE=0b1111;
  1221  0A44  300F               	movlw	15
  1222  0A45  0496               	iorwf	22,f	;volatile
  1223                           
  1224                           ;main.c: 260: CCPTMRS0bits.C3TSEL=0b01;
  1225  0A46  0144               	movlb	4	; select bank4
  1226  0A47  081E               	movf	30,w	;volatile
  1227  0A48  39CF               	andlw	-49
  1228  0A49  3810               	iorlw	16
  1229  0A4A  009E               	movwf	30	;volatile
  1230                           
  1231                           ;main.c: 263: RB3PPS=0x0C;
  1232  0A4B  300C               	movlw	12
  1233  0A4C  017E               	movlb	62	; select bank62
  1234  0A4D  009B               	movwf	27	;volatile
  1235                           
  1236                           ;main.c: 265: CCP4CONbits.EN=1;
  1237  0A4E  0146               	movlb	6	; select bank6
  1238  0A4F  179A               	bsf	26,7	;volatile
  1239                           
  1240                           ;main.c: 266: CCP4CONbits.FMT=0;
  1241  0A50  121A               	bcf	26,4	;volatile
  1242                           
  1243                           ;main.c: 267: CCP4CONbits.MODE=0b1111;
  1244  0A51  300F               	movlw	15
  1245  0A52  049A               	iorwf	26,f	;volatile
  1246                           
  1247                           ;main.c: 268: CCPTMRS0bits.C4TSEL=0b01;
  1248  0A53  0144               	movlb	4	; select bank4
  1249  0A54  081E               	movf	30,w	;volatile
  1250  0A55  393F               	andlw	-193
  1251  0A56  3840               	iorlw	64
  1252  0A57  009E               	movwf	30	;volatile
  1253                           
  1254                           ;main.c: 278: TRISBbits.TRISB0=0;
  1255  0A58  0140               	movlb	0	; select bank0
  1256  0A59  1012               	bcf	18,0	;volatile
  1257                           
  1258                           ;main.c: 279: TRISBbits.TRISB1=1;
  1259  0A5A  1492               	bsf	18,1	;volatile
  1260                           
  1261                           ;main.c: 280: TRISBbits.TRISB2=0;
  1262  0A5B  1112               	bcf	18,2	;volatile
  1263                           
  1264                           ;main.c: 281: TRISBbits.TRISB3=1;
  1265  0A5C  1592               	bsf	18,3	;volatile
  1266                           
  1267                           ;main.c: 282: CCPR1=200;
  1268  0A5D  3000               	movlw	0
  1269  0A5E  0146               	movlb	6	; select bank6
  1270  0A5F  008D               	movwf	13	;volatile
  1271  0A60  30C8               	movlw	200
  1272  0A61  008C               	movwf	12	;volatile
  1273                           
  1274                           ;main.c: 283: CCPR2=0;
  1275  0A62  0190               	clrf	16	;volatile
  1276  0A63  0191               	clrf	17	;volatile
  1277                           
  1278                           ;main.c: 284: CCPR3=200;
  1279  0A64  3000               	movlw	0
  1280  0A65  0095               	movwf	21	;volatile
  1281  0A66  30C8               	movlw	200
  1282  0A67  0094               	movwf	20	;volatile
  1283                           
  1284                           ;main.c: 285: CCPR4=0;
  1285  0A68  0198               	clrf	24	;volatile
  1286  0A69  0199               	clrf	25	;volatile
  1287                           
  1288                           ;main.c: 287: _delay((unsigned long)((1000)*(32000000/4000.0)));
  1289  0A6A  3029               	movlw	41
  1290  0A6B  0140               	movlb	0	; select bank0
  1291  0A6C  00E7               	movwf	??_main+1
  1292  0A6D  3096               	movlw	150
  1293  0A6E  00E6               	movwf	??_main
  1294  0A6F  307F               	movlw	127
  1295  0A70                     u1577:	
  1296  0A70  0B89               	decfsz	9,f
  1297  0A71  2A70               	goto	u1577
  1298  0A72  0BE6               	decfsz	??_main,f
  1299  0A73  2A70               	goto	u1577
  1300  0A74  0BE7               	decfsz	??_main+1,f
  1301  0A75  2A70               	goto	u1577
  1302  0A76                     l1628:	
  1303                           ;main.c: 288: while(1){
  1304                           
  1305                           
  1306                           ;main.c: 289: geterror();
  1307  0A76  3181  21D6  3189   	fcall	_geterror
  1308                           
  1309                           ;main.c: 290: formula();
  1310  0A79  318B  232E  3189   	fcall	_formula
  1311                           
  1312                           ;main.c: 291: errorant=error;
  1313  0A7C  0141               	movlb	1	; select bank1
  1314  0A7D  0860               	movf	(_error+1)^(0+128),w
  1315  0A7E  0140               	movlb	0	; select bank0
  1316  0A7F  00EE               	movwf	_errorant+1
  1317  0A80  0141               	movlb	1	; select bank1
  1318  0A81  085F               	movf	_error^(0+128),w
  1319  0A82  0140               	movlb	0	; select bank0
  1320  0A83  00ED               	movwf	_errorant
  1321  0A84  2A76               	goto	l1628
  1322  0A85                     __end_of_main:	
  1323                           ;main.c: 293: }
  1324                           ;main.c: 294: return (0);
  1325                           ;	Return value of _main is never used
  1326                           
  1327                           
  1328                           	psect	text1
  1329  01D6                     __ptext1:	
  1330 ;; *************** function _geterror *****************
  1331 ;; Defined at:
  1332 ;;		line 26 in file "main.c"
  1333 ;; Parameters:    Size  Location     Type
  1334 ;;		None
  1335 ;; Auto vars:     Size  Location     Type
  1336 ;;		None
  1337 ;; Return value:  Size  Location     Type
  1338 ;;                  1    wreg      void 
  1339 ;; Registers used:
  1340 ;;		wreg, status,2, status,0, pclath, cstack
  1341 ;; Tracked objects:
  1342 ;;		On entry : 0/0
  1343 ;;		On exit  : 0/0
  1344 ;;		Unchanged: 0/0
  1345 ;; Data sizes:     COMMON   BANK0   BANK1   BANK2   BANK3   BANK4   BANK5   BANK6   BANK7   BANK8   BANK9  BANK10  BANK1
      +1  BANK12  BANK13  BANK14  BANK15  BANK16  BANK17  BANK18  BANK19  BANK20  BANK21  BANK22  BANK23  BANK24  BANK25  BANK2
      +6  BANK27  BANK28  BANK29  BANK30  BANK31  BANK32  BANK33  BANK34  BANK35  BANK36  BANK37  BANK38  BANK39  BANK40  BANK4
      +1  BANK42  BANK43  BANK44  BANK45  BANK46  BANK47  BANK48  BANK49  BANK50
  1346 ;;      Params:         0       0       0       0       0       0       0       0       0       0       0       0       
      +0       0       0       0       0       0       0       0       0       0       0       0       0       0       0       
      +0       0       0       0       0       0       0       0       0       0       0       0       0       0       0       
      +0       0       0       0       0       0       0       0       0       0
  1347 ;;      Locals:         0       0      36       0       0       0       0       0       0       0       0       0       
      +0       0       0       0       0       0       0       0       0       0       0       0       0       0       0       
      +0       0       0       0       0       0       0       0       0       0       0       0       0       0       0       
      +0       0       0       0       0       0       0       0       0       0
  1348 ;;      Temps:          0       3       0       0       0       0       0       0       0       0       0       0       
      +0       0       0       0       0       0       0       0       0       0       0       0       0       0       0       
      +0       0       0       0       0       0       0       0       0       0       0       0       0       0       0       
      +0       0       0       0       0       0       0       0       0       0
  1349 ;;      Totals:         0       3      36       0       0       0       0       0       0       0       0       0       
      +0       0       0       0       0       0       0       0       0       0       0       0       0       0       0       
      +0       0       0       0       0       0       0       0       0       0       0       0       0       0       0       
      +0       0       0       0       0       0       0       0       0       0
  1350 ;;Total ram usage:       39 bytes
  1351 ;; Hardware stack levels used:    1
  1352 ;; Hardware stack levels required when called:    2
  1353 ;; This function calls:
  1354 ;;		___awtoft
  1355 ;;		___ftadd
  1356 ;;		___ftdiv
  1357 ;;		___ftmul
  1358 ;;		___fttol
  1359 ;; This function is called by:
  1360 ;;		_main
  1361 ;; This function uses a non-reentrant model
  1362 ;;
  1363                           
  1364                           
  1365                           ;psect for function _geterror
  1366  01D6                     _geterror:	
  1367                           
  1368                           ;main.c: 28: ADPCH=0b000000;
  1369                           
  1370                           ;incstack = 0
  1371                           ; Regs used in _geterror: [wreg+status,2+status,0+pclath+cstack]
  1372  01D6  0141               	movlb	1	; select bank1
  1373  01D7  019E               	clrf	30	;volatile
  1374                           
  1375                           ;main.c: 29: _delay((unsigned long)((20)*(32000000/4000000.0)));
  1376  01D8  3035               	movlw	53
  1377  01D9                     u1587:	
  1378  01D9  0B89               	decfsz	9,f
  1379  01DA  29D9               	goto	u1587
  1380  01DB  0000               	nop
  1381                           
  1382                           ;main.c: 30: ADCON0bits.ADGO=1;
  1383  01DC  0141               	movlb	1	; select bank1
  1384  01DD  1413               	bsf	19,0	;volatile
  1385  01DE                     l99:	
  1386                           ;main.c: 31: while(ADCON0bits.ADGO);
  1387                           
  1388  01DE  1813               	btfsc	19,0	;volatile
  1389  01DF  29DE               	goto	l99
  1390                           
  1391                           ;main.c: 32: adc=ADRESH;
  1392  01E0  080D               	movf	13,w	;volatile
  1393  01E1  0140               	movlb	0	; select bank0
  1394  01E2  00DE               	movwf	??_geterror
  1395  01E3  01DF               	clrf	??_geterror+1
  1396  01E4  085E               	movf	??_geterror,w
  1397  01E5  0141               	movlb	1	; select bank1
  1398  01E6  00DD               	movwf	_adc^(0+128)
  1399  01E7  0140               	movlb	0	; select bank0
  1400  01E8  085F               	movf	??_geterror+1,w
  1401  01E9  0141               	movlb	1	; select bank1
  1402  01EA  00DE               	movwf	(_adc+1)^(0+128)
  1403                           
  1404                           ;main.c: 33: adc=adc<<8;
  1405  01EB  085E               	movf	(_adc+1)^(0+128),w
  1406  01EC  0140               	movlb	0	; select bank0
  1407  01ED  00DF               	movwf	??_geterror+1
  1408  01EE  0141               	movlb	1	; select bank1
  1409  01EF  085D               	movf	_adc^(0+128),w
  1410  01F0  0140               	movlb	0	; select bank0
  1411  01F1  00DE               	movwf	??_geterror
  1412  01F2  085E               	movf	??_geterror,w
  1413  01F3  00DF               	movwf	??_geterror+1
  1414  01F4  01DE               	clrf	??_geterror
  1415  01F5  085E               	movf	??_geterror,w
  1416  01F6  0141               	movlb	1	; select bank1
  1417  01F7  00DD               	movwf	_adc^(0+128)
  1418  01F8  0140               	movlb	0	; select bank0
  1419  01F9  085F               	movf	??_geterror+1,w
  1420  01FA  0141               	movlb	1	; select bank1
  1421  01FB  00DE               	movwf	(_adc+1)^(0+128)
  1422                           
  1423                           ;main.c: 34: adc=adc+ADRESL;
  1424  01FC  080C               	movf	12,w	;volatile
  1425  01FD  075D               	addwf	_adc^(0+128),w
  1426  01FE  0140               	movlb	0	; select bank0
  1427  01FF  00DE               	movwf	??_geterror
  1428  0200  0141               	movlb	1	; select bank1
  1429  0201  085E               	movf	(_adc+1)^(0+128),w
  1430  0202  1803               	skipnc
  1431  0203  0A5E               	incf	(_adc+1)^(0+128),w
  1432  0204  0140               	movlb	0	; select bank0
  1433  0205  00DF               	movwf	??_geterror+1
  1434  0206  085E               	movf	??_geterror,w
  1435  0207  0141               	movlb	1	; select bank1
  1436  0208  00DD               	movwf	_adc^(0+128)
  1437  0209  0140               	movlb	0	; select bank0
  1438  020A  085F               	movf	??_geterror+1,w
  1439  020B  0141               	movlb	1	; select bank1
  1440  020C  00DE               	movwf	(_adc+1)^(0+128)
  1441                           
  1442                           ;main.c: 35: v0=adc*5.0/1023.0;
  1443  020D  30C0               	movlw	192
  1444  020E  0140               	movlb	0	; select bank0
  1445  020F  00C0               	movwf	___ftdiv@f2
  1446  0210  307F               	movlw	127
  1447  0211  00C1               	movwf	___ftdiv@f2+1
  1448  0212  3044               	movlw	68
  1449  0213  00C2               	movwf	___ftdiv@f2+2
  1450  0214  3000               	movlw	0
  1451  0215  00A3               	movwf	___ftmul@f1
  1452  0216  30A0               	movlw	160
  1453  0217  00A4               	movwf	___ftmul@f1+1
  1454  0218  3040               	movlw	64
  1455  0219  00A5               	movwf	___ftmul@f1+2
  1456  021A  0141               	movlb	1	; select bank1
  1457  021B  085E               	movf	(_adc+1)^(0+128),w
  1458  021C  00F9               	movwf	___awtoft@c+1
  1459  021D  085D               	movf	_adc^(0+128),w
  1460  021E  00F8               	movwf	___awtoft@c
  1461  021F  3180  200C  3181   	fcall	___awtoft
  1462  0222  0878               	movf	?___awtoft,w
  1463  0223  0140               	movlb	0	; select bank0
  1464  0224  00A6               	movwf	___ftmul@f2
  1465  0225  0879               	movf	?___awtoft+1,w
  1466  0226  00A7               	movwf	___ftmul@f2+1
  1467  0227  087A               	movf	?___awtoft+2,w
  1468  0228  00A8               	movwf	___ftmul@f2+2
  1469  0229  3180  202C  3181   	fcall	___ftmul
  1470  022C  0140               	movlb	0	; select bank0
  1471  022D  0823               	movf	?___ftmul,w
  1472  022E  00C3               	movwf	___ftdiv@f1
  1473  022F  0824               	movf	?___ftmul+1,w
  1474  0230  00C4               	movwf	___ftdiv@f1+1
  1475  0231  0825               	movf	?___ftmul+2,w
  1476  0232  00C5               	movwf	___ftdiv@f1+2
  1477  0233  318A  2285  3181   	fcall	___ftdiv
  1478  0236  0140               	movlb	0	; select bank0
  1479  0237  0840               	movf	?___ftdiv,w
  1480  0238  0141               	movlb	1	; select bank1
  1481  0239  00E1               	movwf	_v0^(0+128)
  1482  023A  0140               	movlb	0	; select bank0
  1483  023B  0841               	movf	?___ftdiv+1,w
  1484  023C  0141               	movlb	1	; select bank1
  1485  023D  00E2               	movwf	(_v0+1)^(0+128)
  1486  023E  0140               	movlb	0	; select bank0
  1487  023F  0842               	movf	?___ftdiv+2,w
  1488  0240  0141               	movlb	1	; select bank1
  1489  0241  00E3               	movwf	(_v0+2)^(0+128)
  1490                           
  1491                           ;main.c: 38: ADPCH=0b000001;
  1492  0242  3001               	movlw	1
  1493  0243  009E               	movwf	30	;volatile
  1494                           
  1495                           ;main.c: 39: _delay((unsigned long)((20)*(32000000/4000000.0)));
  1496  0244  3035               	movlw	53
  1497  0245                     u1597:	
  1498  0245  0B89               	decfsz	9,f
  1499  0246  2A45               	goto	u1597
  1500  0247  0000               	nop
  1501                           
  1502                           ;main.c: 40: ADCON0bits.ADGO=1;
  1503  0248  0141               	movlb	1	; select bank1
  1504  0249  1413               	bsf	19,0	;volatile
  1505  024A                     l102:	
  1506                           ;main.c: 41: while(ADCON0bits.ADGO);
  1507                           
  1508  024A  1813               	btfsc	19,0	;volatile
  1509  024B  2A4A               	goto	l102
  1510                           
  1511                           ;main.c: 42: adc=ADRESH;
  1512  024C  080D               	movf	13,w	;volatile
  1513  024D  0140               	movlb	0	; select bank0
  1514  024E  00DE               	movwf	??_geterror
  1515  024F  01DF               	clrf	??_geterror+1
  1516  0250  085E               	movf	??_geterror,w
  1517  0251  0141               	movlb	1	; select bank1
  1518  0252  00DD               	movwf	_adc^(0+128)
  1519  0253  0140               	movlb	0	; select bank0
  1520  0254  085F               	movf	??_geterror+1,w
  1521  0255  0141               	movlb	1	; select bank1
  1522  0256  00DE               	movwf	(_adc+1)^(0+128)
  1523                           
  1524                           ;main.c: 43: adc=adc<<8;
  1525  0257  085E               	movf	(_adc+1)^(0+128),w
  1526  0258  0140               	movlb	0	; select bank0
  1527  0259  00DF               	movwf	??_geterror+1
  1528  025A  0141               	movlb	1	; select bank1
  1529  025B  085D               	movf	_adc^(0+128),w
  1530  025C  0140               	movlb	0	; select bank0
  1531  025D  00DE               	movwf	??_geterror
  1532  025E  085E               	movf	??_geterror,w
  1533  025F  00DF               	movwf	??_geterror+1
  1534  0260  01DE               	clrf	??_geterror
  1535  0261  085E               	movf	??_geterror,w
  1536  0262  0141               	movlb	1	; select bank1
  1537  0263  00DD               	movwf	_adc^(0+128)
  1538  0264  0140               	movlb	0	; select bank0
  1539  0265  085F               	movf	??_geterror+1,w
  1540  0266  0141               	movlb	1	; select bank1
  1541  0267  00DE               	movwf	(_adc+1)^(0+128)
  1542                           
  1543                           ;main.c: 44: adc=adc+ADRESL;
  1544  0268  080C               	movf	12,w	;volatile
  1545  0269  075D               	addwf	_adc^(0+128),w
  1546  026A  0140               	movlb	0	; select bank0
  1547  026B  00DE               	movwf	??_geterror
  1548  026C  0141               	movlb	1	; select bank1
  1549  026D  085E               	movf	(_adc+1)^(0+128),w
  1550  026E  1803               	skipnc
  1551  026F  0A5E               	incf	(_adc+1)^(0+128),w
  1552  0270  0140               	movlb	0	; select bank0
  1553  0271  00DF               	movwf	??_geterror+1
  1554  0272  085E               	movf	??_geterror,w
  1555  0273  0141               	movlb	1	; select bank1
  1556  0274  00DD               	movwf	_adc^(0+128)
  1557  0275  0140               	movlb	0	; select bank0
  1558  0276  085F               	movf	??_geterror+1,w
  1559  0277  0141               	movlb	1	; select bank1
  1560  0278  00DE               	movwf	(_adc+1)^(0+128)
  1561                           
  1562                           ;main.c: 45: v1=adc*5.0/1023.0;
  1563  0279  30C0               	movlw	192
  1564  027A  0140               	movlb	0	; select bank0
  1565  027B  00C0               	movwf	___ftdiv@f2
  1566  027C  307F               	movlw	127
  1567  027D  00C1               	movwf	___ftdiv@f2+1
  1568  027E  3044               	movlw	68
  1569  027F  00C2               	movwf	___ftdiv@f2+2
  1570  0280  3000               	movlw	0
  1571  0281  00A3               	movwf	___ftmul@f1
  1572  0282  30A0               	movlw	160
  1573  0283  00A4               	movwf	___ftmul@f1+1
  1574  0284  3040               	movlw	64
  1575  0285  00A5               	movwf	___ftmul@f1+2
  1576  0286  0141               	movlb	1	; select bank1
  1577  0287  085E               	movf	(_adc+1)^(0+128),w
  1578  0288  00F9               	movwf	___awtoft@c+1
  1579  0289  085D               	movf	_adc^(0+128),w
  1580  028A  00F8               	movwf	___awtoft@c
  1581  028B  3180  200C  3181   	fcall	___awtoft
  1582  028E  0878               	movf	?___awtoft,w
  1583  028F  0140               	movlb	0	; select bank0
  1584  0290  00A6               	movwf	___ftmul@f2
  1585  0291  0879               	movf	?___awtoft+1,w
  1586  0292  00A7               	movwf	___ftmul@f2+1
  1587  0293  087A               	movf	?___awtoft+2,w
  1588  0294  00A8               	movwf	___ftmul@f2+2
  1589  0295  3180  202C  3181   	fcall	___ftmul
  1590  0298  0140               	movlb	0	; select bank0
  1591  0299  0823               	movf	?___ftmul,w
  1592  029A  00C3               	movwf	___ftdiv@f1
  1593  029B  0824               	movf	?___ftmul+1,w
  1594  029C  00C4               	movwf	___ftdiv@f1+1
  1595  029D  0825               	movf	?___ftmul+2,w
  1596  029E  00C5               	movwf	___ftdiv@f1+2
  1597  029F  318A  2285  3181   	fcall	___ftdiv
  1598  02A2  0140               	movlb	0	; select bank0
  1599  02A3  0840               	movf	?___ftdiv,w
  1600  02A4  0141               	movlb	1	; select bank1
  1601  02A5  00DA               	movwf	_v1^(0+128)
  1602  02A6  0140               	movlb	0	; select bank0
  1603  02A7  0841               	movf	?___ftdiv+1,w
  1604  02A8  0141               	movlb	1	; select bank1
  1605  02A9  00DB               	movwf	(_v1+1)^(0+128)
  1606  02AA  0140               	movlb	0	; select bank0
  1607  02AB  0842               	movf	?___ftdiv+2,w
  1608  02AC  0141               	movlb	1	; select bank1
  1609  02AD  00DC               	movwf	(_v1+2)^(0+128)
  1610                           
  1611                           ;main.c: 48: ADPCH=0b000010;
  1612  02AE  3002               	movlw	2
  1613  02AF  009E               	movwf	30	;volatile
  1614                           
  1615                           ;main.c: 49: _delay((unsigned long)((20)*(32000000/4000000.0)));
  1616  02B0  3035               	movlw	53
  1617  02B1                     u1607:	
  1618  02B1  0B89               	decfsz	9,f
  1619  02B2  2AB1               	goto	u1607
  1620  02B3  0000               	nop
  1621                           
  1622                           ;main.c: 50: ADCON0bits.ADGO=1;
  1623  02B4  0141               	movlb	1	; select bank1
  1624  02B5  1413               	bsf	19,0	;volatile
  1625  02B6                     l105:	
  1626                           ;main.c: 51: while(ADCON0bits.ADGO);
  1627                           
  1628  02B6  1813               	btfsc	19,0	;volatile
  1629  02B7  2AB6               	goto	l105
  1630                           
  1631                           ;main.c: 52: adc=ADRESH;
  1632  02B8  080D               	movf	13,w	;volatile
  1633  02B9  0140               	movlb	0	; select bank0
  1634  02BA  00DE               	movwf	??_geterror
  1635  02BB  01DF               	clrf	??_geterror+1
  1636  02BC  085E               	movf	??_geterror,w
  1637  02BD  0141               	movlb	1	; select bank1
  1638  02BE  00DD               	movwf	_adc^(0+128)
  1639  02BF  0140               	movlb	0	; select bank0
  1640  02C0  085F               	movf	??_geterror+1,w
  1641  02C1  0141               	movlb	1	; select bank1
  1642  02C2  00DE               	movwf	(_adc+1)^(0+128)
  1643                           
  1644                           ;main.c: 53: adc=adc<<8;
  1645  02C3  085E               	movf	(_adc+1)^(0+128),w
  1646  02C4  0140               	movlb	0	; select bank0
  1647  02C5  00DF               	movwf	??_geterror+1
  1648  02C6  0141               	movlb	1	; select bank1
  1649  02C7  085D               	movf	_adc^(0+128),w
  1650  02C8  0140               	movlb	0	; select bank0
  1651  02C9  00DE               	movwf	??_geterror
  1652  02CA  085E               	movf	??_geterror,w
  1653  02CB  00DF               	movwf	??_geterror+1
  1654  02CC  01DE               	clrf	??_geterror
  1655  02CD  085E               	movf	??_geterror,w
  1656  02CE  0141               	movlb	1	; select bank1
  1657  02CF  00DD               	movwf	_adc^(0+128)
  1658  02D0  0140               	movlb	0	; select bank0
  1659  02D1  085F               	movf	??_geterror+1,w
  1660  02D2  0141               	movlb	1	; select bank1
  1661  02D3  00DE               	movwf	(_adc+1)^(0+128)
  1662                           
  1663                           ;main.c: 54: adc=adc+ADRESL;
  1664  02D4  080C               	movf	12,w	;volatile
  1665  02D5  075D               	addwf	_adc^(0+128),w
  1666  02D6  0140               	movlb	0	; select bank0
  1667  02D7  00DE               	movwf	??_geterror
  1668  02D8  0141               	movlb	1	; select bank1
  1669  02D9  085E               	movf	(_adc+1)^(0+128),w
  1670  02DA  1803               	skipnc
  1671  02DB  0A5E               	incf	(_adc+1)^(0+128),w
  1672  02DC  0140               	movlb	0	; select bank0
  1673  02DD  00DF               	movwf	??_geterror+1
  1674  02DE  085E               	movf	??_geterror,w
  1675  02DF  0141               	movlb	1	; select bank1
  1676  02E0  00DD               	movwf	_adc^(0+128)
  1677  02E1  0140               	movlb	0	; select bank0
  1678  02E2  085F               	movf	??_geterror+1,w
  1679  02E3  0141               	movlb	1	; select bank1
  1680  02E4  00DE               	movwf	(_adc+1)^(0+128)
  1681                           
  1682                           ;main.c: 55: v2=adc*5.0/1023.0;
  1683  02E5  30C0               	movlw	192
  1684  02E6  0140               	movlb	0	; select bank0
  1685  02E7  00C0               	movwf	___ftdiv@f2
  1686  02E8  307F               	movlw	127
  1687  02E9  00C1               	movwf	___ftdiv@f2+1
  1688  02EA  3044               	movlw	68
  1689  02EB  00C2               	movwf	___ftdiv@f2+2
  1690  02EC  3000               	movlw	0
  1691  02ED  00A3               	movwf	___ftmul@f1
  1692  02EE  30A0               	movlw	160
  1693  02EF  00A4               	movwf	___ftmul@f1+1
  1694  02F0  3040               	movlw	64
  1695  02F1  00A5               	movwf	___ftmul@f1+2
  1696  02F2  0141               	movlb	1	; select bank1
  1697  02F3  085E               	movf	(_adc+1)^(0+128),w
  1698  02F4  00F9               	movwf	___awtoft@c+1
  1699  02F5  085D               	movf	_adc^(0+128),w
  1700  02F6  00F8               	movwf	___awtoft@c
  1701  02F7  3180  200C  3181   	fcall	___awtoft
  1702  02FA  0878               	movf	?___awtoft,w
  1703  02FB  0140               	movlb	0	; select bank0
  1704  02FC  00A6               	movwf	___ftmul@f2
  1705  02FD  0879               	movf	?___awtoft+1,w
  1706  02FE  00A7               	movwf	___ftmul@f2+1
  1707  02FF  087A               	movf	?___awtoft+2,w
  1708  0300  00A8               	movwf	___ftmul@f2+2
  1709  0301  3180  202C  3181   	fcall	___ftmul
  1710  0304  0140               	movlb	0	; select bank0
  1711  0305  0823               	movf	?___ftmul,w
  1712  0306  00C3               	movwf	___ftdiv@f1
  1713  0307  0824               	movf	?___ftmul+1,w
  1714  0308  00C4               	movwf	___ftdiv@f1+1
  1715  0309  0825               	movf	?___ftmul+2,w
  1716  030A  00C5               	movwf	___ftdiv@f1+2
  1717  030B  318A  2285  3181   	fcall	___ftdiv
  1718  030E  0140               	movlb	0	; select bank0
  1719  030F  0840               	movf	?___ftdiv,w
  1720  0310  0141               	movlb	1	; select bank1
  1721  0311  00D7               	movwf	_v2^(0+128)
  1722  0312  0140               	movlb	0	; select bank0
  1723  0313  0841               	movf	?___ftdiv+1,w
  1724  0314  0141               	movlb	1	; select bank1
  1725  0315  00D8               	movwf	(_v2+1)^(0+128)
  1726  0316  0140               	movlb	0	; select bank0
  1727  0317  0842               	movf	?___ftdiv+2,w
  1728  0318  0141               	movlb	1	; select bank1
  1729  0319  00D9               	movwf	(_v2+2)^(0+128)
  1730                           
  1731                           ;main.c: 58: ADPCH=0b000011;
  1732  031A  3003               	movlw	3
  1733  031B  009E               	movwf	30	;volatile
  1734                           
  1735                           ;main.c: 59: _delay((unsigned long)((20)*(32000000/4000000.0)));
  1736  031C  3035               	movlw	53
  1737  031D                     u1617:	
  1738  031D  0B89               	decfsz	9,f
  1739  031E  2B1D               	goto	u1617
  1740  031F  0000               	nop
  1741                           
  1742                           ;main.c: 60: ADCON0bits.ADGO=1;
  1743  0320  0141               	movlb	1	; select bank1
  1744  0321  1413               	bsf	19,0	;volatile
  1745  0322                     l108:	
  1746                           ;main.c: 61: while(ADCON0bits.ADGO);
  1747                           
  1748  0322  1813               	btfsc	19,0	;volatile
  1749  0323  2B22               	goto	l108
  1750                           
  1751                           ;main.c: 62: adc=ADRESH;
  1752  0324  080D               	movf	13,w	;volatile
  1753  0325  0140               	movlb	0	; select bank0
  1754  0326  00DE               	movwf	??_geterror
  1755  0327  01DF               	clrf	??_geterror+1
  1756  0328  085E               	movf	??_geterror,w
  1757  0329  0141               	movlb	1	; select bank1
  1758  032A  00DD               	movwf	_adc^(0+128)
  1759  032B  0140               	movlb	0	; select bank0
  1760  032C  085F               	movf	??_geterror+1,w
  1761  032D  0141               	movlb	1	; select bank1
  1762  032E  00DE               	movwf	(_adc+1)^(0+128)
  1763                           
  1764                           ;main.c: 63: adc=adc<<8;
  1765  032F  085E               	movf	(_adc+1)^(0+128),w
  1766  0330  0140               	movlb	0	; select bank0
  1767  0331  00DF               	movwf	??_geterror+1
  1768  0332  0141               	movlb	1	; select bank1
  1769  0333  085D               	movf	_adc^(0+128),w
  1770  0334  0140               	movlb	0	; select bank0
  1771  0335  00DE               	movwf	??_geterror
  1772  0336  085E               	movf	??_geterror,w
  1773  0337  00DF               	movwf	??_geterror+1
  1774  0338  01DE               	clrf	??_geterror
  1775  0339  085E               	movf	??_geterror,w
  1776  033A  0141               	movlb	1	; select bank1
  1777  033B  00DD               	movwf	_adc^(0+128)
  1778  033C  0140               	movlb	0	; select bank0
  1779  033D  085F               	movf	??_geterror+1,w
  1780  033E  0141               	movlb	1	; select bank1
  1781  033F  00DE               	movwf	(_adc+1)^(0+128)
  1782                           
  1783                           ;main.c: 64: adc=adc+ADRESL;
  1784  0340  080C               	movf	12,w	;volatile
  1785  0341  075D               	addwf	_adc^(0+128),w
  1786  0342  0140               	movlb	0	; select bank0
  1787  0343  00DE               	movwf	??_geterror
  1788  0344  0141               	movlb	1	; select bank1
  1789  0345  085E               	movf	(_adc+1)^(0+128),w
  1790  0346  1803               	skipnc
  1791  0347  0A5E               	incf	(_adc+1)^(0+128),w
  1792  0348  0140               	movlb	0	; select bank0
  1793  0349  00DF               	movwf	??_geterror+1
  1794  034A  085E               	movf	??_geterror,w
  1795  034B  0141               	movlb	1	; select bank1
  1796  034C  00DD               	movwf	_adc^(0+128)
  1797  034D  0140               	movlb	0	; select bank0
  1798  034E  085F               	movf	??_geterror+1,w
  1799  034F  0141               	movlb	1	; select bank1
  1800  0350  00DE               	movwf	(_adc+1)^(0+128)
  1801                           
  1802                           ;main.c: 65: v3=adc*5.0/1023.0;
  1803  0351  30C0               	movlw	192
  1804  0352  0140               	movlb	0	; select bank0
  1805  0353  00C0               	movwf	___ftdiv@f2
  1806  0354  307F               	movlw	127
  1807  0355  00C1               	movwf	___ftdiv@f2+1
  1808  0356  3044               	movlw	68
  1809  0357  00C2               	movwf	___ftdiv@f2+2
  1810  0358  3000               	movlw	0
  1811  0359  00A3               	movwf	___ftmul@f1
  1812  035A  30A0               	movlw	160
  1813  035B  00A4               	movwf	___ftmul@f1+1
  1814  035C  3040               	movlw	64
  1815  035D  00A5               	movwf	___ftmul@f1+2
  1816  035E  0141               	movlb	1	; select bank1
  1817  035F  085E               	movf	(_adc+1)^(0+128),w
  1818  0360  00F9               	movwf	___awtoft@c+1
  1819  0361  085D               	movf	_adc^(0+128),w
  1820  0362  00F8               	movwf	___awtoft@c
  1821  0363  3180  200C  3181   	fcall	___awtoft
  1822  0366  0878               	movf	?___awtoft,w
  1823  0367  0140               	movlb	0	; select bank0
  1824  0368  00A6               	movwf	___ftmul@f2
  1825  0369  0879               	movf	?___awtoft+1,w
  1826  036A  00A7               	movwf	___ftmul@f2+1
  1827  036B  087A               	movf	?___awtoft+2,w
  1828  036C  00A8               	movwf	___ftmul@f2+2
  1829  036D  3180  202C  3181   	fcall	___ftmul
  1830  0370  0140               	movlb	0	; select bank0
  1831  0371  0823               	movf	?___ftmul,w
  1832  0372  00C3               	movwf	___ftdiv@f1
  1833  0373  0824               	movf	?___ftmul+1,w
  1834  0374  00C4               	movwf	___ftdiv@f1+1
  1835  0375  0825               	movf	?___ftmul+2,w
  1836  0376  00C5               	movwf	___ftdiv@f1+2
  1837  0377  318A  2285  3181   	fcall	___ftdiv
  1838  037A  0140               	movlb	0	; select bank0
  1839  037B  0840               	movf	?___ftdiv,w
  1840  037C  0141               	movlb	1	; select bank1
  1841  037D  00D4               	movwf	_v3^(0+128)
  1842  037E  0140               	movlb	0	; select bank0
  1843  037F  0841               	movf	?___ftdiv+1,w
  1844  0380  0141               	movlb	1	; select bank1
  1845  0381  00D5               	movwf	(_v3+1)^(0+128)
  1846  0382  0140               	movlb	0	; select bank0
  1847  0383  0842               	movf	?___ftdiv+2,w
  1848  0384  0141               	movlb	1	; select bank1
  1849  0385  00D6               	movwf	(_v3+2)^(0+128)
  1850                           
  1851                           ;main.c: 68: ADPCH=0b000100;
  1852  0386  3004               	movlw	4
  1853  0387  009E               	movwf	30	;volatile
  1854                           
  1855                           ;main.c: 69: _delay((unsigned long)((20)*(32000000/4000000.0)));
  1856  0388  3035               	movlw	53
  1857  0389                     u1627:	
  1858  0389  0B89               	decfsz	9,f
  1859  038A  2B89               	goto	u1627
  1860  038B  0000               	nop
  1861                           
  1862                           ;main.c: 70: ADCON0bits.ADGO=1;
  1863  038C  0141               	movlb	1	; select bank1
  1864  038D  1413               	bsf	19,0	;volatile
  1865  038E                     l111:	
  1866                           ;main.c: 71: while(ADCON0bits.ADGO);
  1867                           
  1868  038E  1813               	btfsc	19,0	;volatile
  1869  038F  2B8E               	goto	l111
  1870                           
  1871                           ;main.c: 72: adc=ADRESH;
  1872  0390  080D               	movf	13,w	;volatile
  1873  0391  0140               	movlb	0	; select bank0
  1874  0392  00DE               	movwf	??_geterror
  1875  0393  01DF               	clrf	??_geterror+1
  1876  0394  085E               	movf	??_geterror,w
  1877  0395  0141               	movlb	1	; select bank1
  1878  0396  00DD               	movwf	_adc^(0+128)
  1879  0397  0140               	movlb	0	; select bank0
  1880  0398  085F               	movf	??_geterror+1,w
  1881  0399  0141               	movlb	1	; select bank1
  1882  039A  00DE               	movwf	(_adc+1)^(0+128)
  1883                           
  1884                           ;main.c: 73: adc=adc<<8;
  1885  039B  085E               	movf	(_adc+1)^(0+128),w
  1886  039C  0140               	movlb	0	; select bank0
  1887  039D  00DF               	movwf	??_geterror+1
  1888  039E  0141               	movlb	1	; select bank1
  1889  039F  085D               	movf	_adc^(0+128),w
  1890  03A0  0140               	movlb	0	; select bank0
  1891  03A1  00DE               	movwf	??_geterror
  1892  03A2  085E               	movf	??_geterror,w
  1893  03A3  00DF               	movwf	??_geterror+1
  1894  03A4  01DE               	clrf	??_geterror
  1895  03A5  085E               	movf	??_geterror,w
  1896  03A6  0141               	movlb	1	; select bank1
  1897  03A7  00DD               	movwf	_adc^(0+128)
  1898  03A8  0140               	movlb	0	; select bank0
  1899  03A9  085F               	movf	??_geterror+1,w
  1900  03AA  0141               	movlb	1	; select bank1
  1901  03AB  00DE               	movwf	(_adc+1)^(0+128)
  1902                           
  1903                           ;main.c: 74: adc=adc+ADRESL;
  1904  03AC  080C               	movf	12,w	;volatile
  1905  03AD  075D               	addwf	_adc^(0+128),w
  1906  03AE  0140               	movlb	0	; select bank0
  1907  03AF  00DE               	movwf	??_geterror
  1908  03B0  0141               	movlb	1	; select bank1
  1909  03B1  085E               	movf	(_adc+1)^(0+128),w
  1910  03B2  1803               	skipnc
  1911  03B3  0A5E               	incf	(_adc+1)^(0+128),w
  1912  03B4  0140               	movlb	0	; select bank0
  1913  03B5  00DF               	movwf	??_geterror+1
  1914  03B6  085E               	movf	??_geterror,w
  1915  03B7  0141               	movlb	1	; select bank1
  1916  03B8  00DD               	movwf	_adc^(0+128)
  1917  03B9  0140               	movlb	0	; select bank0
  1918  03BA  085F               	movf	??_geterror+1,w
  1919  03BB  0141               	movlb	1	; select bank1
  1920  03BC  00DE               	movwf	(_adc+1)^(0+128)
  1921                           
  1922                           ;main.c: 75: v4=adc*5.0/1023.0;
  1923  03BD  30C0               	movlw	192
  1924  03BE  0140               	movlb	0	; select bank0
  1925  03BF  00C0               	movwf	___ftdiv@f2
  1926  03C0  307F               	movlw	127
  1927  03C1  00C1               	movwf	___ftdiv@f2+1
  1928  03C2  3044               	movlw	68
  1929  03C3  00C2               	movwf	___ftdiv@f2+2
  1930  03C4  3000               	movlw	0
  1931  03C5  00A3               	movwf	___ftmul@f1
  1932  03C6  30A0               	movlw	160
  1933  03C7  00A4               	movwf	___ftmul@f1+1
  1934  03C8  3040               	movlw	64
  1935  03C9  00A5               	movwf	___ftmul@f1+2
  1936  03CA  0141               	movlb	1	; select bank1
  1937  03CB  085E               	movf	(_adc+1)^(0+128),w
  1938  03CC  00F9               	movwf	___awtoft@c+1
  1939  03CD  085D               	movf	_adc^(0+128),w
  1940  03CE  00F8               	movwf	___awtoft@c
  1941  03CF  3180  200C  3181   	fcall	___awtoft
  1942  03D2  0878               	movf	?___awtoft,w
  1943  03D3  0140               	movlb	0	; select bank0
  1944  03D4  00A6               	movwf	___ftmul@f2
  1945  03D5  0879               	movf	?___awtoft+1,w
  1946  03D6  00A7               	movwf	___ftmul@f2+1
  1947  03D7  087A               	movf	?___awtoft+2,w
  1948  03D8  00A8               	movwf	___ftmul@f2+2
  1949  03D9  3180  202C  3181   	fcall	___ftmul
  1950  03DC  0140               	movlb	0	; select bank0
  1951  03DD  0823               	movf	?___ftmul,w
  1952  03DE  00C3               	movwf	___ftdiv@f1
  1953  03DF  0824               	movf	?___ftmul+1,w
  1954  03E0  00C4               	movwf	___ftdiv@f1+1
  1955  03E1  0825               	movf	?___ftmul+2,w
  1956  03E2  00C5               	movwf	___ftdiv@f1+2
  1957  03E3  318A  2285  3181   	fcall	___ftdiv
  1958  03E6  0140               	movlb	0	; select bank0
  1959  03E7  0840               	movf	?___ftdiv,w
  1960  03E8  0141               	movlb	1	; select bank1
  1961  03E9  00D1               	movwf	_v4^(0+128)
  1962  03EA  0140               	movlb	0	; select bank0
  1963  03EB  0841               	movf	?___ftdiv+1,w
  1964  03EC  0141               	movlb	1	; select bank1
  1965  03ED  00D2               	movwf	(_v4+1)^(0+128)
  1966  03EE  0140               	movlb	0	; select bank0
  1967  03EF  0842               	movf	?___ftdiv+2,w
  1968  03F0  0141               	movlb	1	; select bank1
  1969  03F1  00D3               	movwf	(_v4+2)^(0+128)
  1970                           
  1971                           ;main.c: 78: ADPCH=0b000101;
  1972  03F2  3005               	movlw	5
  1973  03F3  009E               	movwf	30	;volatile
  1974                           
  1975                           ;main.c: 79: _delay((unsigned long)((20)*(32000000/4000000.0)));
  1976  03F4  3035               	movlw	53
  1977  03F5                     u1637:	
  1978  03F5  0B89               	decfsz	9,f
  1979  03F6  2BF5               	goto	u1637
  1980  03F7  0000               	nop
  1981                           
  1982                           ;main.c: 80: ADCON0bits.ADGO=1;
  1983  03F8  0141               	movlb	1	; select bank1
  1984  03F9  1413               	bsf	19,0	;volatile
  1985  03FA                     l114:	
  1986                           ;main.c: 81: while(ADCON0bits.ADGO);
  1987                           
  1988  03FA  1813               	btfsc	19,0	;volatile
  1989  03FB  2BFA               	goto	l114
  1990                           
  1991                           ;main.c: 82: adc=ADRESH;
  1992  03FC  080D               	movf	13,w	;volatile
  1993  03FD  0140               	movlb	0	; select bank0
  1994  03FE  00DE               	movwf	??_geterror
  1995  03FF  01DF               	clrf	??_geterror+1
  1996  0400  085E               	movf	??_geterror,w
  1997  0401  0141               	movlb	1	; select bank1
  1998  0402  00DD               	movwf	_adc^(0+128)
  1999  0403  0140               	movlb	0	; select bank0
  2000  0404  085F               	movf	??_geterror+1,w
  2001  0405  0141               	movlb	1	; select bank1
  2002  0406  00DE               	movwf	(_adc+1)^(0+128)
  2003                           
  2004                           ;main.c: 83: adc=adc<<8;
  2005  0407  085E               	movf	(_adc+1)^(0+128),w
  2006  0408  0140               	movlb	0	; select bank0
  2007  0409  00DF               	movwf	??_geterror+1
  2008  040A  0141               	movlb	1	; select bank1
  2009  040B  085D               	movf	_adc^(0+128),w
  2010  040C  0140               	movlb	0	; select bank0
  2011  040D  00DE               	movwf	??_geterror
  2012  040E  085E               	movf	??_geterror,w
  2013  040F  00DF               	movwf	??_geterror+1
  2014  0410  01DE               	clrf	??_geterror
  2015  0411  085E               	movf	??_geterror,w
  2016  0412  0141               	movlb	1	; select bank1
  2017  0413  00DD               	movwf	_adc^(0+128)
  2018  0414  0140               	movlb	0	; select bank0
  2019  0415  085F               	movf	??_geterror+1,w
  2020  0416  0141               	movlb	1	; select bank1
  2021  0417  00DE               	movwf	(_adc+1)^(0+128)
  2022                           
  2023                           ;main.c: 84: adc=adc+ADRESL;
  2024  0418  080C               	movf	12,w	;volatile
  2025  0419  075D               	addwf	_adc^(0+128),w
  2026  041A  0140               	movlb	0	; select bank0
  2027  041B  00DE               	movwf	??_geterror
  2028  041C  0141               	movlb	1	; select bank1
  2029  041D  085E               	movf	(_adc+1)^(0+128),w
  2030  041E  1803               	skipnc
  2031  041F  0A5E               	incf	(_adc+1)^(0+128),w
  2032  0420  0140               	movlb	0	; select bank0
  2033  0421  00DF               	movwf	??_geterror+1
  2034  0422  085E               	movf	??_geterror,w
  2035  0423  0141               	movlb	1	; select bank1
  2036  0424  00DD               	movwf	_adc^(0+128)
  2037  0425  0140               	movlb	0	; select bank0
  2038  0426  085F               	movf	??_geterror+1,w
  2039  0427  0141               	movlb	1	; select bank1
  2040  0428  00DE               	movwf	(_adc+1)^(0+128)
  2041                           
  2042                           ;main.c: 85: v5=adc*5.0/1023.0;
  2043  0429  30C0               	movlw	192
  2044  042A  0140               	movlb	0	; select bank0
  2045  042B  00C0               	movwf	___ftdiv@f2
  2046  042C  307F               	movlw	127
  2047  042D  00C1               	movwf	___ftdiv@f2+1
  2048  042E  3044               	movlw	68
  2049  042F  00C2               	movwf	___ftdiv@f2+2
  2050  0430  3000               	movlw	0
  2051  0431  00A3               	movwf	___ftmul@f1
  2052  0432  30A0               	movlw	160
  2053  0433  00A4               	movwf	___ftmul@f1+1
  2054  0434  3040               	movlw	64
  2055  0435  00A5               	movwf	___ftmul@f1+2
  2056  0436  0141               	movlb	1	; select bank1
  2057  0437  085E               	movf	(_adc+1)^(0+128),w
  2058  0438  00F9               	movwf	___awtoft@c+1
  2059  0439  085D               	movf	_adc^(0+128),w
  2060  043A  00F8               	movwf	___awtoft@c
  2061  043B  3180  200C  3181   	fcall	___awtoft
  2062  043E  0878               	movf	?___awtoft,w
  2063  043F  0140               	movlb	0	; select bank0
  2064  0440  00A6               	movwf	___ftmul@f2
  2065  0441  0879               	movf	?___awtoft+1,w
  2066  0442  00A7               	movwf	___ftmul@f2+1
  2067  0443  087A               	movf	?___awtoft+2,w
  2068  0444  00A8               	movwf	___ftmul@f2+2
  2069  0445  3180  202C  3181   	fcall	___ftmul
  2070  0448  0140               	movlb	0	; select bank0
  2071  0449  0823               	movf	?___ftmul,w
  2072  044A  00C3               	movwf	___ftdiv@f1
  2073  044B  0824               	movf	?___ftmul+1,w
  2074  044C  00C4               	movwf	___ftdiv@f1+1
  2075  044D  0825               	movf	?___ftmul+2,w
  2076  044E  00C5               	movwf	___ftdiv@f1+2
  2077  044F  318A  2285  3181   	fcall	___ftdiv
  2078  0452  0140               	movlb	0	; select bank0
  2079  0453  0840               	movf	?___ftdiv,w
  2080  0454  0141               	movlb	1	; select bank1
  2081  0455  00CE               	movwf	_v5^(0+128)
  2082  0456  0140               	movlb	0	; select bank0
  2083  0457  0841               	movf	?___ftdiv+1,w
  2084  0458  0141               	movlb	1	; select bank1
  2085  0459  00CF               	movwf	(_v5+1)^(0+128)
  2086  045A  0140               	movlb	0	; select bank0
  2087  045B  0842               	movf	?___ftdiv+2,w
  2088  045C  0141               	movlb	1	; select bank1
  2089  045D  00D0               	movwf	(_v5+2)^(0+128)
  2090                           
  2091                           ;main.c: 88: ADPCH=0b000110;
  2092  045E  3006               	movlw	6
  2093  045F  009E               	movwf	30	;volatile
  2094                           
  2095                           ;main.c: 89: _delay((unsigned long)((20)*(32000000/4000000.0)));
  2096  0460  3035               	movlw	53
  2097  0461                     u1647:	
  2098  0461  0B89               	decfsz	9,f
  2099  0462  2C61               	goto	u1647
  2100  0463  0000               	nop
  2101                           
  2102                           ;main.c: 90: ADCON0bits.ADGO=1;
  2103  0464  0141               	movlb	1	; select bank1
  2104  0465  1413               	bsf	19,0	;volatile
  2105  0466                     l117:	
  2106                           ;main.c: 91: while(ADCON0bits.ADGO);
  2107                           
  2108  0466  1813               	btfsc	19,0	;volatile
  2109  0467  2C66               	goto	l117
  2110                           
  2111                           ;main.c: 92: adc=ADRESH;
  2112  0468  080D               	movf	13,w	;volatile
  2113  0469  0140               	movlb	0	; select bank0
  2114  046A  00DE               	movwf	??_geterror
  2115  046B  01DF               	clrf	??_geterror+1
  2116  046C  085E               	movf	??_geterror,w
  2117  046D  0141               	movlb	1	; select bank1
  2118  046E  00DD               	movwf	_adc^(0+128)
  2119  046F  0140               	movlb	0	; select bank0
  2120  0470  085F               	movf	??_geterror+1,w
  2121  0471  0141               	movlb	1	; select bank1
  2122  0472  00DE               	movwf	(_adc+1)^(0+128)
  2123                           
  2124                           ;main.c: 93: adc=adc<<8;
  2125  0473  085E               	movf	(_adc+1)^(0+128),w
  2126  0474  0140               	movlb	0	; select bank0
  2127  0475  00DF               	movwf	??_geterror+1
  2128  0476  0141               	movlb	1	; select bank1
  2129  0477  085D               	movf	_adc^(0+128),w
  2130  0478  0140               	movlb	0	; select bank0
  2131  0479  00DE               	movwf	??_geterror
  2132  047A  085E               	movf	??_geterror,w
  2133  047B  00DF               	movwf	??_geterror+1
  2134  047C  01DE               	clrf	??_geterror
  2135  047D  085E               	movf	??_geterror,w
  2136  047E  0141               	movlb	1	; select bank1
  2137  047F  00DD               	movwf	_adc^(0+128)
  2138  0480  0140               	movlb	0	; select bank0
  2139  0481  085F               	movf	??_geterror+1,w
  2140  0482  0141               	movlb	1	; select bank1
  2141  0483  00DE               	movwf	(_adc+1)^(0+128)
  2142                           
  2143                           ;main.c: 94: adc=adc+ADRESL;
  2144  0484  080C               	movf	12,w	;volatile
  2145  0485  075D               	addwf	_adc^(0+128),w
  2146  0486  0140               	movlb	0	; select bank0
  2147  0487  00DE               	movwf	??_geterror
  2148  0488  0141               	movlb	1	; select bank1
  2149  0489  085E               	movf	(_adc+1)^(0+128),w
  2150  048A  1803               	skipnc
  2151  048B  0A5E               	incf	(_adc+1)^(0+128),w
  2152  048C  0140               	movlb	0	; select bank0
  2153  048D  00DF               	movwf	??_geterror+1
  2154  048E  085E               	movf	??_geterror,w
  2155  048F  0141               	movlb	1	; select bank1
  2156  0490  00DD               	movwf	_adc^(0+128)
  2157  0491  0140               	movlb	0	; select bank0
  2158  0492  085F               	movf	??_geterror+1,w
  2159  0493  0141               	movlb	1	; select bank1
  2160  0494  00DE               	movwf	(_adc+1)^(0+128)
  2161                           
  2162                           ;main.c: 95: v6=adc*5.0/1023.0;
  2163  0495  30C0               	movlw	192
  2164  0496  0140               	movlb	0	; select bank0
  2165  0497  00C0               	movwf	___ftdiv@f2
  2166  0498  307F               	movlw	127
  2167  0499  00C1               	movwf	___ftdiv@f2+1
  2168  049A  3044               	movlw	68
  2169  049B  00C2               	movwf	___ftdiv@f2+2
  2170  049C  3000               	movlw	0
  2171  049D  00A3               	movwf	___ftmul@f1
  2172  049E  30A0               	movlw	160
  2173  049F  00A4               	movwf	___ftmul@f1+1
  2174  04A0  3040               	movlw	64
  2175  04A1  00A5               	movwf	___ftmul@f1+2
  2176  04A2  0141               	movlb	1	; select bank1
  2177  04A3  085E               	movf	(_adc+1)^(0+128),w
  2178  04A4  00F9               	movwf	___awtoft@c+1
  2179  04A5  085D               	movf	_adc^(0+128),w
  2180  04A6  00F8               	movwf	___awtoft@c
  2181  04A7  3180  200C  3181   	fcall	___awtoft
  2182  04AA  0878               	movf	?___awtoft,w
  2183  04AB  0140               	movlb	0	; select bank0
  2184  04AC  00A6               	movwf	___ftmul@f2
  2185  04AD  0879               	movf	?___awtoft+1,w
  2186  04AE  00A7               	movwf	___ftmul@f2+1
  2187  04AF  087A               	movf	?___awtoft+2,w
  2188  04B0  00A8               	movwf	___ftmul@f2+2
  2189  04B1  3180  202C  3181   	fcall	___ftmul
  2190  04B4  0140               	movlb	0	; select bank0
  2191  04B5  0823               	movf	?___ftmul,w
  2192  04B6  00C3               	movwf	___ftdiv@f1
  2193  04B7  0824               	movf	?___ftmul+1,w
  2194  04B8  00C4               	movwf	___ftdiv@f1+1
  2195  04B9  0825               	movf	?___ftmul+2,w
  2196  04BA  00C5               	movwf	___ftdiv@f1+2
  2197  04BB  318A  2285  3181   	fcall	___ftdiv
  2198  04BE  0140               	movlb	0	; select bank0
  2199  04BF  0840               	movf	?___ftdiv,w
  2200  04C0  0141               	movlb	1	; select bank1
  2201  04C1  00CB               	movwf	_v6^(0+128)
  2202  04C2  0140               	movlb	0	; select bank0
  2203  04C3  0841               	movf	?___ftdiv+1,w
  2204  04C4  0141               	movlb	1	; select bank1
  2205  04C5  00CC               	movwf	(_v6+1)^(0+128)
  2206  04C6  0140               	movlb	0	; select bank0
  2207  04C7  0842               	movf	?___ftdiv+2,w
  2208  04C8  0141               	movlb	1	; select bank1
  2209  04C9  00CD               	movwf	(_v6+2)^(0+128)
  2210                           
  2211                           ;main.c: 98: ADPCH=0b000111;
  2212  04CA  3007               	movlw	7
  2213  04CB  009E               	movwf	30	;volatile
  2214                           
  2215                           ;main.c: 99: _delay((unsigned long)((20)*(32000000/4000000.0)));
  2216  04CC  3035               	movlw	53
  2217  04CD                     u1657:	
  2218  04CD  0B89               	decfsz	9,f
  2219  04CE  2CCD               	goto	u1657
  2220  04CF  0000               	nop
  2221                           
  2222                           ;main.c: 100: ADCON0bits.ADGO=1;
  2223  04D0  0141               	movlb	1	; select bank1
  2224  04D1  1413               	bsf	19,0	;volatile
  2225  04D2                     l120:	
  2226                           ;main.c: 101: while(ADCON0bits.ADGO);
  2227                           
  2228  04D2  1813               	btfsc	19,0	;volatile
  2229  04D3  2CD2               	goto	l120
  2230                           
  2231                           ;main.c: 102: adc=ADRESH;
  2232  04D4  080D               	movf	13,w	;volatile
  2233  04D5  0140               	movlb	0	; select bank0
  2234  04D6  00DE               	movwf	??_geterror
  2235  04D7  01DF               	clrf	??_geterror+1
  2236  04D8  085E               	movf	??_geterror,w
  2237  04D9  0141               	movlb	1	; select bank1
  2238  04DA  00DD               	movwf	_adc^(0+128)
  2239  04DB  0140               	movlb	0	; select bank0
  2240  04DC  085F               	movf	??_geterror+1,w
  2241  04DD  0141               	movlb	1	; select bank1
  2242  04DE  00DE               	movwf	(_adc+1)^(0+128)
  2243                           
  2244                           ;main.c: 103: adc=adc<<8;
  2245  04DF  085E               	movf	(_adc+1)^(0+128),w
  2246  04E0  0140               	movlb	0	; select bank0
  2247  04E1  00DF               	movwf	??_geterror+1
  2248  04E2  0141               	movlb	1	; select bank1
  2249  04E3  085D               	movf	_adc^(0+128),w
  2250  04E4  0140               	movlb	0	; select bank0
  2251  04E5  00DE               	movwf	??_geterror
  2252  04E6  085E               	movf	??_geterror,w
  2253  04E7  00DF               	movwf	??_geterror+1
  2254  04E8  01DE               	clrf	??_geterror
  2255  04E9  085E               	movf	??_geterror,w
  2256  04EA  0141               	movlb	1	; select bank1
  2257  04EB  00DD               	movwf	_adc^(0+128)
  2258  04EC  0140               	movlb	0	; select bank0
  2259  04ED  085F               	movf	??_geterror+1,w
  2260  04EE  0141               	movlb	1	; select bank1
  2261  04EF  00DE               	movwf	(_adc+1)^(0+128)
  2262                           
  2263                           ;main.c: 104: adc=adc+ADRESL;
  2264  04F0  080C               	movf	12,w	;volatile
  2265  04F1  075D               	addwf	_adc^(0+128),w
  2266  04F2  0140               	movlb	0	; select bank0
  2267  04F3  00DE               	movwf	??_geterror
  2268  04F4  0141               	movlb	1	; select bank1
  2269  04F5  085E               	movf	(_adc+1)^(0+128),w
  2270  04F6  1803               	skipnc
  2271  04F7  0A5E               	incf	(_adc+1)^(0+128),w
  2272  04F8  0140               	movlb	0	; select bank0
  2273  04F9  00DF               	movwf	??_geterror+1
  2274  04FA  085E               	movf	??_geterror,w
  2275  04FB  0141               	movlb	1	; select bank1
  2276  04FC  00DD               	movwf	_adc^(0+128)
  2277  04FD  0140               	movlb	0	; select bank0
  2278  04FE  085F               	movf	??_geterror+1,w
  2279  04FF  0141               	movlb	1	; select bank1
  2280  0500  00DE               	movwf	(_adc+1)^(0+128)
  2281                           
  2282                           ;main.c: 105: v7=adc*5.0/1023.0;
  2283  0501  30C0               	movlw	192
  2284  0502  0140               	movlb	0	; select bank0
  2285  0503  00C0               	movwf	___ftdiv@f2
  2286  0504  307F               	movlw	127
  2287  0505  00C1               	movwf	___ftdiv@f2+1
  2288  0506  3044               	movlw	68
  2289  0507  00C2               	movwf	___ftdiv@f2+2
  2290  0508  3000               	movlw	0
  2291  0509  00A3               	movwf	___ftmul@f1
  2292  050A  30A0               	movlw	160
  2293  050B  00A4               	movwf	___ftmul@f1+1
  2294  050C  3040               	movlw	64
  2295  050D  00A5               	movwf	___ftmul@f1+2
  2296  050E  0141               	movlb	1	; select bank1
  2297  050F  085E               	movf	(_adc+1)^(0+128),w
  2298  0510  00F9               	movwf	___awtoft@c+1
  2299  0511  085D               	movf	_adc^(0+128),w
  2300  0512  00F8               	movwf	___awtoft@c
  2301  0513  3180  200C  3181   	fcall	___awtoft
  2302  0516  0878               	movf	?___awtoft,w
  2303  0517  0140               	movlb	0	; select bank0
  2304  0518  00A6               	movwf	___ftmul@f2
  2305  0519  0879               	movf	?___awtoft+1,w
  2306  051A  00A7               	movwf	___ftmul@f2+1
  2307  051B  087A               	movf	?___awtoft+2,w
  2308  051C  00A8               	movwf	___ftmul@f2+2
  2309  051D  3180  202C  3181   	fcall	___ftmul
  2310  0520  0140               	movlb	0	; select bank0
  2311  0521  0823               	movf	?___ftmul,w
  2312  0522  00C3               	movwf	___ftdiv@f1
  2313  0523  0824               	movf	?___ftmul+1,w
  2314  0524  00C4               	movwf	___ftdiv@f1+1
  2315  0525  0825               	movf	?___ftmul+2,w
  2316  0526  00C5               	movwf	___ftdiv@f1+2
  2317  0527  318A  2285  3181   	fcall	___ftdiv
  2318  052A  0140               	movlb	0	; select bank0
  2319  052B  0840               	movf	?___ftdiv,w
  2320  052C  0141               	movlb	1	; select bank1
  2321  052D  00C8               	movwf	_v7^(0+128)
  2322  052E  0140               	movlb	0	; select bank0
  2323  052F  0841               	movf	?___ftdiv+1,w
  2324  0530  0141               	movlb	1	; select bank1
  2325  0531  00C9               	movwf	(_v7+1)^(0+128)
  2326  0532  0140               	movlb	0	; select bank0
  2327  0533  0842               	movf	?___ftdiv+2,w
  2328  0534  0141               	movlb	1	; select bank1
  2329  0535  00CA               	movwf	(_v7+2)^(0+128)
  2330                           
  2331                           ;main.c: 108: error=(int)((0*v0+1000.0*v1+2000.0*v2+3000.0*v3+4000.0*v4+5000.0*v5+6000.0
      +                          *v6+7000.0*v7)/(v0+v1+v2+v3+v4+v5+v6+v7));
  2332  0536  0861               	movf	_v0^(0+128),w
  2333  0537  0140               	movlb	0	; select bank0
  2334  0538  00A6               	movwf	___ftmul@f2
  2335  0539  0141               	movlb	1	; select bank1
  2336  053A  0862               	movf	(_v0+1)^(0+128),w
  2337  053B  0140               	movlb	0	; select bank0
  2338  053C  00A7               	movwf	___ftmul@f2+1
  2339  053D  0141               	movlb	1	; select bank1
  2340  053E  0863               	movf	(_v0+2)^(0+128),w
  2341  053F  0140               	movlb	0	; select bank0
  2342  0540  00A8               	movwf	___ftmul@f2+2
  2343  0541  3000               	movlw	0
  2344  0542  00A3               	movwf	___ftmul@f1
  2345  0543  3000               	movlw	0
  2346  0544  00A4               	movwf	___ftmul@f1+1
  2347  0545  3000               	movlw	0
  2348  0546  00A5               	movwf	___ftmul@f1+2
  2349  0547  3180  202C  3181   	fcall	___ftmul
  2350  054A  0140               	movlb	0	; select bank0
  2351  054B  0823               	movf	?___ftmul,w
  2352  054C  00B6               	movwf	___ftadd@f2
  2353  054D  0824               	movf	?___ftmul+1,w
  2354  054E  00B7               	movwf	___ftadd@f2+1
  2355  054F  0825               	movf	?___ftmul+2,w
  2356  0550  00B8               	movwf	___ftadd@f2+2
  2357  0551  0141               	movlb	1	; select bank1
  2358  0552  085A               	movf	_v1^(0+128),w
  2359  0553  0140               	movlb	0	; select bank0
  2360  0554  00A6               	movwf	___ftmul@f2
  2361  0555  0141               	movlb	1	; select bank1
  2362  0556  085B               	movf	(_v1+1)^(0+128),w
  2363  0557  0140               	movlb	0	; select bank0
  2364  0558  00A7               	movwf	___ftmul@f2+1
  2365  0559  0141               	movlb	1	; select bank1
  2366  055A  085C               	movf	(_v1+2)^(0+128),w
  2367  055B  0140               	movlb	0	; select bank0
  2368  055C  00A8               	movwf	___ftmul@f2+2
  2369  055D  3000               	movlw	0
  2370  055E  00A3               	movwf	___ftmul@f1
  2371  055F  307A               	movlw	122
  2372  0560  00A4               	movwf	___ftmul@f1+1
  2373  0561  3044               	movlw	68
  2374  0562  00A5               	movwf	___ftmul@f1+2
  2375  0563  3180  202C  3181   	fcall	___ftmul
  2376  0566  0140               	movlb	0	; select bank0
  2377  0567  0823               	movf	?___ftmul,w
  2378  0568  00B3               	movwf	___ftadd@f1
  2379  0569  0824               	movf	?___ftmul+1,w
  2380  056A  00B4               	movwf	___ftadd@f1+1
  2381  056B  0825               	movf	?___ftmul+2,w
  2382  056C  00B5               	movwf	___ftadd@f1+2
  2383  056D  3180  20E0  3181   	fcall	___ftadd
  2384  0570  0140               	movlb	0	; select bank0
  2385  0571  0833               	movf	?___ftadd,w
  2386  0572  0141               	movlb	1	; select bank1
  2387  0573  00A0               	movwf	_geterror$1030^(0+128)
  2388  0574  0140               	movlb	0	; select bank0
  2389  0575  0834               	movf	?___ftadd+1,w
  2390  0576  0141               	movlb	1	; select bank1
  2391  0577  00A1               	movwf	(_geterror$1030+1)^(0+128)
  2392  0578  0140               	movlb	0	; select bank0
  2393  0579  0835               	movf	?___ftadd+2,w
  2394  057A  0141               	movlb	1	; select bank1
  2395  057B  00A2               	movwf	(_geterror$1030+2)^(0+128)
  2396                           
  2397                           ;main.c: 108: error=(int)((0*v0+1000.0*v1+2000.0*v2+3000.0*v3+4000.0*v4+5000.0*v5+6000.0
      +                          *v6+7000.0*v7)/(v0+v1+v2+v3+v4+v5+v6+v7));
  2398  057C  0820               	movf	_geterror$1030^(0+128),w
  2399  057D  0140               	movlb	0	; select bank0
  2400  057E  00B6               	movwf	___ftadd@f2
  2401  057F  0141               	movlb	1	; select bank1
  2402  0580  0821               	movf	(_geterror$1030+1)^(0+128),w
  2403  0581  0140               	movlb	0	; select bank0
  2404  0582  00B7               	movwf	___ftadd@f2+1
  2405  0583  0141               	movlb	1	; select bank1
  2406  0584  0822               	movf	(_geterror$1030+2)^(0+128),w
  2407  0585  0140               	movlb	0	; select bank0
  2408  0586  00B8               	movwf	___ftadd@f2+2
  2409  0587  0141               	movlb	1	; select bank1
  2410  0588  0857               	movf	_v2^(0+128),w
  2411  0589  0140               	movlb	0	; select bank0
  2412  058A  00A6               	movwf	___ftmul@f2
  2413  058B  0141               	movlb	1	; select bank1
  2414  058C  0858               	movf	(_v2+1)^(0+128),w
  2415  058D  0140               	movlb	0	; select bank0
  2416  058E  00A7               	movwf	___ftmul@f2+1
  2417  058F  0141               	movlb	1	; select bank1
  2418  0590  0859               	movf	(_v2+2)^(0+128),w
  2419  0591  0140               	movlb	0	; select bank0
  2420  0592  00A8               	movwf	___ftmul@f2+2
  2421  0593  3000               	movlw	0
  2422  0594  00A3               	movwf	___ftmul@f1
  2423  0595  30FA               	movlw	250
  2424  0596  00A4               	movwf	___ftmul@f1+1
  2425  0597  3044               	movlw	68
  2426  0598  00A5               	movwf	___ftmul@f1+2
  2427  0599  3180  202C  3181   	fcall	___ftmul
  2428  059C  0140               	movlb	0	; select bank0
  2429  059D  0823               	movf	?___ftmul,w
  2430  059E  00B3               	movwf	___ftadd@f1
  2431  059F  0824               	movf	?___ftmul+1,w
  2432  05A0  00B4               	movwf	___ftadd@f1+1
  2433  05A1  0825               	movf	?___ftmul+2,w
  2434  05A2  00B5               	movwf	___ftadd@f1+2
  2435  05A3  3180  20E0  3181   	fcall	___ftadd
  2436  05A6  0140               	movlb	0	; select bank0
  2437  05A7  0833               	movf	?___ftadd,w
  2438  05A8  0141               	movlb	1	; select bank1
  2439  05A9  00A3               	movwf	_geterror$1031^(0+128)
  2440  05AA  0140               	movlb	0	; select bank0
  2441  05AB  0834               	movf	?___ftadd+1,w
  2442  05AC  0141               	movlb	1	; select bank1
  2443  05AD  00A4               	movwf	(_geterror$1031+1)^(0+128)
  2444  05AE  0140               	movlb	0	; select bank0
  2445  05AF  0835               	movf	?___ftadd+2,w
  2446  05B0  0141               	movlb	1	; select bank1
  2447  05B1  00A5               	movwf	(_geterror$1031+2)^(0+128)
  2448                           
  2449                           ;main.c: 108: error=(int)((0*v0+1000.0*v1+2000.0*v2+3000.0*v3+4000.0*v4+5000.0*v5+6000.0
      +                          *v6+7000.0*v7)/(v0+v1+v2+v3+v4+v5+v6+v7));
  2450  05B2  0823               	movf	_geterror$1031^(0+128),w
  2451  05B3  0140               	movlb	0	; select bank0
  2452  05B4  00B6               	movwf	___ftadd@f2
  2453  05B5  0141               	movlb	1	; select bank1
  2454  05B6  0824               	movf	(_geterror$1031+1)^(0+128),w
  2455  05B7  0140               	movlb	0	; select bank0
  2456  05B8  00B7               	movwf	___ftadd@f2+1
  2457  05B9  0141               	movlb	1	; select bank1
  2458  05BA  0825               	movf	(_geterror$1031+2)^(0+128),w
  2459  05BB  0140               	movlb	0	; select bank0
  2460  05BC  00B8               	movwf	___ftadd@f2+2
  2461  05BD  0141               	movlb	1	; select bank1
  2462  05BE  0854               	movf	_v3^(0+128),w
  2463  05BF  0140               	movlb	0	; select bank0
  2464  05C0  00A6               	movwf	___ftmul@f2
  2465  05C1  0141               	movlb	1	; select bank1
  2466  05C2  0855               	movf	(_v3+1)^(0+128),w
  2467  05C3  0140               	movlb	0	; select bank0
  2468  05C4  00A7               	movwf	___ftmul@f2+1
  2469  05C5  0141               	movlb	1	; select bank1
  2470  05C6  0856               	movf	(_v3+2)^(0+128),w
  2471  05C7  0140               	movlb	0	; select bank0
  2472  05C8  00A8               	movwf	___ftmul@f2+2
  2473  05C9  3080               	movlw	128
  2474  05CA  00A3               	movwf	___ftmul@f1
  2475  05CB  303B               	movlw	59
  2476  05CC  00A4               	movwf	___ftmul@f1+1
  2477  05CD  3045               	movlw	69
  2478  05CE  00A5               	movwf	___ftmul@f1+2
  2479  05CF  3180  202C  3181   	fcall	___ftmul
  2480  05D2  0140               	movlb	0	; select bank0
  2481  05D3  0823               	movf	?___ftmul,w
  2482  05D4  00B3               	movwf	___ftadd@f1
  2483  05D5  0824               	movf	?___ftmul+1,w
  2484  05D6  00B4               	movwf	___ftadd@f1+1
  2485  05D7  0825               	movf	?___ftmul+2,w
  2486  05D8  00B5               	movwf	___ftadd@f1+2
  2487  05D9  3180  20E0  3181   	fcall	___ftadd
  2488  05DC  0140               	movlb	0	; select bank0
  2489  05DD  0833               	movf	?___ftadd,w
  2490  05DE  0141               	movlb	1	; select bank1
  2491  05DF  00A6               	movwf	_geterror$1032^(0+128)
  2492  05E0  0140               	movlb	0	; select bank0
  2493  05E1  0834               	movf	?___ftadd+1,w
  2494  05E2  0141               	movlb	1	; select bank1
  2495  05E3  00A7               	movwf	(_geterror$1032+1)^(0+128)
  2496  05E4  0140               	movlb	0	; select bank0
  2497  05E5  0835               	movf	?___ftadd+2,w
  2498  05E6  0141               	movlb	1	; select bank1
  2499  05E7  00A8               	movwf	(_geterror$1032+2)^(0+128)
  2500                           
  2501                           ;main.c: 108: error=(int)((0*v0+1000.0*v1+2000.0*v2+3000.0*v3+4000.0*v4+5000.0*v5+6000.0
      +                          *v6+7000.0*v7)/(v0+v1+v2+v3+v4+v5+v6+v7));
  2502  05E8  0826               	movf	_geterror$1032^(0+128),w
  2503  05E9  0140               	movlb	0	; select bank0
  2504  05EA  00B6               	movwf	___ftadd@f2
  2505  05EB  0141               	movlb	1	; select bank1
  2506  05EC  0827               	movf	(_geterror$1032+1)^(0+128),w
  2507  05ED  0140               	movlb	0	; select bank0
  2508  05EE  00B7               	movwf	___ftadd@f2+1
  2509  05EF  0141               	movlb	1	; select bank1
  2510  05F0  0828               	movf	(_geterror$1032+2)^(0+128),w
  2511  05F1  0140               	movlb	0	; select bank0
  2512  05F2  00B8               	movwf	___ftadd@f2+2
  2513  05F3  0141               	movlb	1	; select bank1
  2514  05F4  0851               	movf	_v4^(0+128),w
  2515  05F5  0140               	movlb	0	; select bank0
  2516  05F6  00A6               	movwf	___ftmul@f2
  2517  05F7  0141               	movlb	1	; select bank1
  2518  05F8  0852               	movf	(_v4+1)^(0+128),w
  2519  05F9  0140               	movlb	0	; select bank0
  2520  05FA  00A7               	movwf	___ftmul@f2+1
  2521  05FB  0141               	movlb	1	; select bank1
  2522  05FC  0853               	movf	(_v4+2)^(0+128),w
  2523  05FD  0140               	movlb	0	; select bank0
  2524  05FE  00A8               	movwf	___ftmul@f2+2
  2525  05FF  3000               	movlw	0
  2526  0600  00A3               	movwf	___ftmul@f1
  2527  0601  307A               	movlw	122
  2528  0602  00A4               	movwf	___ftmul@f1+1
  2529  0603  3045               	movlw	69
  2530  0604  00A5               	movwf	___ftmul@f1+2
  2531  0605  3180  202C  3181   	fcall	___ftmul
  2532  0608  0140               	movlb	0	; select bank0
  2533  0609  0823               	movf	?___ftmul,w
  2534  060A  00B3               	movwf	___ftadd@f1
  2535  060B  0824               	movf	?___ftmul+1,w
  2536  060C  00B4               	movwf	___ftadd@f1+1
  2537  060D  0825               	movf	?___ftmul+2,w
  2538  060E  00B5               	movwf	___ftadd@f1+2
  2539  060F  3180  20E0  3181   	fcall	___ftadd
  2540  0612  0140               	movlb	0	; select bank0
  2541  0613  0833               	movf	?___ftadd,w
  2542  0614  0141               	movlb	1	; select bank1
  2543  0615  00A9               	movwf	_geterror$1033^(0+128)
  2544  0616  0140               	movlb	0	; select bank0
  2545  0617  0834               	movf	?___ftadd+1,w
  2546  0618  0141               	movlb	1	; select bank1
  2547  0619  00AA               	movwf	(_geterror$1033+1)^(0+128)
  2548  061A  0140               	movlb	0	; select bank0
  2549  061B  0835               	movf	?___ftadd+2,w
  2550  061C  0141               	movlb	1	; select bank1
  2551  061D  00AB               	movwf	(_geterror$1033+2)^(0+128)
  2552                           
  2553                           ;main.c: 108: error=(int)((0*v0+1000.0*v1+2000.0*v2+3000.0*v3+4000.0*v4+5000.0*v5+6000.0
      +                          *v6+7000.0*v7)/(v0+v1+v2+v3+v4+v5+v6+v7));
  2554  061E  0829               	movf	_geterror$1033^(0+128),w
  2555  061F  0140               	movlb	0	; select bank0
  2556  0620  00B6               	movwf	___ftadd@f2
  2557  0621  0141               	movlb	1	; select bank1
  2558  0622  082A               	movf	(_geterror$1033+1)^(0+128),w
  2559  0623  0140               	movlb	0	; select bank0
  2560  0624  00B7               	movwf	___ftadd@f2+1
  2561  0625  0141               	movlb	1	; select bank1
  2562  0626  082B               	movf	(_geterror$1033+2)^(0+128),w
  2563  0627  0140               	movlb	0	; select bank0
  2564  0628  00B8               	movwf	___ftadd@f2+2
  2565  0629  0141               	movlb	1	; select bank1
  2566  062A  084E               	movf	_v5^(0+128),w
  2567  062B  0140               	movlb	0	; select bank0
  2568  062C  00A6               	movwf	___ftmul@f2
  2569  062D  0141               	movlb	1	; select bank1
  2570  062E  084F               	movf	(_v5+1)^(0+128),w
  2571  062F  0140               	movlb	0	; select bank0
  2572  0630  00A7               	movwf	___ftmul@f2+1
  2573  0631  0141               	movlb	1	; select bank1
  2574  0632  0850               	movf	(_v5+2)^(0+128),w
  2575  0633  0140               	movlb	0	; select bank0
  2576  0634  00A8               	movwf	___ftmul@f2+2
  2577  0635  3040               	movlw	64
  2578  0636  00A3               	movwf	___ftmul@f1
  2579  0637  309C               	movlw	156
  2580  0638  00A4               	movwf	___ftmul@f1+1
  2581  0639  3045               	movlw	69
  2582  063A  00A5               	movwf	___ftmul@f1+2
  2583  063B  3180  202C  3181   	fcall	___ftmul
  2584  063E  0140               	movlb	0	; select bank0
  2585  063F  0823               	movf	?___ftmul,w
  2586  0640  00B3               	movwf	___ftadd@f1
  2587  0641  0824               	movf	?___ftmul+1,w
  2588  0642  00B4               	movwf	___ftadd@f1+1
  2589  0643  0825               	movf	?___ftmul+2,w
  2590  0644  00B5               	movwf	___ftadd@f1+2
  2591  0645  3180  20E0  3181   	fcall	___ftadd
  2592  0648  0140               	movlb	0	; select bank0
  2593  0649  0833               	movf	?___ftadd,w
  2594  064A  0141               	movlb	1	; select bank1
  2595  064B  00AC               	movwf	_geterror$1034^(0+128)
  2596  064C  0140               	movlb	0	; select bank0
  2597  064D  0834               	movf	?___ftadd+1,w
  2598  064E  0141               	movlb	1	; select bank1
  2599  064F  00AD               	movwf	(_geterror$1034+1)^(0+128)
  2600  0650  0140               	movlb	0	; select bank0
  2601  0651  0835               	movf	?___ftadd+2,w
  2602  0652  0141               	movlb	1	; select bank1
  2603  0653  00AE               	movwf	(_geterror$1034+2)^(0+128)
  2604                           
  2605                           ;main.c: 108: error=(int)((0*v0+1000.0*v1+2000.0*v2+3000.0*v3+4000.0*v4+5000.0*v5+6000.0
      +                          *v6+7000.0*v7)/(v0+v1+v2+v3+v4+v5+v6+v7));
  2606  0654  082C               	movf	_geterror$1034^(0+128),w
  2607  0655  0140               	movlb	0	; select bank0
  2608  0656  00B6               	movwf	___ftadd@f2
  2609  0657  0141               	movlb	1	; select bank1
  2610  0658  082D               	movf	(_geterror$1034+1)^(0+128),w
  2611  0659  0140               	movlb	0	; select bank0
  2612  065A  00B7               	movwf	___ftadd@f2+1
  2613  065B  0141               	movlb	1	; select bank1
  2614  065C  082E               	movf	(_geterror$1034+2)^(0+128),w
  2615  065D  0140               	movlb	0	; select bank0
  2616  065E  00B8               	movwf	___ftadd@f2+2
  2617  065F  0141               	movlb	1	; select bank1
  2618  0660  084B               	movf	_v6^(0+128),w
  2619  0661  0140               	movlb	0	; select bank0
  2620  0662  00A6               	movwf	___ftmul@f2
  2621  0663  0141               	movlb	1	; select bank1
  2622  0664  084C               	movf	(_v6+1)^(0+128),w
  2623  0665  0140               	movlb	0	; select bank0
  2624  0666  00A7               	movwf	___ftmul@f2+1
  2625  0667  0141               	movlb	1	; select bank1
  2626  0668  084D               	movf	(_v6+2)^(0+128),w
  2627  0669  0140               	movlb	0	; select bank0
  2628  066A  00A8               	movwf	___ftmul@f2+2
  2629  066B  3080               	movlw	128
  2630  066C  00A3               	movwf	___ftmul@f1
  2631  066D  30BB               	movlw	187
  2632  066E  00A4               	movwf	___ftmul@f1+1
  2633  066F  3045               	movlw	69
  2634  0670  00A5               	movwf	___ftmul@f1+2
  2635  0671  3180  202C  3181   	fcall	___ftmul
  2636  0674  0140               	movlb	0	; select bank0
  2637  0675  0823               	movf	?___ftmul,w
  2638  0676  00B3               	movwf	___ftadd@f1
  2639  0677  0824               	movf	?___ftmul+1,w
  2640  0678  00B4               	movwf	___ftadd@f1+1
  2641  0679  0825               	movf	?___ftmul+2,w
  2642  067A  00B5               	movwf	___ftadd@f1+2
  2643  067B  3180  20E0  3181   	fcall	___ftadd
  2644  067E  0140               	movlb	0	; select bank0
  2645  067F  0833               	movf	?___ftadd,w
  2646  0680  0141               	movlb	1	; select bank1
  2647  0681  00AF               	movwf	_geterror$1035^(0+128)
  2648  0682  0140               	movlb	0	; select bank0
  2649  0683  0834               	movf	?___ftadd+1,w
  2650  0684  0141               	movlb	1	; select bank1
  2651  0685  00B0               	movwf	(_geterror$1035+1)^(0+128)
  2652  0686  0140               	movlb	0	; select bank0
  2653  0687  0835               	movf	?___ftadd+2,w
  2654  0688  0141               	movlb	1	; select bank1
  2655  0689  00B1               	movwf	(_geterror$1035+2)^(0+128)
  2656                           
  2657                           ;main.c: 108: error=(int)((0*v0+1000.0*v1+2000.0*v2+3000.0*v3+4000.0*v4+5000.0*v5+6000.0
      +                          *v6+7000.0*v7)/(v0+v1+v2+v3+v4+v5+v6+v7));
  2658  068A  0861               	movf	_v0^(0+128),w
  2659  068B  0140               	movlb	0	; select bank0
  2660  068C  00B6               	movwf	___ftadd@f2
  2661  068D  0141               	movlb	1	; select bank1
  2662  068E  0862               	movf	(_v0+1)^(0+128),w
  2663  068F  0140               	movlb	0	; select bank0
  2664  0690  00B7               	movwf	___ftadd@f2+1
  2665  0691  0141               	movlb	1	; select bank1
  2666  0692  0863               	movf	(_v0+2)^(0+128),w
  2667  0693  0140               	movlb	0	; select bank0
  2668  0694  00B8               	movwf	___ftadd@f2+2
  2669  0695  0141               	movlb	1	; select bank1
  2670  0696  085A               	movf	_v1^(0+128),w
  2671  0697  0140               	movlb	0	; select bank0
  2672  0698  00B3               	movwf	___ftadd@f1
  2673  0699  0141               	movlb	1	; select bank1
  2674  069A  085B               	movf	(_v1+1)^(0+128),w
  2675  069B  0140               	movlb	0	; select bank0
  2676  069C  00B4               	movwf	___ftadd@f1+1
  2677  069D  0141               	movlb	1	; select bank1
  2678  069E  085C               	movf	(_v1+2)^(0+128),w
  2679  069F  0140               	movlb	0	; select bank0
  2680  06A0  00B5               	movwf	___ftadd@f1+2
  2681  06A1  3180  20E0  3181   	fcall	___ftadd
  2682  06A4  0140               	movlb	0	; select bank0
  2683  06A5  0833               	movf	?___ftadd,w
  2684  06A6  0141               	movlb	1	; select bank1
  2685  06A7  00B2               	movwf	_geterror$1036^(0+128)
  2686  06A8  0140               	movlb	0	; select bank0
  2687  06A9  0834               	movf	?___ftadd+1,w
  2688  06AA  0141               	movlb	1	; select bank1
  2689  06AB  00B3               	movwf	(_geterror$1036+1)^(0+128)
  2690  06AC  0140               	movlb	0	; select bank0
  2691  06AD  0835               	movf	?___ftadd+2,w
  2692  06AE  0141               	movlb	1	; select bank1
  2693  06AF  00B4               	movwf	(_geterror$1036+2)^(0+128)
  2694                           
  2695                           ;main.c: 108: error=(int)((0*v0+1000.0*v1+2000.0*v2+3000.0*v3+4000.0*v4+5000.0*v5+6000.0
      +                          *v6+7000.0*v7)/(v0+v1+v2+v3+v4+v5+v6+v7));
  2696  06B0  0832               	movf	_geterror$1036^(0+128),w
  2697  06B1  0140               	movlb	0	; select bank0
  2698  06B2  00B6               	movwf	___ftadd@f2
  2699  06B3  0141               	movlb	1	; select bank1
  2700  06B4  0833               	movf	(_geterror$1036+1)^(0+128),w
  2701  06B5  0140               	movlb	0	; select bank0
  2702  06B6  00B7               	movwf	___ftadd@f2+1
  2703  06B7  0141               	movlb	1	; select bank1
  2704  06B8  0834               	movf	(_geterror$1036+2)^(0+128),w
  2705  06B9  0140               	movlb	0	; select bank0
  2706  06BA  00B8               	movwf	___ftadd@f2+2
  2707  06BB  0141               	movlb	1	; select bank1
  2708  06BC  0857               	movf	_v2^(0+128),w
  2709  06BD  0140               	movlb	0	; select bank0
  2710  06BE  00B3               	movwf	___ftadd@f1
  2711  06BF  0141               	movlb	1	; select bank1
  2712  06C0  0858               	movf	(_v2+1)^(0+128),w
  2713  06C1  0140               	movlb	0	; select bank0
  2714  06C2  00B4               	movwf	___ftadd@f1+1
  2715  06C3  0141               	movlb	1	; select bank1
  2716  06C4  0859               	movf	(_v2+2)^(0+128),w
  2717  06C5  0140               	movlb	0	; select bank0
  2718  06C6  00B5               	movwf	___ftadd@f1+2
  2719  06C7  3180  20E0  3181   	fcall	___ftadd
  2720  06CA  0140               	movlb	0	; select bank0
  2721  06CB  0833               	movf	?___ftadd,w
  2722  06CC  0141               	movlb	1	; select bank1
  2723  06CD  00B5               	movwf	_geterror$1037^(0+128)
  2724  06CE  0140               	movlb	0	; select bank0
  2725  06CF  0834               	movf	?___ftadd+1,w
  2726  06D0  0141               	movlb	1	; select bank1
  2727  06D1  00B6               	movwf	(_geterror$1037+1)^(0+128)
  2728  06D2  0140               	movlb	0	; select bank0
  2729  06D3  0835               	movf	?___ftadd+2,w
  2730  06D4  0141               	movlb	1	; select bank1
  2731  06D5  00B7               	movwf	(_geterror$1037+2)^(0+128)
  2732                           
  2733                           ;main.c: 108: error=(int)((0*v0+1000.0*v1+2000.0*v2+3000.0*v3+4000.0*v4+5000.0*v5+6000.0
      +                          *v6+7000.0*v7)/(v0+v1+v2+v3+v4+v5+v6+v7));
  2734  06D6  0835               	movf	_geterror$1037^(0+128),w
  2735  06D7  0140               	movlb	0	; select bank0
  2736  06D8  00B6               	movwf	___ftadd@f2
  2737  06D9  0141               	movlb	1	; select bank1
  2738  06DA  0836               	movf	(_geterror$1037+1)^(0+128),w
  2739  06DB  0140               	movlb	0	; select bank0
  2740  06DC  00B7               	movwf	___ftadd@f2+1
  2741  06DD  0141               	movlb	1	; select bank1
  2742  06DE  0837               	movf	(_geterror$1037+2)^(0+128),w
  2743  06DF  0140               	movlb	0	; select bank0
  2744  06E0  00B8               	movwf	___ftadd@f2+2
  2745  06E1  0141               	movlb	1	; select bank1
  2746  06E2  0854               	movf	_v3^(0+128),w
  2747  06E3  0140               	movlb	0	; select bank0
  2748  06E4  00B3               	movwf	___ftadd@f1
  2749  06E5  0141               	movlb	1	; select bank1
  2750  06E6  0855               	movf	(_v3+1)^(0+128),w
  2751  06E7  0140               	movlb	0	; select bank0
  2752  06E8  00B4               	movwf	___ftadd@f1+1
  2753  06E9  0141               	movlb	1	; select bank1
  2754  06EA  0856               	movf	(_v3+2)^(0+128),w
  2755  06EB  0140               	movlb	0	; select bank0
  2756  06EC  00B5               	movwf	___ftadd@f1+2
  2757  06ED  3180  20E0  3181   	fcall	___ftadd
  2758  06F0  0140               	movlb	0	; select bank0
  2759  06F1  0833               	movf	?___ftadd,w
  2760  06F2  0141               	movlb	1	; select bank1
  2761  06F3  00B8               	movwf	_geterror$1038^(0+128)
  2762  06F4  0140               	movlb	0	; select bank0
  2763  06F5  0834               	movf	?___ftadd+1,w
  2764  06F6  0141               	movlb	1	; select bank1
  2765  06F7  00B9               	movwf	(_geterror$1038+1)^(0+128)
  2766  06F8  0140               	movlb	0	; select bank0
  2767  06F9  0835               	movf	?___ftadd+2,w
  2768  06FA  0141               	movlb	1	; select bank1
  2769  06FB  00BA               	movwf	(_geterror$1038+2)^(0+128)
  2770                           
  2771                           ;main.c: 108: error=(int)((0*v0+1000.0*v1+2000.0*v2+3000.0*v3+4000.0*v4+5000.0*v5+6000.0
      +                          *v6+7000.0*v7)/(v0+v1+v2+v3+v4+v5+v6+v7));
  2772  06FC  0838               	movf	_geterror$1038^(0+128),w
  2773  06FD  0140               	movlb	0	; select bank0
  2774  06FE  00B6               	movwf	___ftadd@f2
  2775  06FF  0141               	movlb	1	; select bank1
  2776  0700  0839               	movf	(_geterror$1038+1)^(0+128),w
  2777  0701  0140               	movlb	0	; select bank0
  2778  0702  00B7               	movwf	___ftadd@f2+1
  2779  0703  0141               	movlb	1	; select bank1
  2780  0704  083A               	movf	(_geterror$1038+2)^(0+128),w
  2781  0705  0140               	movlb	0	; select bank0
  2782  0706  00B8               	movwf	___ftadd@f2+2
  2783  0707  0141               	movlb	1	; select bank1
  2784  0708  0851               	movf	_v4^(0+128),w
  2785  0709  0140               	movlb	0	; select bank0
  2786  070A  00B3               	movwf	___ftadd@f1
  2787  070B  0141               	movlb	1	; select bank1
  2788  070C  0852               	movf	(_v4+1)^(0+128),w
  2789  070D  0140               	movlb	0	; select bank0
  2790  070E  00B4               	movwf	___ftadd@f1+1
  2791  070F  0141               	movlb	1	; select bank1
  2792  0710  0853               	movf	(_v4+2)^(0+128),w
  2793  0711  0140               	movlb	0	; select bank0
  2794  0712  00B5               	movwf	___ftadd@f1+2
  2795  0713  3180  20E0  3181   	fcall	___ftadd
  2796  0716  0140               	movlb	0	; select bank0
  2797  0717  0833               	movf	?___ftadd,w
  2798  0718  0141               	movlb	1	; select bank1
  2799  0719  00BB               	movwf	_geterror$1039^(0+128)
  2800  071A  0140               	movlb	0	; select bank0
  2801  071B  0834               	movf	?___ftadd+1,w
  2802  071C  0141               	movlb	1	; select bank1
  2803  071D  00BC               	movwf	(_geterror$1039+1)^(0+128)
  2804  071E  0140               	movlb	0	; select bank0
  2805  071F  0835               	movf	?___ftadd+2,w
  2806  0720  0141               	movlb	1	; select bank1
  2807  0721  00BD               	movwf	(_geterror$1039+2)^(0+128)
  2808                           
  2809                           ;main.c: 108: error=(int)((0*v0+1000.0*v1+2000.0*v2+3000.0*v3+4000.0*v4+5000.0*v5+6000.0
      +                          *v6+7000.0*v7)/(v0+v1+v2+v3+v4+v5+v6+v7));
  2810  0722  083B               	movf	_geterror$1039^(0+128),w
  2811  0723  0140               	movlb	0	; select bank0
  2812  0724  00B6               	movwf	___ftadd@f2
  2813  0725  0141               	movlb	1	; select bank1
  2814  0726  083C               	movf	(_geterror$1039+1)^(0+128),w
  2815  0727  0140               	movlb	0	; select bank0
  2816  0728  00B7               	movwf	___ftadd@f2+1
  2817  0729  0141               	movlb	1	; select bank1
  2818  072A  083D               	movf	(_geterror$1039+2)^(0+128),w
  2819  072B  0140               	movlb	0	; select bank0
  2820  072C  00B8               	movwf	___ftadd@f2+2
  2821  072D  0141               	movlb	1	; select bank1
  2822  072E  084E               	movf	_v5^(0+128),w
  2823  072F  0140               	movlb	0	; select bank0
  2824  0730  00B3               	movwf	___ftadd@f1
  2825  0731  0141               	movlb	1	; select bank1
  2826  0732  084F               	movf	(_v5+1)^(0+128),w
  2827  0733  0140               	movlb	0	; select bank0
  2828  0734  00B4               	movwf	___ftadd@f1+1
  2829  0735  0141               	movlb	1	; select bank1
  2830  0736  0850               	movf	(_v5+2)^(0+128),w
  2831  0737  0140               	movlb	0	; select bank0
  2832  0738  00B5               	movwf	___ftadd@f1+2
  2833  0739  3180  20E0  3181   	fcall	___ftadd
  2834  073C  0140               	movlb	0	; select bank0
  2835  073D  0833               	movf	?___ftadd,w
  2836  073E  0141               	movlb	1	; select bank1
  2837  073F  00BE               	movwf	_geterror$1040^(0+128)
  2838  0740  0140               	movlb	0	; select bank0
  2839  0741  0834               	movf	?___ftadd+1,w
  2840  0742  0141               	movlb	1	; select bank1
  2841  0743  00BF               	movwf	(_geterror$1040+1)^(0+128)
  2842  0744  0140               	movlb	0	; select bank0
  2843  0745  0835               	movf	?___ftadd+2,w
  2844  0746  0141               	movlb	1	; select bank1
  2845  0747  00C0               	movwf	(_geterror$1040+2)^(0+128)
  2846                           
  2847                           ;main.c: 108: error=(int)((0*v0+1000.0*v1+2000.0*v2+3000.0*v3+4000.0*v4+5000.0*v5+6000.0
      +                          *v6+7000.0*v7)/(v0+v1+v2+v3+v4+v5+v6+v7));
  2848  0748  083E               	movf	_geterror$1040^(0+128),w
  2849  0749  0140               	movlb	0	; select bank0
  2850  074A  00B6               	movwf	___ftadd@f2
  2851  074B  0141               	movlb	1	; select bank1
  2852  074C  083F               	movf	(_geterror$1040+1)^(0+128),w
  2853  074D  0140               	movlb	0	; select bank0
  2854  074E  00B7               	movwf	___ftadd@f2+1
  2855  074F  0141               	movlb	1	; select bank1
  2856  0750  0840               	movf	(_geterror$1040+2)^(0+128),w
  2857  0751  0140               	movlb	0	; select bank0
  2858  0752  00B8               	movwf	___ftadd@f2+2
  2859  0753  0141               	movlb	1	; select bank1
  2860  0754  084B               	movf	_v6^(0+128),w
  2861  0755  0140               	movlb	0	; select bank0
  2862  0756  00B3               	movwf	___ftadd@f1
  2863  0757  0141               	movlb	1	; select bank1
  2864  0758  084C               	movf	(_v6+1)^(0+128),w
  2865  0759  0140               	movlb	0	; select bank0
  2866  075A  00B4               	movwf	___ftadd@f1+1
  2867  075B  0141               	movlb	1	; select bank1
  2868  075C  084D               	movf	(_v6+2)^(0+128),w
  2869  075D  0140               	movlb	0	; select bank0
  2870  075E  00B5               	movwf	___ftadd@f1+2
  2871  075F  3180  20E0  3181   	fcall	___ftadd
  2872  0762  0140               	movlb	0	; select bank0
  2873  0763  0833               	movf	?___ftadd,w
  2874  0764  0141               	movlb	1	; select bank1
  2875  0765  00C1               	movwf	_geterror$1041^(0+128)
  2876  0766  0140               	movlb	0	; select bank0
  2877  0767  0834               	movf	?___ftadd+1,w
  2878  0768  0141               	movlb	1	; select bank1
  2879  0769  00C2               	movwf	(_geterror$1041+1)^(0+128)
  2880  076A  0140               	movlb	0	; select bank0
  2881  076B  0835               	movf	?___ftadd+2,w
  2882  076C  0141               	movlb	1	; select bank1
  2883  076D  00C3               	movwf	(_geterror$1041+2)^(0+128)
  2884                           
  2885                           ;main.c: 108: error=(int)((0*v0+1000.0*v1+2000.0*v2+3000.0*v3+4000.0*v4+5000.0*v5+6000.0
      +                          *v6+7000.0*v7)/(v0+v1+v2+v3+v4+v5+v6+v7));
  2886  076E  082F               	movf	_geterror$1035^(0+128),w
  2887  076F  0140               	movlb	0	; select bank0
  2888  0770  00B6               	movwf	___ftadd@f2
  2889  0771  0141               	movlb	1	; select bank1
  2890  0772  0830               	movf	(_geterror$1035+1)^(0+128),w
  2891  0773  0140               	movlb	0	; select bank0
  2892  0774  00B7               	movwf	___ftadd@f2+1
  2893  0775  0141               	movlb	1	; select bank1
  2894  0776  0831               	movf	(_geterror$1035+2)^(0+128),w
  2895  0777  0140               	movlb	0	; select bank0
  2896  0778  00B8               	movwf	___ftadd@f2+2
  2897  0779  0141               	movlb	1	; select bank1
  2898  077A  0848               	movf	_v7^(0+128),w
  2899  077B  0140               	movlb	0	; select bank0
  2900  077C  00A6               	movwf	___ftmul@f2
  2901  077D  0141               	movlb	1	; select bank1
  2902  077E  0849               	movf	(_v7+1)^(0+128),w
  2903  077F  0140               	movlb	0	; select bank0
  2904  0780  00A7               	movwf	___ftmul@f2+1
  2905  0781  0141               	movlb	1	; select bank1
  2906  0782  084A               	movf	(_v7+2)^(0+128),w
  2907  0783  0140               	movlb	0	; select bank0
  2908  0784  00A8               	movwf	___ftmul@f2+2
  2909  0785  30C0               	movlw	192
  2910  0786  00A3               	movwf	___ftmul@f1
  2911  0787  30DA               	movlw	218
  2912  0788  00A4               	movwf	___ftmul@f1+1
  2913  0789  3045               	movlw	69
  2914  078A  00A5               	movwf	___ftmul@f1+2
  2915  078B  3180  202C  3181   	fcall	___ftmul
  2916  078E  0140               	movlb	0	; select bank0
  2917  078F  0823               	movf	?___ftmul,w
  2918  0790  00B3               	movwf	___ftadd@f1
  2919  0791  0824               	movf	?___ftmul+1,w
  2920  0792  00B4               	movwf	___ftadd@f1+1
  2921  0793  0825               	movf	?___ftmul+2,w
  2922  0794  00B5               	movwf	___ftadd@f1+2
  2923  0795  3180  20E0  3181   	fcall	___ftadd
  2924  0798  0140               	movlb	0	; select bank0
  2925  0799  0833               	movf	?___ftadd,w
  2926  079A  00C3               	movwf	___ftdiv@f1
  2927  079B  0834               	movf	?___ftadd+1,w
  2928  079C  00C4               	movwf	___ftdiv@f1+1
  2929  079D  0835               	movf	?___ftadd+2,w
  2930  079E  00C5               	movwf	___ftdiv@f1+2
  2931  079F  0141               	movlb	1	; select bank1
  2932  07A0  0841               	movf	_geterror$1041^(0+128),w
  2933  07A1  0140               	movlb	0	; select bank0
  2934  07A2  00B6               	movwf	___ftadd@f2
  2935  07A3  0141               	movlb	1	; select bank1
  2936  07A4  0842               	movf	(_geterror$1041+1)^(0+128),w
  2937  07A5  0140               	movlb	0	; select bank0
  2938  07A6  00B7               	movwf	___ftadd@f2+1
  2939  07A7  0141               	movlb	1	; select bank1
  2940  07A8  0843               	movf	(_geterror$1041+2)^(0+128),w
  2941  07A9  0140               	movlb	0	; select bank0
  2942  07AA  00B8               	movwf	___ftadd@f2+2
  2943  07AB  0141               	movlb	1	; select bank1
  2944  07AC  0848               	movf	_v7^(0+128),w
  2945  07AD  0140               	movlb	0	; select bank0
  2946  07AE  00B3               	movwf	___ftadd@f1
  2947  07AF  0141               	movlb	1	; select bank1
  2948  07B0  0849               	movf	(_v7+1)^(0+128),w
  2949  07B1  0140               	movlb	0	; select bank0
  2950  07B2  00B4               	movwf	___ftadd@f1+1
  2951  07B3  0141               	movlb	1	; select bank1
  2952  07B4  084A               	movf	(_v7+2)^(0+128),w
  2953  07B5  0140               	movlb	0	; select bank0
  2954  07B6  00B5               	movwf	___ftadd@f1+2
  2955  07B7  3180  20E0  3181   	fcall	___ftadd
  2956  07BA  0140               	movlb	0	; select bank0
  2957  07BB  0833               	movf	?___ftadd,w
  2958  07BC  00C0               	movwf	___ftdiv@f2
  2959  07BD  0834               	movf	?___ftadd+1,w
  2960  07BE  00C1               	movwf	___ftdiv@f2+1
  2961  07BF  0835               	movf	?___ftadd+2,w
  2962  07C0  00C2               	movwf	___ftdiv@f2+2
  2963  07C1  318A  2285  3181   	fcall	___ftdiv
  2964  07C4  0140               	movlb	0	; select bank0
  2965  07C5  0840               	movf	?___ftdiv,w
  2966  07C6  00D0               	movwf	___fttol@f1
  2967  07C7  0841               	movf	?___ftdiv+1,w
  2968  07C8  00D1               	movwf	___fttol@f1+1
  2969  07C9  0842               	movf	?___ftdiv+2,w
  2970  07CA  00D2               	movwf	___fttol@f1+2
  2971  07CB  3189  216B         	fcall	___fttol
  2972  07CD  0140               	movlb	0	; select bank0
  2973  07CE  0851               	movf	?___fttol+1,w
  2974  07CF  0141               	movlb	1	; select bank1
  2975  07D0  00E0               	movwf	(_error+1)^(0+128)
  2976  07D1  0140               	movlb	0	; select bank0
  2977  07D2  0850               	movf	?___fttol,w
  2978  07D3  0141               	movlb	1	; select bank1
  2979  07D4  00DF               	movwf	_error^(0+128)
  2980                           
  2981                           ;main.c: 109: error=error-3500;
  2982  07D5  085F               	movf	_error^(0+128),w
  2983  07D6  3E54               	addlw	84
  2984  07D7  00DF               	movwf	_error^(0+128)
  2985  07D8  30F2               	movlw	242
  2986  07D9  3D60               	addwfc	(_error+1)^(0+128),w
  2987  07DA  00E0               	movwf	(_error+1)^(0+128)
  2988  07DB  0008               	return
  2989  07DC                     __end_of_geterror:	
  2990                           
  2991                           	psect	text2
  2992  0A85                     __ptext2:	
  2993 ;; *************** function ___ftdiv *****************
  2994 ;; Defined at:
  2995 ;;		line 56 in file "C:\Program Files (x86)\Microchip\xc8\v1.45\sources\common\ftdiv.c"
  2996 ;; Parameters:    Size  Location     Type
  2997 ;;  f2              3   32[BANK0 ] float 
  2998 ;;  f1              3   35[BANK0 ] float 
  2999 ;; Auto vars:     Size  Location     Type
  3000 ;;  f3              3   43[BANK0 ] float 
  3001 ;;  sign            1   47[BANK0 ] unsigned char 
  3002 ;;  exp             1   46[BANK0 ] unsigned char 
  3003 ;;  cntr            1   42[BANK0 ] unsigned char 
  3004 ;; Return value:  Size  Location     Type
  3005 ;;                  3   32[BANK0 ] float 
  3006 ;; Registers used:
  3007 ;;		wreg, status,2, status,0, pclath, cstack
  3008 ;; Tracked objects:
  3009 ;;		On entry : 0/0
  3010 ;;		On exit  : 0/0
  3011 ;;		Unchanged: 0/0
  3012 ;; Data sizes:     COMMON   BANK0   BANK1   BANK2   BANK3   BANK4   BANK5   BANK6   BANK7   BANK8   BANK9  BANK10  BANK1
      +1  BANK12  BANK13  BANK14  BANK15  BANK16  BANK17  BANK18  BANK19  BANK20  BANK21  BANK22  BANK23  BANK24  BANK25  BANK2
      +6  BANK27  BANK28  BANK29  BANK30  BANK31  BANK32  BANK33  BANK34  BANK35  BANK36  BANK37  BANK38  BANK39  BANK40  BANK4
      +1  BANK42  BANK43  BANK44  BANK45  BANK46  BANK47  BANK48  BANK49  BANK50
  3013 ;;      Params:         0       6       0       0       0       0       0       0       0       0       0       0       
      +0       0       0       0       0       0       0       0       0       0       0       0       0       0       0       
      +0       0       0       0       0       0       0       0       0       0       0       0       0       0       0       
      +0       0       0       0       0       0       0       0       0       0
  3014 ;;      Locals:         0       6       0       0       0       0       0       0       0       0       0       0       
      +0       0       0       0       0       0       0       0       0       0       0       0       0       0       0       
      +0       0       0       0       0       0       0       0       0       0       0       0       0       0       0       
      +0       0       0       0       0       0       0       0       0       0
  3015 ;;      Temps:          0       4       0       0       0       0       0       0       0       0       0       0       
      +0       0       0       0       0       0       0       0       0       0       0       0       0       0       0       
      +0       0       0       0       0       0       0       0       0       0       0       0       0       0       0       
      +0       0       0       0       0       0       0       0       0       0
  3016 ;;      Totals:         0      16       0       0       0       0       0       0       0       0       0       0       
      +0       0       0       0       0       0       0       0       0       0       0       0       0       0       0       
      +0       0       0       0       0       0       0       0       0       0       0       0       0       0       0       
      +0       0       0       0       0       0       0       0       0       0
  3017 ;;Total ram usage:       16 bytes
  3018 ;; Hardware stack levels used:    1
  3019 ;; Hardware stack levels required when called:    1
  3020 ;; This function calls:
  3021 ;;		___ftpack
  3022 ;; This function is called by:
  3023 ;;		_geterror
  3024 ;; This function uses a non-reentrant model
  3025 ;;
  3026                           
  3027                           
  3028                           ;psect for function ___ftdiv
  3029  0A85                     ___ftdiv:	
  3030                           
  3031                           ;incstack = 0
  3032                           ; Regs used in ___ftdiv: [wreg+status,2+status,0+pclath+cstack]
  3033  0A85  0140               	movlb	0	; select bank0
  3034  0A86  0843               	movf	___ftdiv@f1,w
  3035  0A87  00C6               	movwf	??___ftdiv
  3036  0A88  0844               	movf	___ftdiv@f1+1,w
  3037  0A89  00C7               	movwf	??___ftdiv+1
  3038  0A8A  0845               	movf	___ftdiv@f1+2,w
  3039  0A8B  00C8               	movwf	??___ftdiv+2
  3040  0A8C  1003               	clrc
  3041  0A8D  0D47               	rlf	??___ftdiv+1,w
  3042  0A8E  0D48               	rlf	??___ftdiv+2,w
  3043  0A8F  00C9               	movwf	??___ftdiv+3
  3044  0A90  0849               	movf	??___ftdiv+3,w
  3045  0A91  00CE               	movwf	___ftdiv@exp
  3046  0A92  084E               	movf	___ftdiv@exp,w
  3047  0A93  1D03               	btfss	3,2
  3048  0A94  2A9C               	goto	l1236
  3049  0A95  3000               	movlw	0
  3050  0A96  00C0               	movwf	?___ftdiv
  3051  0A97  3000               	movlw	0
  3052  0A98  00C1               	movwf	?___ftdiv+1
  3053  0A99  3000               	movlw	0
  3054  0A9A  00C2               	movwf	?___ftdiv+2
  3055  0A9B  0008               	return
  3056  0A9C                     l1236:	
  3057  0A9C  0840               	movf	___ftdiv@f2,w
  3058  0A9D  00C6               	movwf	??___ftdiv
  3059  0A9E  0841               	movf	___ftdiv@f2+1,w
  3060  0A9F  00C7               	movwf	??___ftdiv+1
  3061  0AA0  0842               	movf	___ftdiv@f2+2,w
  3062  0AA1  00C8               	movwf	??___ftdiv+2
  3063  0AA2  1003               	clrc
  3064  0AA3  0D47               	rlf	??___ftdiv+1,w
  3065  0AA4  0D48               	rlf	??___ftdiv+2,w
  3066  0AA5  00C9               	movwf	??___ftdiv+3
  3067  0AA6  0849               	movf	??___ftdiv+3,w
  3068  0AA7  00CF               	movwf	___ftdiv@sign
  3069  0AA8  084F               	movf	___ftdiv@sign,w
  3070  0AA9  1D03               	btfss	3,2
  3071  0AAA  2AB2               	goto	l1242
  3072  0AAB  3000               	movlw	0
  3073  0AAC  00C0               	movwf	?___ftdiv
  3074  0AAD  3000               	movlw	0
  3075  0AAE  00C1               	movwf	?___ftdiv+1
  3076  0AAF  3000               	movlw	0
  3077  0AB0  00C2               	movwf	?___ftdiv+2
  3078  0AB1  0008               	return
  3079  0AB2                     l1242:	
  3080  0AB2  3000               	movlw	0
  3081  0AB3  00CB               	movwf	___ftdiv@f3
  3082  0AB4  3000               	movlw	0
  3083  0AB5  00CC               	movwf	___ftdiv@f3+1
  3084  0AB6  3000               	movlw	0
  3085  0AB7  00CD               	movwf	___ftdiv@f3+2
  3086  0AB8  3089               	movlw	137
  3087  0AB9  074F               	addwf	___ftdiv@sign,w
  3088  0ABA  00C6               	movwf	??___ftdiv
  3089  0ABB  0846               	movf	??___ftdiv,w
  3090  0ABC  02CE               	subwf	___ftdiv@exp,f
  3091  0ABD  0843               	movf	___ftdiv@f1,w
  3092  0ABE  00C6               	movwf	??___ftdiv
  3093  0ABF  0844               	movf	___ftdiv@f1+1,w
  3094  0AC0  00C7               	movwf	??___ftdiv+1
  3095  0AC1  0845               	movf	___ftdiv@f1+2,w
  3096  0AC2  00C8               	movwf	??___ftdiv+2
  3097  0AC3  3010               	movlw	16
  3098  0AC4                     u1175:	
  3099  0AC4  36C8               	lsrf	??___ftdiv+2,f
  3100  0AC5  0CC7               	rrf	??___ftdiv+1,f
  3101  0AC6  0CC6               	rrf	??___ftdiv,f
  3102  0AC7  0B89               	decfsz	9,f
  3103  0AC8  2AC4               	goto	u1175
  3104  0AC9  0846               	movf	??___ftdiv,w
  3105  0ACA  00C9               	movwf	??___ftdiv+3
  3106  0ACB  0849               	movf	??___ftdiv+3,w
  3107  0ACC  00CF               	movwf	___ftdiv@sign
  3108  0ACD  0840               	movf	___ftdiv@f2,w
  3109  0ACE  00C6               	movwf	??___ftdiv
  3110  0ACF  0841               	movf	___ftdiv@f2+1,w
  3111  0AD0  00C7               	movwf	??___ftdiv+1
  3112  0AD1  0842               	movf	___ftdiv@f2+2,w
  3113  0AD2  00C8               	movwf	??___ftdiv+2
  3114  0AD3  3010               	movlw	16
  3115  0AD4                     u1185:	
  3116  0AD4  36C8               	lsrf	??___ftdiv+2,f
  3117  0AD5  0CC7               	rrf	??___ftdiv+1,f
  3118  0AD6  0CC6               	rrf	??___ftdiv,f
  3119  0AD7  0B89               	decfsz	9,f
  3120  0AD8  2AD4               	goto	u1185
  3121  0AD9  0846               	movf	??___ftdiv,w
  3122  0ADA  00C9               	movwf	??___ftdiv+3
  3123  0ADB  0849               	movf	??___ftdiv+3,w
  3124  0ADC  06CF               	xorwf	___ftdiv@sign,f
  3125  0ADD  3080               	movlw	128
  3126  0ADE  00C6               	movwf	??___ftdiv
  3127  0ADF  0846               	movf	??___ftdiv,w
  3128  0AE0  05CF               	andwf	___ftdiv@sign,f
  3129  0AE1  17C4               	bsf	___ftdiv@f1+1,7
  3130  0AE2  30FF               	movlw	255
  3131  0AE3  05C3               	andwf	___ftdiv@f1,f
  3132  0AE4  30FF               	movlw	255
  3133  0AE5  05C4               	andwf	___ftdiv@f1+1,f
  3134  0AE6  3000               	movlw	0
  3135  0AE7  05C5               	andwf	___ftdiv@f1+2,f
  3136  0AE8  17C1               	bsf	___ftdiv@f2+1,7
  3137  0AE9  30FF               	movlw	255
  3138  0AEA  05C0               	andwf	___ftdiv@f2,f
  3139  0AEB  30FF               	movlw	255
  3140  0AEC  05C1               	andwf	___ftdiv@f2+1,f
  3141  0AED  3000               	movlw	0
  3142  0AEE  05C2               	andwf	___ftdiv@f2+2,f
  3143  0AEF  3018               	movlw	24
  3144  0AF0  00C6               	movwf	??___ftdiv
  3145  0AF1  0846               	movf	??___ftdiv,w
  3146  0AF2  00CA               	movwf	___ftdiv@cntr
  3147  0AF3                     l1256:	
  3148  0AF3  3001               	movlw	1
  3149  0AF4                     u1195:	
  3150  0AF4  35CB               	lslf	___ftdiv@f3,f
  3151  0AF5  0DCC               	rlf	___ftdiv@f3+1,f
  3152  0AF6  0DCD               	rlf	___ftdiv@f3+2,f
  3153  0AF7  0B89               	decfsz	9,f
  3154  0AF8  2AF4               	goto	u1195
  3155  0AF9  0842               	movf	___ftdiv@f2+2,w
  3156  0AFA  0245               	subwf	___ftdiv@f1+2,w
  3157  0AFB  1D03               	skipz
  3158  0AFC  2B03               	goto	u1205
  3159  0AFD  0841               	movf	___ftdiv@f2+1,w
  3160  0AFE  0244               	subwf	___ftdiv@f1+1,w
  3161  0AFF  1D03               	skipz
  3162  0B00  2B03               	goto	u1205
  3163  0B01  0840               	movf	___ftdiv@f2,w
  3164  0B02  0243               	subwf	___ftdiv@f1,w
  3165  0B03                     u1205:	
  3166  0B03  1C03               	skipc
  3167  0B04  2B0C               	goto	l1264
  3168  0B05  0840               	movf	___ftdiv@f2,w
  3169  0B06  02C3               	subwf	___ftdiv@f1,f
  3170  0B07  0841               	movf	___ftdiv@f2+1,w
  3171  0B08  3BC4               	subwfb	___ftdiv@f1+1,f
  3172  0B09  0842               	movf	___ftdiv@f2+2,w
  3173  0B0A  3BC5               	subwfb	___ftdiv@f1+2,f
  3174  0B0B  144B               	bsf	___ftdiv@f3,0
  3175  0B0C                     l1264:	
  3176  0B0C  3001               	movlw	1
  3177  0B0D                     u1215:	
  3178  0B0D  35C3               	lslf	___ftdiv@f1,f
  3179  0B0E  0DC4               	rlf	___ftdiv@f1+1,f
  3180  0B0F  0DC5               	rlf	___ftdiv@f1+2,f
  3181  0B10  0B89               	decfsz	9,f
  3182  0B11  2B0D               	goto	u1215
  3183  0B12  3001               	movlw	1
  3184  0B13  02CA               	subwf	___ftdiv@cntr,f
  3185  0B14  1D03               	btfss	3,2
  3186  0B15  2AF3               	goto	l1256
  3187  0B16  084B               	movf	___ftdiv@f3,w
  3188  0B17  00F0               	movwf	___ftpack@arg
  3189  0B18  084C               	movf	___ftdiv@f3+1,w
  3190  0B19  00F1               	movwf	___ftpack@arg+1
  3191  0B1A  084D               	movf	___ftdiv@f3+2,w
  3192  0B1B  00F2               	movwf	___ftpack@arg+2
  3193  0B1C  084E               	movf	___ftdiv@exp,w
  3194  0B1D  00C6               	movwf	??___ftdiv
  3195  0B1E  0846               	movf	??___ftdiv,w
  3196  0B1F  00F3               	movwf	___ftpack@exp
  3197  0B20  084F               	movf	___ftdiv@sign,w
  3198  0B21  00C7               	movwf	??___ftdiv+1
  3199  0B22  0847               	movf	??___ftdiv+1,w
  3200  0B23  00F4               	movwf	___ftpack@sign
  3201  0B24  3189  2107         	fcall	___ftpack
  3202  0B26  0870               	movf	?___ftpack,w
  3203  0B27  0140               	movlb	0	; select bank0
  3204  0B28  00C0               	movwf	?___ftdiv
  3205  0B29  0871               	movf	?___ftpack+1,w
  3206  0B2A  00C1               	movwf	?___ftdiv+1
  3207  0B2B  0872               	movf	?___ftpack+2,w
  3208  0B2C  00C2               	movwf	?___ftdiv+2
  3209  0B2D  0008               	return
  3210  0B2E                     __end_of___ftdiv:	
  3211                           
  3212                           	psect	text3
  3213  0B2E                     __ptext3:	
  3214 ;; *************** function _formula *****************
  3215 ;; Defined at:
  3216 ;;		line 113 in file "main.c"
  3217 ;; Parameters:    Size  Location     Type
  3218 ;;		None
  3219 ;; Auto vars:     Size  Location     Type
  3220 ;;		None
  3221 ;; Return value:  Size  Location     Type
  3222 ;;                  1    wreg      void 
  3223 ;; Registers used:
  3224 ;;		wreg, status,2, status,0, pclath, cstack
  3225 ;; Tracked objects:
  3226 ;;		On entry : 0/0
  3227 ;;		On exit  : 0/0
  3228 ;;		Unchanged: 0/0
  3229 ;; Data sizes:     COMMON   BANK0   BANK1   BANK2   BANK3   BANK4   BANK5   BANK6   BANK7   BANK8   BANK9  BANK10  BANK1
      +1  BANK12  BANK13  BANK14  BANK15  BANK16  BANK17  BANK18  BANK19  BANK20  BANK21  BANK22  BANK23  BANK24  BANK25  BANK2
      +6  BANK27  BANK28  BANK29  BANK30  BANK31  BANK32  BANK33  BANK34  BANK35  BANK36  BANK37  BANK38  BANK39  BANK40  BANK4
      +1  BANK42  BANK43  BANK44  BANK45  BANK46  BANK47  BANK48  BANK49  BANK50
  3230 ;;      Params:         0       0       0       0       0       0       0       0       0       0       0       0       
      +0       0       0       0       0       0       0       0       0       0       0       0       0       0       0       
      +0       0       0       0       0       0       0       0       0       0       0       0       0       0       0       
      +0       0       0       0       0       0       0       0       0       0
  3231 ;;      Locals:         0       6       0       0       0       0       0       0       0       0       0       0       
      +0       0       0       0       0       0       0       0       0       0       0       0       0       0       0       
      +0       0       0       0       0       0       0       0       0       0       0       0       0       0       0       
      +0       0       0       0       0       0       0       0       0       0
  3232 ;;      Temps:          0       2       0       0       0       0       0       0       0       0       0       0       
      +0       0       0       0       0       0       0       0       0       0       0       0       0       0       0       
      +0       0       0       0       0       0       0       0       0       0       0       0       0       0       0       
      +0       0       0       0       0       0       0       0       0       0
  3233 ;;      Totals:         0       8       0       0       0       0       0       0       0       0       0       0       
      +0       0       0       0       0       0       0       0       0       0       0       0       0       0       0       
      +0       0       0       0       0       0       0       0       0       0       0       0       0       0       0       
      +0       0       0       0       0       0       0       0       0       0
  3234 ;;Total ram usage:        8 bytes
  3235 ;; Hardware stack levels used:    1
  3236 ;; Hardware stack levels required when called:    2
  3237 ;; This function calls:
  3238 ;;		___awtoft
  3239 ;;		___ftadd
  3240 ;;		___ftmul
  3241 ;;		___ftneg
  3242 ;;		___fttol
  3243 ;; This function is called by:
  3244 ;;		_main
  3245 ;; This function uses a non-reentrant model
  3246 ;;
  3247                           
  3248                           
  3249                           ;psect for function _formula
  3250  0B2E                     _formula:	
  3251                           
  3252                           ;main.c: 114: PORTB=0;
  3253                           
  3254                           ;incstack = 0
  3255                           ; Regs used in _formula: [wreg+status,2+status,0+pclath+cstack]
  3256  0B2E  0140               	movlb	0	; select bank0
  3257  0B2F  018D               	clrf	13	;volatile
  3258                           
  3259                           ;main.c: 115: TRISB=0b11111111;
  3260  0B30  30FF               	movlw	255
  3261  0B31  0092               	movwf	18	;volatile
  3262                           
  3263                           ;main.c: 116: if(error<-500){
  3264  0B32  0141               	movlb	1	; select bank1
  3265  0B33  0860               	movf	(_error+1)^(0+128),w
  3266  0B34  3A80               	xorlw	128
  3267  0B35  0140               	movlb	0	; select bank0
  3268  0B36  00DE               	movwf	??_formula
  3269  0B37  307E               	movlw	126
  3270  0B38  025E               	subwf	??_formula,w
  3271  0B39  1D03               	skipz
  3272  0B3A  2B3E               	goto	u1545
  3273  0B3B  300C               	movlw	12
  3274  0B3C  0141               	movlb	1	; select bank1
  3275  0B3D  025F               	subwf	_error^(0+128),w
  3276  0B3E                     u1545:	
  3277  0B3E  1803               	skipnc
  3278  0B3F  2C83               	goto	l1494
  3279                           
  3280                           ;main.c: 119: TRISBbits.TRISB0=0;
  3281  0B40  0140               	movlb	0	; select bank0
  3282  0B41  1012               	bcf	18,0	;volatile
  3283                           
  3284                           ;main.c: 120: TRISBbits.TRISB1=1;
  3285  0B42  1492               	bsf	18,1	;volatile
  3286                           
  3287                           ;main.c: 121: TRISBbits.TRISB2=1;
  3288  0B43  1512               	bsf	18,2	;volatile
  3289                           
  3290                           ;main.c: 122: TRISBbits.TRISB3=0;
  3291  0B44  1192               	bcf	18,3	;volatile
  3292                           
  3293                           ;main.c: 123: CCPR1=velocidad+(int)((-1)*((kp*(double)error)+kd*((double)error-(double)e
      +                          rrorant)));
  3294  0B45  0141               	movlb	1	; select bank1
  3295  0B46  0860               	movf	(_error+1)^(0+128),w
  3296  0B47  00F9               	movwf	___awtoft@c+1
  3297  0B48  085F               	movf	_error^(0+128),w
  3298  0B49  00F8               	movwf	___awtoft@c
  3299  0B4A  3180  200C  318B   	fcall	___awtoft
  3300  0B4D  0878               	movf	?___awtoft,w
  3301  0B4E  0140               	movlb	0	; select bank0
  3302  0B4F  00B6               	movwf	___ftadd@f2
  3303  0B50  0879               	movf	?___awtoft+1,w
  3304  0B51  00B7               	movwf	___ftadd@f2+1
  3305  0B52  087A               	movf	?___awtoft+2,w
  3306  0B53  00B8               	movwf	___ftadd@f2+2
  3307  0B54  086E               	movf	_errorant+1,w
  3308  0B55  00F9               	movwf	___awtoft@c+1
  3309  0B56  086D               	movf	_errorant,w
  3310  0B57  00F8               	movwf	___awtoft@c
  3311  0B58  3180  200C  318B   	fcall	___awtoft
  3312  0B5B  0878               	movf	?___awtoft,w
  3313  0B5C  0140               	movlb	0	; select bank0
  3314  0B5D  00A0               	movwf	___ftneg@f1
  3315  0B5E  0879               	movf	?___awtoft+1,w
  3316  0B5F  00A1               	movwf	___ftneg@f1+1
  3317  0B60  087A               	movf	?___awtoft+2,w
  3318  0B61  00A2               	movwf	___ftneg@f1+2
  3319  0B62  3188  20FE  318B   	fcall	___ftneg
  3320  0B65  0140               	movlb	0	; select bank0
  3321  0B66  0820               	movf	?___ftneg,w
  3322  0B67  00B3               	movwf	___ftadd@f1
  3323  0B68  0821               	movf	?___ftneg+1,w
  3324  0B69  00B4               	movwf	___ftadd@f1+1
  3325  0B6A  0822               	movf	?___ftneg+2,w
  3326  0B6B  00B5               	movwf	___ftadd@f1+2
  3327  0B6C  3180  20E0  318B   	fcall	___ftadd
  3328  0B6F  0140               	movlb	0	; select bank0
  3329  0B70  0833               	movf	?___ftadd,w
  3330  0B71  00A6               	movwf	___ftmul@f2
  3331  0B72  0834               	movf	?___ftadd+1,w
  3332  0B73  00A7               	movwf	___ftmul@f2+1
  3333  0B74  0835               	movf	?___ftadd+2,w
  3334  0B75  00A8               	movwf	___ftmul@f2+2
  3335  0B76  0141               	movlb	1	; select bank1
  3336  0B77  0867               	movf	_kd^(0+128),w
  3337  0B78  0140               	movlb	0	; select bank0
  3338  0B79  00A3               	movwf	___ftmul@f1
  3339  0B7A  0141               	movlb	1	; select bank1
  3340  0B7B  0868               	movf	(_kd+1)^(0+128),w
  3341  0B7C  0140               	movlb	0	; select bank0
  3342  0B7D  00A4               	movwf	___ftmul@f1+1
  3343  0B7E  0141               	movlb	1	; select bank1
  3344  0B7F  0869               	movf	(_kd+2)^(0+128),w
  3345  0B80  0140               	movlb	0	; select bank0
  3346  0B81  00A5               	movwf	___ftmul@f1+2
  3347  0B82  3180  202C  318B   	fcall	___ftmul
  3348  0B85  0140               	movlb	0	; select bank0
  3349  0B86  0823               	movf	?___ftmul,w
  3350  0B87  00E3               	movwf	_formula$1042
  3351  0B88  0824               	movf	?___ftmul+1,w
  3352  0B89  00E4               	movwf	_formula$1042+1
  3353  0B8A  0825               	movf	?___ftmul+2,w
  3354  0B8B  00E5               	movwf	_formula$1042+2
  3355                           
  3356                           ;main.c: 123: CCPR1=velocidad+(int)((-1)*((kp*(double)error)+kd*((double)error-(double)e
      +                          rrorant)));
  3357  0B8C  0141               	movlb	1	; select bank1
  3358  0B8D  0860               	movf	(_error+1)^(0+128),w
  3359  0B8E  00F9               	movwf	___awtoft@c+1
  3360  0B8F  085F               	movf	_error^(0+128),w
  3361  0B90  00F8               	movwf	___awtoft@c
  3362  0B91  3180  200C  318B   	fcall	___awtoft
  3363  0B94  0878               	movf	?___awtoft,w
  3364  0B95  0140               	movlb	0	; select bank0
  3365  0B96  00A6               	movwf	___ftmul@f2
  3366  0B97  0879               	movf	?___awtoft+1,w
  3367  0B98  00A7               	movwf	___ftmul@f2+1
  3368  0B99  087A               	movf	?___awtoft+2,w
  3369  0B9A  00A8               	movwf	___ftmul@f2+2
  3370  0B9B  0868               	movf	_kp,w
  3371  0B9C  00A3               	movwf	___ftmul@f1
  3372  0B9D  0869               	movf	_kp+1,w
  3373  0B9E  00A4               	movwf	___ftmul@f1+1
  3374  0B9F  086A               	movf	_kp+2,w
  3375  0BA0  00A5               	movwf	___ftmul@f1+2
  3376  0BA1  3180  202C  318B   	fcall	___ftmul
  3377  0BA4  0140               	movlb	0	; select bank0
  3378  0BA5  0823               	movf	?___ftmul,w
  3379  0BA6  00B6               	movwf	___ftadd@f2
  3380  0BA7  0824               	movf	?___ftmul+1,w
  3381  0BA8  00B7               	movwf	___ftadd@f2+1
  3382  0BA9  0825               	movf	?___ftmul+2,w
  3383  0BAA  00B8               	movwf	___ftadd@f2+2
  3384  0BAB  0863               	movf	_formula$1042,w
  3385  0BAC  00B3               	movwf	___ftadd@f1
  3386  0BAD  0864               	movf	_formula$1042+1,w
  3387  0BAE  00B4               	movwf	___ftadd@f1+1
  3388  0BAF  0865               	movf	_formula$1042+2,w
  3389  0BB0  00B5               	movwf	___ftadd@f1+2
  3390  0BB1  3180  20E0  318B   	fcall	___ftadd
  3391  0BB4  0140               	movlb	0	; select bank0
  3392  0BB5  0833               	movf	?___ftadd,w
  3393  0BB6  00E0               	movwf	_formula$1043
  3394  0BB7  0834               	movf	?___ftadd+1,w
  3395  0BB8  00E1               	movwf	_formula$1043+1
  3396  0BB9  0835               	movf	?___ftadd+2,w
  3397  0BBA  00E2               	movwf	_formula$1043+2
  3398                           
  3399                           ;main.c: 123: CCPR1=velocidad+(int)((-1)*((kp*(double)error)+kd*((double)error-(double)e
      +                          rrorant)));
  3400  0BBB  0860               	movf	_formula$1043,w
  3401  0BBC  00A6               	movwf	___ftmul@f2
  3402  0BBD  0861               	movf	_formula$1043+1,w
  3403  0BBE  00A7               	movwf	___ftmul@f2+1
  3404  0BBF  0862               	movf	_formula$1043+2,w
  3405  0BC0  00A8               	movwf	___ftmul@f2+2
  3406  0BC1  3000               	movlw	0
  3407  0BC2  00A3               	movwf	___ftmul@f1
  3408  0BC3  3080               	movlw	128
  3409  0BC4  00A4               	movwf	___ftmul@f1+1
  3410  0BC5  30BF               	movlw	191
  3411  0BC6  00A5               	movwf	___ftmul@f1+2
  3412  0BC7  3180  202C  318B   	fcall	___ftmul
  3413  0BCA  0140               	movlb	0	; select bank0
  3414  0BCB  0823               	movf	?___ftmul,w
  3415  0BCC  00D0               	movwf	___fttol@f1
  3416  0BCD  0824               	movf	?___ftmul+1,w
  3417  0BCE  00D1               	movwf	___fttol@f1+1
  3418  0BCF  0825               	movf	?___ftmul+2,w
  3419  0BD0  00D2               	movwf	___fttol@f1+2
  3420  0BD1  3189  216B  318B   	fcall	___fttol
  3421  0BD4  0140               	movlb	0	; select bank0
  3422  0BD5  086B               	movf	_velocidad,w
  3423  0BD6  0750               	addwf	?___fttol,w
  3424  0BD7  00DE               	movwf	??_formula
  3425  0BD8  086C               	movf	_velocidad+1,w
  3426  0BD9  3D51               	addwfc	?___fttol+1,w
  3427  0BDA  00DF               	movwf	??_formula+1
  3428  0BDB  085E               	movf	??_formula,w
  3429  0BDC  0146               	movlb	6	; select bank6
  3430  0BDD  008C               	movwf	12	;volatile
  3431  0BDE  0140               	movlb	0	; select bank0
  3432  0BDF  085F               	movf	??_formula+1,w
  3433  0BE0  0146               	movlb	6	; select bank6
  3434  0BE1  008D               	movwf	13	;volatile
  3435                           
  3436                           ;main.c: 124: CCPR2=0;
  3437  0BE2  0190               	clrf	16	;volatile
  3438  0BE3  0191               	clrf	17	;volatile
  3439                           
  3440                           ;main.c: 125: CCPR3=0;
  3441  0BE4  0194               	clrf	20	;volatile
  3442  0BE5  0195               	clrf	21	;volatile
  3443                           
  3444                           ;main.c: 126: CCPR4=velocidad+(int)((-1)*((kp*(double)error)+kd*((double)error-(double)e
      +                          rrorant)));
  3445  0BE6  0141               	movlb	1	; select bank1
  3446  0BE7  0860               	movf	(_error+1)^(0+128),w
  3447  0BE8  00F9               	movwf	___awtoft@c+1
  3448  0BE9  085F               	movf	_error^(0+128),w
  3449  0BEA  00F8               	movwf	___awtoft@c
  3450  0BEB  3180  200C  318B   	fcall	___awtoft
  3451  0BEE  0878               	movf	?___awtoft,w
  3452  0BEF  0140               	movlb	0	; select bank0
  3453  0BF0  00B6               	movwf	___ftadd@f2
  3454  0BF1  0879               	movf	?___awtoft+1,w
  3455  0BF2  00B7               	movwf	___ftadd@f2+1
  3456  0BF3  087A               	movf	?___awtoft+2,w
  3457  0BF4  00B8               	movwf	___ftadd@f2+2
  3458  0BF5  086E               	movf	_errorant+1,w
  3459  0BF6  00F9               	movwf	___awtoft@c+1
  3460  0BF7  086D               	movf	_errorant,w
  3461  0BF8  00F8               	movwf	___awtoft@c
  3462  0BF9  3180  200C  318B   	fcall	___awtoft
  3463  0BFC  0878               	movf	?___awtoft,w
  3464  0BFD  0140               	movlb	0	; select bank0
  3465  0BFE  00A0               	movwf	___ftneg@f1
  3466  0BFF  0879               	movf	?___awtoft+1,w
  3467  0C00  00A1               	movwf	___ftneg@f1+1
  3468  0C01  087A               	movf	?___awtoft+2,w
  3469  0C02  00A2               	movwf	___ftneg@f1+2
  3470  0C03  3188  20FE  318B   	fcall	___ftneg
  3471  0C06  0140               	movlb	0	; select bank0
  3472  0C07  0820               	movf	?___ftneg,w
  3473  0C08  00B3               	movwf	___ftadd@f1
  3474  0C09  0821               	movf	?___ftneg+1,w
  3475  0C0A  00B4               	movwf	___ftadd@f1+1
  3476  0C0B  0822               	movf	?___ftneg+2,w
  3477  0C0C  00B5               	movwf	___ftadd@f1+2
  3478  0C0D  3180  20E0  318B   	fcall	___ftadd
  3479  0C10  0140               	movlb	0	; select bank0
  3480  0C11  0833               	movf	?___ftadd,w
  3481  0C12  00A6               	movwf	___ftmul@f2
  3482  0C13  0834               	movf	?___ftadd+1,w
  3483  0C14  00A7               	movwf	___ftmul@f2+1
  3484  0C15  0835               	movf	?___ftadd+2,w
  3485  0C16  00A8               	movwf	___ftmul@f2+2
  3486  0C17  0141               	movlb	1	; select bank1
  3487  0C18  0867               	movf	_kd^(0+128),w
  3488  0C19  0140               	movlb	0	; select bank0
  3489  0C1A  00A3               	movwf	___ftmul@f1
  3490  0C1B  0141               	movlb	1	; select bank1
  3491  0C1C  0868               	movf	(_kd+1)^(0+128),w
  3492  0C1D  0140               	movlb	0	; select bank0
  3493  0C1E  00A4               	movwf	___ftmul@f1+1
  3494  0C1F  0141               	movlb	1	; select bank1
  3495  0C20  0869               	movf	(_kd+2)^(0+128),w
  3496  0C21  0140               	movlb	0	; select bank0
  3497  0C22  00A5               	movwf	___ftmul@f1+2
  3498  0C23  3180  202C  318B   	fcall	___ftmul
  3499  0C26  0140               	movlb	0	; select bank0
  3500  0C27  0823               	movf	?___ftmul,w
  3501  0C28  00E3               	movwf	_formula$1042
  3502  0C29  0824               	movf	?___ftmul+1,w
  3503  0C2A  00E4               	movwf	_formula$1042+1
  3504  0C2B  0825               	movf	?___ftmul+2,w
  3505  0C2C  00E5               	movwf	_formula$1042+2
  3506                           
  3507                           ;main.c: 126: CCPR4=velocidad+(int)((-1)*((kp*(double)error)+kd*((double)error-(double)e
      +                          rrorant)));
  3508  0C2D  0141               	movlb	1	; select bank1
  3509  0C2E  0860               	movf	(_error+1)^(0+128),w
  3510  0C2F  00F9               	movwf	___awtoft@c+1
  3511  0C30  085F               	movf	_error^(0+128),w
  3512  0C31  00F8               	movwf	___awtoft@c
  3513  0C32  3180  200C  318B   	fcall	___awtoft
  3514  0C35  0878               	movf	?___awtoft,w
  3515  0C36  0140               	movlb	0	; select bank0
  3516  0C37  00A6               	movwf	___ftmul@f2
  3517  0C38  0879               	movf	?___awtoft+1,w
  3518  0C39  00A7               	movwf	___ftmul@f2+1
  3519  0C3A  087A               	movf	?___awtoft+2,w
  3520  0C3B  00A8               	movwf	___ftmul@f2+2
  3521  0C3C  0868               	movf	_kp,w
  3522  0C3D  00A3               	movwf	___ftmul@f1
  3523  0C3E  0869               	movf	_kp+1,w
  3524  0C3F  00A4               	movwf	___ftmul@f1+1
  3525  0C40  086A               	movf	_kp+2,w
  3526  0C41  00A5               	movwf	___ftmul@f1+2
  3527  0C42  3180  202C  318B   	fcall	___ftmul
  3528  0C45  0140               	movlb	0	; select bank0
  3529  0C46  0823               	movf	?___ftmul,w
  3530  0C47  00B6               	movwf	___ftadd@f2
  3531  0C48  0824               	movf	?___ftmul+1,w
  3532  0C49  00B7               	movwf	___ftadd@f2+1
  3533  0C4A  0825               	movf	?___ftmul+2,w
  3534  0C4B  00B8               	movwf	___ftadd@f2+2
  3535  0C4C  0863               	movf	_formula$1042,w
  3536  0C4D  00B3               	movwf	___ftadd@f1
  3537  0C4E  0864               	movf	_formula$1042+1,w
  3538  0C4F  00B4               	movwf	___ftadd@f1+1
  3539  0C50  0865               	movf	_formula$1042+2,w
  3540  0C51  00B5               	movwf	___ftadd@f1+2
  3541  0C52  3180  20E0  318B   	fcall	___ftadd
  3542  0C55  0140               	movlb	0	; select bank0
  3543  0C56  0833               	movf	?___ftadd,w
  3544  0C57  00E0               	movwf	_formula$1043
  3545  0C58  0834               	movf	?___ftadd+1,w
  3546  0C59  00E1               	movwf	_formula$1043+1
  3547  0C5A  0835               	movf	?___ftadd+2,w
  3548  0C5B  00E2               	movwf	_formula$1043+2
  3549                           
  3550                           ;main.c: 126: CCPR4=velocidad+(int)((-1)*((kp*(double)error)+kd*((double)error-(double)e
      +                          rrorant)));
  3551  0C5C  0860               	movf	_formula$1043,w
  3552  0C5D  00A6               	movwf	___ftmul@f2
  3553  0C5E  0861               	movf	_formula$1043+1,w
  3554  0C5F  00A7               	movwf	___ftmul@f2+1
  3555  0C60  0862               	movf	_formula$1043+2,w
  3556  0C61  00A8               	movwf	___ftmul@f2+2
  3557  0C62  3000               	movlw	0
  3558  0C63  00A3               	movwf	___ftmul@f1
  3559  0C64  3080               	movlw	128
  3560  0C65  00A4               	movwf	___ftmul@f1+1
  3561  0C66  30BF               	movlw	191
  3562  0C67  00A5               	movwf	___ftmul@f1+2
  3563  0C68  3180  202C  318B   	fcall	___ftmul
  3564  0C6B  0140               	movlb	0	; select bank0
  3565  0C6C  0823               	movf	?___ftmul,w
  3566  0C6D  00D0               	movwf	___fttol@f1
  3567  0C6E  0824               	movf	?___ftmul+1,w
  3568  0C6F  00D1               	movwf	___fttol@f1+1
  3569  0C70  0825               	movf	?___ftmul+2,w
  3570  0C71  00D2               	movwf	___fttol@f1+2
  3571  0C72  3189  216B         	fcall	___fttol
  3572  0C74  0140               	movlb	0	; select bank0
  3573  0C75  086B               	movf	_velocidad,w
  3574  0C76  0750               	addwf	?___fttol,w
  3575  0C77  00DE               	movwf	??_formula
  3576  0C78  086C               	movf	_velocidad+1,w
  3577  0C79  3D51               	addwfc	?___fttol+1,w
  3578  0C7A  00DF               	movwf	??_formula+1
  3579  0C7B  085E               	movf	??_formula,w
  3580  0C7C  0146               	movlb	6	; select bank6
  3581  0C7D  0098               	movwf	24	;volatile
  3582  0C7E  0140               	movlb	0	; select bank0
  3583  0C7F  085F               	movf	??_formula+1,w
  3584  0C80  0146               	movlb	6	; select bank6
  3585  0C81  0099               	movwf	25	;volatile
  3586                           
  3587                           ;main.c: 128: }else if(error>500){
  3588  0C82  0008               	return
  3589  0C83                     l1494:	
  3590  0C83  0141               	movlb	1	; select bank1
  3591  0C84  0860               	movf	(_error+1)^(0+128),w
  3592  0C85  3A80               	xorlw	128
  3593  0C86  0140               	movlb	0	; select bank0
  3594  0C87  00DE               	movwf	??_formula
  3595  0C88  3081               	movlw	129
  3596  0C89  025E               	subwf	??_formula,w
  3597  0C8A  1D03               	skipz
  3598  0C8B  2C8F               	goto	u1555
  3599  0C8C  30F5               	movlw	245
  3600  0C8D  0141               	movlb	1	; select bank1
  3601  0C8E  025F               	subwf	_error^(0+128),w
  3602  0C8F                     u1555:	
  3603  0C8F  1C03               	skipc
  3604  0C90  2DA9               	goto	l128
  3605                           
  3606                           ;main.c: 131: TRISBbits.TRISB0=1;
  3607  0C91  0140               	movlb	0	; select bank0
  3608  0C92  1412               	bsf	18,0	;volatile
  3609                           
  3610                           ;main.c: 132: TRISBbits.TRISB1=0;
  3611  0C93  1092               	bcf	18,1	;volatile
  3612                           
  3613                           ;main.c: 133: TRISBbits.TRISB2=0;
  3614  0C94  1112               	bcf	18,2	;volatile
  3615                           
  3616                           ;main.c: 134: TRISBbits.TRISB3=1;
  3617  0C95  1592               	bsf	18,3	;volatile
  3618                           
  3619                           ;main.c: 135: CCPR1=0;
  3620  0C96  0146               	movlb	6	; select bank6
  3621  0C97  018C               	clrf	12	;volatile
  3622  0C98  018D               	clrf	13	;volatile
  3623                           
  3624                           ;main.c: 136: CCPR2=velocidad+(int)((kp*(double)error)+kd*((double)error-(double)erroran
      +                          t));
  3625  0C99  0141               	movlb	1	; select bank1
  3626  0C9A  0860               	movf	(_error+1)^(0+128),w
  3627  0C9B  00F9               	movwf	___awtoft@c+1
  3628  0C9C  085F               	movf	_error^(0+128),w
  3629  0C9D  00F8               	movwf	___awtoft@c
  3630  0C9E  3180  200C  318B   	fcall	___awtoft
  3631  0CA1  0878               	movf	?___awtoft,w
  3632  0CA2  0140               	movlb	0	; select bank0
  3633  0CA3  00B6               	movwf	___ftadd@f2
  3634  0CA4  0879               	movf	?___awtoft+1,w
  3635  0CA5  00B7               	movwf	___ftadd@f2+1
  3636  0CA6  087A               	movf	?___awtoft+2,w
  3637  0CA7  00B8               	movwf	___ftadd@f2+2
  3638  0CA8  086E               	movf	_errorant+1,w
  3639  0CA9  00F9               	movwf	___awtoft@c+1
  3640  0CAA  086D               	movf	_errorant,w
  3641  0CAB  00F8               	movwf	___awtoft@c
  3642  0CAC  3180  200C  318B   	fcall	___awtoft
  3643  0CAF  0878               	movf	?___awtoft,w
  3644  0CB0  0140               	movlb	0	; select bank0
  3645  0CB1  00A0               	movwf	___ftneg@f1
  3646  0CB2  0879               	movf	?___awtoft+1,w
  3647  0CB3  00A1               	movwf	___ftneg@f1+1
  3648  0CB4  087A               	movf	?___awtoft+2,w
  3649  0CB5  00A2               	movwf	___ftneg@f1+2
  3650  0CB6  3188  20FE  318B   	fcall	___ftneg
  3651  0CB9  0140               	movlb	0	; select bank0
  3652  0CBA  0820               	movf	?___ftneg,w
  3653  0CBB  00B3               	movwf	___ftadd@f1
  3654  0CBC  0821               	movf	?___ftneg+1,w
  3655  0CBD  00B4               	movwf	___ftadd@f1+1
  3656  0CBE  0822               	movf	?___ftneg+2,w
  3657  0CBF  00B5               	movwf	___ftadd@f1+2
  3658  0CC0  3180  20E0  318B   	fcall	___ftadd
  3659  0CC3  0140               	movlb	0	; select bank0
  3660  0CC4  0833               	movf	?___ftadd,w
  3661  0CC5  00A6               	movwf	___ftmul@f2
  3662  0CC6  0834               	movf	?___ftadd+1,w
  3663  0CC7  00A7               	movwf	___ftmul@f2+1
  3664  0CC8  0835               	movf	?___ftadd+2,w
  3665  0CC9  00A8               	movwf	___ftmul@f2+2
  3666  0CCA  0141               	movlb	1	; select bank1
  3667  0CCB  0867               	movf	_kd^(0+128),w
  3668  0CCC  0140               	movlb	0	; select bank0
  3669  0CCD  00A3               	movwf	___ftmul@f1
  3670  0CCE  0141               	movlb	1	; select bank1
  3671  0CCF  0868               	movf	(_kd+1)^(0+128),w
  3672  0CD0  0140               	movlb	0	; select bank0
  3673  0CD1  00A4               	movwf	___ftmul@f1+1
  3674  0CD2  0141               	movlb	1	; select bank1
  3675  0CD3  0869               	movf	(_kd+2)^(0+128),w
  3676  0CD4  0140               	movlb	0	; select bank0
  3677  0CD5  00A5               	movwf	___ftmul@f1+2
  3678  0CD6  3180  202C  318B   	fcall	___ftmul
  3679  0CD9  0140               	movlb	0	; select bank0
  3680  0CDA  0823               	movf	?___ftmul,w
  3681  0CDB  00E3               	movwf	_formula$1042
  3682  0CDC  0824               	movf	?___ftmul+1,w
  3683  0CDD  00E4               	movwf	_formula$1042+1
  3684  0CDE  0825               	movf	?___ftmul+2,w
  3685  0CDF  00E5               	movwf	_formula$1042+2
  3686                           
  3687                           ;main.c: 136: CCPR2=velocidad+(int)((kp*(double)error)+kd*((double)error-(double)erroran
      +                          t));
  3688  0CE0  0141               	movlb	1	; select bank1
  3689  0CE1  0860               	movf	(_error+1)^(0+128),w
  3690  0CE2  00F9               	movwf	___awtoft@c+1
  3691  0CE3  085F               	movf	_error^(0+128),w
  3692  0CE4  00F8               	movwf	___awtoft@c
  3693  0CE5  3180  200C  318B   	fcall	___awtoft
  3694  0CE8  0878               	movf	?___awtoft,w
  3695  0CE9  0140               	movlb	0	; select bank0
  3696  0CEA  00A6               	movwf	___ftmul@f2
  3697  0CEB  0879               	movf	?___awtoft+1,w
  3698  0CEC  00A7               	movwf	___ftmul@f2+1
  3699  0CED  087A               	movf	?___awtoft+2,w
  3700  0CEE  00A8               	movwf	___ftmul@f2+2
  3701  0CEF  0868               	movf	_kp,w
  3702  0CF0  00A3               	movwf	___ftmul@f1
  3703  0CF1  0869               	movf	_kp+1,w
  3704  0CF2  00A4               	movwf	___ftmul@f1+1
  3705  0CF3  086A               	movf	_kp+2,w
  3706  0CF4  00A5               	movwf	___ftmul@f1+2
  3707  0CF5  3180  202C  318B   	fcall	___ftmul
  3708  0CF8  0140               	movlb	0	; select bank0
  3709  0CF9  0823               	movf	?___ftmul,w
  3710  0CFA  00B6               	movwf	___ftadd@f2
  3711  0CFB  0824               	movf	?___ftmul+1,w
  3712  0CFC  00B7               	movwf	___ftadd@f2+1
  3713  0CFD  0825               	movf	?___ftmul+2,w
  3714  0CFE  00B8               	movwf	___ftadd@f2+2
  3715  0CFF  0863               	movf	_formula$1042,w
  3716  0D00  00B3               	movwf	___ftadd@f1
  3717  0D01  0864               	movf	_formula$1042+1,w
  3718  0D02  00B4               	movwf	___ftadd@f1+1
  3719  0D03  0865               	movf	_formula$1042+2,w
  3720  0D04  00B5               	movwf	___ftadd@f1+2
  3721  0D05  3180  20E0  318B   	fcall	___ftadd
  3722  0D08  0140               	movlb	0	; select bank0
  3723  0D09  0833               	movf	?___ftadd,w
  3724  0D0A  00D0               	movwf	___fttol@f1
  3725  0D0B  0834               	movf	?___ftadd+1,w
  3726  0D0C  00D1               	movwf	___fttol@f1+1
  3727  0D0D  0835               	movf	?___ftadd+2,w
  3728  0D0E  00D2               	movwf	___fttol@f1+2
  3729  0D0F  3189  216B  318B   	fcall	___fttol
  3730  0D12  0140               	movlb	0	; select bank0
  3731  0D13  086B               	movf	_velocidad,w
  3732  0D14  0750               	addwf	?___fttol,w
  3733  0D15  00DE               	movwf	??_formula
  3734  0D16  086C               	movf	_velocidad+1,w
  3735  0D17  3D51               	addwfc	?___fttol+1,w
  3736  0D18  00DF               	movwf	??_formula+1
  3737  0D19  085E               	movf	??_formula,w
  3738  0D1A  0146               	movlb	6	; select bank6
  3739  0D1B  0090               	movwf	16	;volatile
  3740  0D1C  0140               	movlb	0	; select bank0
  3741  0D1D  085F               	movf	??_formula+1,w
  3742  0D1E  0146               	movlb	6	; select bank6
  3743  0D1F  0091               	movwf	17	;volatile
  3744                           
  3745                           ;main.c: 137: CCPR3=velocidad+(int)((kp*(double)error)+kd*((double)error-(double)erroran
      +                          t));
  3746  0D20  0141               	movlb	1	; select bank1
  3747  0D21  0860               	movf	(_error+1)^(0+128),w
  3748  0D22  00F9               	movwf	___awtoft@c+1
  3749  0D23  085F               	movf	_error^(0+128),w
  3750  0D24  00F8               	movwf	___awtoft@c
  3751  0D25  3180  200C  318B   	fcall	___awtoft
  3752  0D28  0878               	movf	?___awtoft,w
  3753  0D29  0140               	movlb	0	; select bank0
  3754  0D2A  00B6               	movwf	___ftadd@f2
  3755  0D2B  0879               	movf	?___awtoft+1,w
  3756  0D2C  00B7               	movwf	___ftadd@f2+1
  3757  0D2D  087A               	movf	?___awtoft+2,w
  3758  0D2E  00B8               	movwf	___ftadd@f2+2
  3759  0D2F  086E               	movf	_errorant+1,w
  3760  0D30  00F9               	movwf	___awtoft@c+1
  3761  0D31  086D               	movf	_errorant,w
  3762  0D32  00F8               	movwf	___awtoft@c
  3763  0D33  3180  200C  318B   	fcall	___awtoft
  3764  0D36  0878               	movf	?___awtoft,w
  3765  0D37  0140               	movlb	0	; select bank0
  3766  0D38  00A0               	movwf	___ftneg@f1
  3767  0D39  0879               	movf	?___awtoft+1,w
  3768  0D3A  00A1               	movwf	___ftneg@f1+1
  3769  0D3B  087A               	movf	?___awtoft+2,w
  3770  0D3C  00A2               	movwf	___ftneg@f1+2
  3771  0D3D  3188  20FE  318B   	fcall	___ftneg
  3772  0D40  0140               	movlb	0	; select bank0
  3773  0D41  0820               	movf	?___ftneg,w
  3774  0D42  00B3               	movwf	___ftadd@f1
  3775  0D43  0821               	movf	?___ftneg+1,w
  3776  0D44  00B4               	movwf	___ftadd@f1+1
  3777  0D45  0822               	movf	?___ftneg+2,w
  3778  0D46  00B5               	movwf	___ftadd@f1+2
  3779  0D47  3180  20E0  318B   	fcall	___ftadd
  3780  0D4A  0140               	movlb	0	; select bank0
  3781  0D4B  0833               	movf	?___ftadd,w
  3782  0D4C  00A6               	movwf	___ftmul@f2
  3783  0D4D  0834               	movf	?___ftadd+1,w
  3784  0D4E  00A7               	movwf	___ftmul@f2+1
  3785  0D4F  0835               	movf	?___ftadd+2,w
  3786  0D50  00A8               	movwf	___ftmul@f2+2
  3787  0D51  0141               	movlb	1	; select bank1
  3788  0D52  0867               	movf	_kd^(0+128),w
  3789  0D53  0140               	movlb	0	; select bank0
  3790  0D54  00A3               	movwf	___ftmul@f1
  3791  0D55  0141               	movlb	1	; select bank1
  3792  0D56  0868               	movf	(_kd+1)^(0+128),w
  3793  0D57  0140               	movlb	0	; select bank0
  3794  0D58  00A4               	movwf	___ftmul@f1+1
  3795  0D59  0141               	movlb	1	; select bank1
  3796  0D5A  0869               	movf	(_kd+2)^(0+128),w
  3797  0D5B  0140               	movlb	0	; select bank0
  3798  0D5C  00A5               	movwf	___ftmul@f1+2
  3799  0D5D  3180  202C  318B   	fcall	___ftmul
  3800  0D60  0140               	movlb	0	; select bank0
  3801  0D61  0823               	movf	?___ftmul,w
  3802  0D62  00E3               	movwf	_formula$1042
  3803  0D63  0824               	movf	?___ftmul+1,w
  3804  0D64  00E4               	movwf	_formula$1042+1
  3805  0D65  0825               	movf	?___ftmul+2,w
  3806  0D66  00E5               	movwf	_formula$1042+2
  3807                           
  3808                           ;main.c: 137: CCPR3=velocidad+(int)((kp*(double)error)+kd*((double)error-(double)erroran
      +                          t));
  3809  0D67  0141               	movlb	1	; select bank1
  3810  0D68  0860               	movf	(_error+1)^(0+128),w
  3811  0D69  00F9               	movwf	___awtoft@c+1
  3812  0D6A  085F               	movf	_error^(0+128),w
  3813  0D6B  00F8               	movwf	___awtoft@c
  3814  0D6C  3180  200C  318B   	fcall	___awtoft
  3815  0D6F  0878               	movf	?___awtoft,w
  3816  0D70  0140               	movlb	0	; select bank0
  3817  0D71  00A6               	movwf	___ftmul@f2
  3818  0D72  0879               	movf	?___awtoft+1,w
  3819  0D73  00A7               	movwf	___ftmul@f2+1
  3820  0D74  087A               	movf	?___awtoft+2,w
  3821  0D75  00A8               	movwf	___ftmul@f2+2
  3822  0D76  0868               	movf	_kp,w
  3823  0D77  00A3               	movwf	___ftmul@f1
  3824  0D78  0869               	movf	_kp+1,w
  3825  0D79  00A4               	movwf	___ftmul@f1+1
  3826  0D7A  086A               	movf	_kp+2,w
  3827  0D7B  00A5               	movwf	___ftmul@f1+2
  3828  0D7C  3180  202C  318B   	fcall	___ftmul
  3829  0D7F  0140               	movlb	0	; select bank0
  3830  0D80  0823               	movf	?___ftmul,w
  3831  0D81  00B6               	movwf	___ftadd@f2
  3832  0D82  0824               	movf	?___ftmul+1,w
  3833  0D83  00B7               	movwf	___ftadd@f2+1
  3834  0D84  0825               	movf	?___ftmul+2,w
  3835  0D85  00B8               	movwf	___ftadd@f2+2
  3836  0D86  0863               	movf	_formula$1042,w
  3837  0D87  00B3               	movwf	___ftadd@f1
  3838  0D88  0864               	movf	_formula$1042+1,w
  3839  0D89  00B4               	movwf	___ftadd@f1+1
  3840  0D8A  0865               	movf	_formula$1042+2,w
  3841  0D8B  00B5               	movwf	___ftadd@f1+2
  3842  0D8C  3180  20E0  318B   	fcall	___ftadd
  3843  0D8F  0140               	movlb	0	; select bank0
  3844  0D90  0833               	movf	?___ftadd,w
  3845  0D91  00D0               	movwf	___fttol@f1
  3846  0D92  0834               	movf	?___ftadd+1,w
  3847  0D93  00D1               	movwf	___fttol@f1+1
  3848  0D94  0835               	movf	?___ftadd+2,w
  3849  0D95  00D2               	movwf	___fttol@f1+2
  3850  0D96  3189  216B         	fcall	___fttol
  3851  0D98  0140               	movlb	0	; select bank0
  3852  0D99  086B               	movf	_velocidad,w
  3853  0D9A  0750               	addwf	?___fttol,w
  3854  0D9B  00DE               	movwf	??_formula
  3855  0D9C  086C               	movf	_velocidad+1,w
  3856  0D9D  3D51               	addwfc	?___fttol+1,w
  3857  0D9E  00DF               	movwf	??_formula+1
  3858  0D9F  085E               	movf	??_formula,w
  3859  0DA0  0146               	movlb	6	; select bank6
  3860  0DA1  0094               	movwf	20	;volatile
  3861  0DA2  0140               	movlb	0	; select bank0
  3862  0DA3  085F               	movf	??_formula+1,w
  3863  0DA4  0146               	movlb	6	; select bank6
  3864  0DA5  0095               	movwf	21	;volatile
  3865                           
  3866                           ;main.c: 138: CCPR4=0;
  3867  0DA6  0198               	clrf	24	;volatile
  3868  0DA7  0199               	clrf	25	;volatile
  3869                           
  3870                           ;main.c: 139: }else {
  3871  0DA8  0008               	return
  3872  0DA9                     l128:	
  3873                           
  3874                           ;main.c: 144: TRISBbits.TRISB0=0;
  3875  0DA9  0140               	movlb	0	; select bank0
  3876  0DAA  1012               	bcf	18,0	;volatile
  3877                           
  3878                           ;main.c: 145: TRISBbits.TRISB1=0;
  3879  0DAB  1092               	bcf	18,1	;volatile
  3880                           
  3881                           ;main.c: 146: TRISBbits.TRISB2=0;
  3882  0DAC  1112               	bcf	18,2	;volatile
  3883                           
  3884                           ;main.c: 147: TRISBbits.TRISB3=0;
  3885  0DAD  1192               	bcf	18,3	;volatile
  3886                           
  3887                           ;main.c: 150: if(error<0){
  3888  0DAE  0141               	movlb	1	; select bank1
  3889  0DAF  1FE0               	btfss	(_error+1)^(0+128),7
  3890  0DB0  2EEE               	goto	l1518
  3891                           
  3892                           ;main.c: 151: CCPR1=velocidad+(int)((-1)*((kp*(double)error)+kd*((double)error-(double)e
      +                          rrorant)));
  3893  0DB1  0860               	movf	(_error+1)^(0+128),w
  3894  0DB2  00F9               	movwf	___awtoft@c+1
  3895  0DB3  085F               	movf	_error^(0+128),w
  3896  0DB4  00F8               	movwf	___awtoft@c
  3897  0DB5  3180  200C  318B   	fcall	___awtoft
  3898  0DB8  0878               	movf	?___awtoft,w
  3899  0DB9  0140               	movlb	0	; select bank0
  3900  0DBA  00B6               	movwf	___ftadd@f2
  3901  0DBB  0879               	movf	?___awtoft+1,w
  3902  0DBC  00B7               	movwf	___ftadd@f2+1
  3903  0DBD  087A               	movf	?___awtoft+2,w
  3904  0DBE  00B8               	movwf	___ftadd@f2+2
  3905  0DBF  086E               	movf	_errorant+1,w
  3906  0DC0  00F9               	movwf	___awtoft@c+1
  3907  0DC1  086D               	movf	_errorant,w
  3908  0DC2  00F8               	movwf	___awtoft@c
  3909  0DC3  3180  200C  318B   	fcall	___awtoft
  3910  0DC6  0878               	movf	?___awtoft,w
  3911  0DC7  0140               	movlb	0	; select bank0
  3912  0DC8  00A0               	movwf	___ftneg@f1
  3913  0DC9  0879               	movf	?___awtoft+1,w
  3914  0DCA  00A1               	movwf	___ftneg@f1+1
  3915  0DCB  087A               	movf	?___awtoft+2,w
  3916  0DCC  00A2               	movwf	___ftneg@f1+2
  3917  0DCD  3188  20FE  318B   	fcall	___ftneg
  3918  0DD0  0140               	movlb	0	; select bank0
  3919  0DD1  0820               	movf	?___ftneg,w
  3920  0DD2  00B3               	movwf	___ftadd@f1
  3921  0DD3  0821               	movf	?___ftneg+1,w
  3922  0DD4  00B4               	movwf	___ftadd@f1+1
  3923  0DD5  0822               	movf	?___ftneg+2,w
  3924  0DD6  00B5               	movwf	___ftadd@f1+2
  3925  0DD7  3180  20E0  318B   	fcall	___ftadd
  3926  0DDA  0140               	movlb	0	; select bank0
  3927  0DDB  0833               	movf	?___ftadd,w
  3928  0DDC  00A6               	movwf	___ftmul@f2
  3929  0DDD  0834               	movf	?___ftadd+1,w
  3930  0DDE  00A7               	movwf	___ftmul@f2+1
  3931  0DDF  0835               	movf	?___ftadd+2,w
  3932  0DE0  00A8               	movwf	___ftmul@f2+2
  3933  0DE1  0141               	movlb	1	; select bank1
  3934  0DE2  0867               	movf	_kd^(0+128),w
  3935  0DE3  0140               	movlb	0	; select bank0
  3936  0DE4  00A3               	movwf	___ftmul@f1
  3937  0DE5  0141               	movlb	1	; select bank1
  3938  0DE6  0868               	movf	(_kd+1)^(0+128),w
  3939  0DE7  0140               	movlb	0	; select bank0
  3940  0DE8  00A4               	movwf	___ftmul@f1+1
  3941  0DE9  0141               	movlb	1	; select bank1
  3942  0DEA  0869               	movf	(_kd+2)^(0+128),w
  3943  0DEB  0140               	movlb	0	; select bank0
  3944  0DEC  00A5               	movwf	___ftmul@f1+2
  3945  0DED  3180  202C  318B   	fcall	___ftmul
  3946  0DF0  0140               	movlb	0	; select bank0
  3947  0DF1  0823               	movf	?___ftmul,w
  3948  0DF2  00E3               	movwf	_formula$1042
  3949  0DF3  0824               	movf	?___ftmul+1,w
  3950  0DF4  00E4               	movwf	_formula$1042+1
  3951  0DF5  0825               	movf	?___ftmul+2,w
  3952  0DF6  00E5               	movwf	_formula$1042+2
  3953                           
  3954                           ;main.c: 151: CCPR1=velocidad+(int)((-1)*((kp*(double)error)+kd*((double)error-(double)e
      +                          rrorant)));
  3955  0DF7  0141               	movlb	1	; select bank1
  3956  0DF8  0860               	movf	(_error+1)^(0+128),w
  3957  0DF9  00F9               	movwf	___awtoft@c+1
  3958  0DFA  085F               	movf	_error^(0+128),w
  3959  0DFB  00F8               	movwf	___awtoft@c
  3960  0DFC  3180  200C  318B   	fcall	___awtoft
  3961  0DFF  0878               	movf	?___awtoft,w
  3962  0E00  0140               	movlb	0	; select bank0
  3963  0E01  00A6               	movwf	___ftmul@f2
  3964  0E02  0879               	movf	?___awtoft+1,w
  3965  0E03  00A7               	movwf	___ftmul@f2+1
  3966  0E04  087A               	movf	?___awtoft+2,w
  3967  0E05  00A8               	movwf	___ftmul@f2+2
  3968  0E06  0868               	movf	_kp,w
  3969  0E07  00A3               	movwf	___ftmul@f1
  3970  0E08  0869               	movf	_kp+1,w
  3971  0E09  00A4               	movwf	___ftmul@f1+1
  3972  0E0A  086A               	movf	_kp+2,w
  3973  0E0B  00A5               	movwf	___ftmul@f1+2
  3974  0E0C  3180  202C  318B   	fcall	___ftmul
  3975  0E0F  0140               	movlb	0	; select bank0
  3976  0E10  0823               	movf	?___ftmul,w
  3977  0E11  00B6               	movwf	___ftadd@f2
  3978  0E12  0824               	movf	?___ftmul+1,w
  3979  0E13  00B7               	movwf	___ftadd@f2+1
  3980  0E14  0825               	movf	?___ftmul+2,w
  3981  0E15  00B8               	movwf	___ftadd@f2+2
  3982  0E16  0863               	movf	_formula$1042,w
  3983  0E17  00B3               	movwf	___ftadd@f1
  3984  0E18  0864               	movf	_formula$1042+1,w
  3985  0E19  00B4               	movwf	___ftadd@f1+1
  3986  0E1A  0865               	movf	_formula$1042+2,w
  3987  0E1B  00B5               	movwf	___ftadd@f1+2
  3988  0E1C  3180  20E0  318B   	fcall	___ftadd
  3989  0E1F  0140               	movlb	0	; select bank0
  3990  0E20  0833               	movf	?___ftadd,w
  3991  0E21  00E0               	movwf	_formula$1043
  3992  0E22  0834               	movf	?___ftadd+1,w
  3993  0E23  00E1               	movwf	_formula$1043+1
  3994  0E24  0835               	movf	?___ftadd+2,w
  3995  0E25  00E2               	movwf	_formula$1043+2
  3996                           
  3997                           ;main.c: 151: CCPR1=velocidad+(int)((-1)*((kp*(double)error)+kd*((double)error-(double)e
      +                          rrorant)));
  3998  0E26  0860               	movf	_formula$1043,w
  3999  0E27  00A6               	movwf	___ftmul@f2
  4000  0E28  0861               	movf	_formula$1043+1,w
  4001  0E29  00A7               	movwf	___ftmul@f2+1
  4002  0E2A  0862               	movf	_formula$1043+2,w
  4003  0E2B  00A8               	movwf	___ftmul@f2+2
  4004  0E2C  3000               	movlw	0
  4005  0E2D  00A3               	movwf	___ftmul@f1
  4006  0E2E  3080               	movlw	128
  4007  0E2F  00A4               	movwf	___ftmul@f1+1
  4008  0E30  30BF               	movlw	191
  4009  0E31  00A5               	movwf	___ftmul@f1+2
  4010  0E32  3180  202C  318B   	fcall	___ftmul
  4011  0E35  0140               	movlb	0	; select bank0
  4012  0E36  0823               	movf	?___ftmul,w
  4013  0E37  00D0               	movwf	___fttol@f1
  4014  0E38  0824               	movf	?___ftmul+1,w
  4015  0E39  00D1               	movwf	___fttol@f1+1
  4016  0E3A  0825               	movf	?___ftmul+2,w
  4017  0E3B  00D2               	movwf	___fttol@f1+2
  4018  0E3C  3189  216B  318B   	fcall	___fttol
  4019  0E3F  0140               	movlb	0	; select bank0
  4020  0E40  086B               	movf	_velocidad,w
  4021  0E41  0750               	addwf	?___fttol,w
  4022  0E42  00DE               	movwf	??_formula
  4023  0E43  086C               	movf	_velocidad+1,w
  4024  0E44  3D51               	addwfc	?___fttol+1,w
  4025  0E45  00DF               	movwf	??_formula+1
  4026  0E46  085E               	movf	??_formula,w
  4027  0E47  0146               	movlb	6	; select bank6
  4028  0E48  008C               	movwf	12	;volatile
  4029  0E49  0140               	movlb	0	; select bank0
  4030  0E4A  085F               	movf	??_formula+1,w
  4031  0E4B  0146               	movlb	6	; select bank6
  4032  0E4C  008D               	movwf	13	;volatile
  4033                           
  4034                           ;main.c: 152: CCPR2=0;
  4035  0E4D  0190               	clrf	16	;volatile
  4036  0E4E  0191               	clrf	17	;volatile
  4037                           
  4038                           ;main.c: 153: CCPR3=velocidad+(int)((-1)*((kp*(double)error)+kd*((double)error-(double)e
      +                          rrorant)));
  4039  0E4F  0141               	movlb	1	; select bank1
  4040  0E50  0860               	movf	(_error+1)^(0+128),w
  4041  0E51  00F9               	movwf	___awtoft@c+1
  4042  0E52  085F               	movf	_error^(0+128),w
  4043  0E53  00F8               	movwf	___awtoft@c
  4044  0E54  3180  200C  318B   	fcall	___awtoft
  4045  0E57  0878               	movf	?___awtoft,w
  4046  0E58  0140               	movlb	0	; select bank0
  4047  0E59  00B6               	movwf	___ftadd@f2
  4048  0E5A  0879               	movf	?___awtoft+1,w
  4049  0E5B  00B7               	movwf	___ftadd@f2+1
  4050  0E5C  087A               	movf	?___awtoft+2,w
  4051  0E5D  00B8               	movwf	___ftadd@f2+2
  4052  0E5E  086E               	movf	_errorant+1,w
  4053  0E5F  00F9               	movwf	___awtoft@c+1
  4054  0E60  086D               	movf	_errorant,w
  4055  0E61  00F8               	movwf	___awtoft@c
  4056  0E62  3180  200C  318B   	fcall	___awtoft
  4057  0E65  0878               	movf	?___awtoft,w
  4058  0E66  0140               	movlb	0	; select bank0
  4059  0E67  00A0               	movwf	___ftneg@f1
  4060  0E68  0879               	movf	?___awtoft+1,w
  4061  0E69  00A1               	movwf	___ftneg@f1+1
  4062  0E6A  087A               	movf	?___awtoft+2,w
  4063  0E6B  00A2               	movwf	___ftneg@f1+2
  4064  0E6C  3188  20FE  318B   	fcall	___ftneg
  4065  0E6F  0140               	movlb	0	; select bank0
  4066  0E70  0820               	movf	?___ftneg,w
  4067  0E71  00B3               	movwf	___ftadd@f1
  4068  0E72  0821               	movf	?___ftneg+1,w
  4069  0E73  00B4               	movwf	___ftadd@f1+1
  4070  0E74  0822               	movf	?___ftneg+2,w
  4071  0E75  00B5               	movwf	___ftadd@f1+2
  4072  0E76  3180  20E0  318B   	fcall	___ftadd
  4073  0E79  0140               	movlb	0	; select bank0
  4074  0E7A  0833               	movf	?___ftadd,w
  4075  0E7B  00A6               	movwf	___ftmul@f2
  4076  0E7C  0834               	movf	?___ftadd+1,w
  4077  0E7D  00A7               	movwf	___ftmul@f2+1
  4078  0E7E  0835               	movf	?___ftadd+2,w
  4079  0E7F  00A8               	movwf	___ftmul@f2+2
  4080  0E80  0141               	movlb	1	; select bank1
  4081  0E81  0867               	movf	_kd^(0+128),w
  4082  0E82  0140               	movlb	0	; select bank0
  4083  0E83  00A3               	movwf	___ftmul@f1
  4084  0E84  0141               	movlb	1	; select bank1
  4085  0E85  0868               	movf	(_kd+1)^(0+128),w
  4086  0E86  0140               	movlb	0	; select bank0
  4087  0E87  00A4               	movwf	___ftmul@f1+1
  4088  0E88  0141               	movlb	1	; select bank1
  4089  0E89  0869               	movf	(_kd+2)^(0+128),w
  4090  0E8A  0140               	movlb	0	; select bank0
  4091  0E8B  00A5               	movwf	___ftmul@f1+2
  4092  0E8C  3180  202C  318B   	fcall	___ftmul
  4093  0E8F  0140               	movlb	0	; select bank0
  4094  0E90  0823               	movf	?___ftmul,w
  4095  0E91  00E3               	movwf	_formula$1042
  4096  0E92  0824               	movf	?___ftmul+1,w
  4097  0E93  00E4               	movwf	_formula$1042+1
  4098  0E94  0825               	movf	?___ftmul+2,w
  4099  0E95  00E5               	movwf	_formula$1042+2
  4100                           
  4101                           ;main.c: 153: CCPR3=velocidad+(int)((-1)*((kp*(double)error)+kd*((double)error-(double)e
      +                          rrorant)));
  4102  0E96  0141               	movlb	1	; select bank1
  4103  0E97  0860               	movf	(_error+1)^(0+128),w
  4104  0E98  00F9               	movwf	___awtoft@c+1
  4105  0E99  085F               	movf	_error^(0+128),w
  4106  0E9A  00F8               	movwf	___awtoft@c
  4107  0E9B  3180  200C  318B   	fcall	___awtoft
  4108  0E9E  0878               	movf	?___awtoft,w
  4109  0E9F  0140               	movlb	0	; select bank0
  4110  0EA0  00A6               	movwf	___ftmul@f2
  4111  0EA1  0879               	movf	?___awtoft+1,w
  4112  0EA2  00A7               	movwf	___ftmul@f2+1
  4113  0EA3  087A               	movf	?___awtoft+2,w
  4114  0EA4  00A8               	movwf	___ftmul@f2+2
  4115  0EA5  0868               	movf	_kp,w
  4116  0EA6  00A3               	movwf	___ftmul@f1
  4117  0EA7  0869               	movf	_kp+1,w
  4118  0EA8  00A4               	movwf	___ftmul@f1+1
  4119  0EA9  086A               	movf	_kp+2,w
  4120  0EAA  00A5               	movwf	___ftmul@f1+2
  4121  0EAB  3180  202C  318B   	fcall	___ftmul
  4122  0EAE  0140               	movlb	0	; select bank0
  4123  0EAF  0823               	movf	?___ftmul,w
  4124  0EB0  00B6               	movwf	___ftadd@f2
  4125  0EB1  0824               	movf	?___ftmul+1,w
  4126  0EB2  00B7               	movwf	___ftadd@f2+1
  4127  0EB3  0825               	movf	?___ftmul+2,w
  4128  0EB4  00B8               	movwf	___ftadd@f2+2
  4129  0EB5  0863               	movf	_formula$1042,w
  4130  0EB6  00B3               	movwf	___ftadd@f1
  4131  0EB7  0864               	movf	_formula$1042+1,w
  4132  0EB8  00B4               	movwf	___ftadd@f1+1
  4133  0EB9  0865               	movf	_formula$1042+2,w
  4134  0EBA  00B5               	movwf	___ftadd@f1+2
  4135  0EBB  3180  20E0  318B   	fcall	___ftadd
  4136  0EBE  0140               	movlb	0	; select bank0
  4137  0EBF  0833               	movf	?___ftadd,w
  4138  0EC0  00E0               	movwf	_formula$1043
  4139  0EC1  0834               	movf	?___ftadd+1,w
  4140  0EC2  00E1               	movwf	_formula$1043+1
  4141  0EC3  0835               	movf	?___ftadd+2,w
  4142  0EC4  00E2               	movwf	_formula$1043+2
  4143                           
  4144                           ;main.c: 153: CCPR3=velocidad+(int)((-1)*((kp*(double)error)+kd*((double)error-(double)e
      +                          rrorant)));
  4145  0EC5  0860               	movf	_formula$1043,w
  4146  0EC6  00A6               	movwf	___ftmul@f2
  4147  0EC7  0861               	movf	_formula$1043+1,w
  4148  0EC8  00A7               	movwf	___ftmul@f2+1
  4149  0EC9  0862               	movf	_formula$1043+2,w
  4150  0ECA  00A8               	movwf	___ftmul@f2+2
  4151  0ECB  3000               	movlw	0
  4152  0ECC  00A3               	movwf	___ftmul@f1
  4153  0ECD  3080               	movlw	128
  4154  0ECE  00A4               	movwf	___ftmul@f1+1
  4155  0ECF  30BF               	movlw	191
  4156  0ED0  00A5               	movwf	___ftmul@f1+2
  4157  0ED1  3180  202C  318B   	fcall	___ftmul
  4158  0ED4  0140               	movlb	0	; select bank0
  4159  0ED5  0823               	movf	?___ftmul,w
  4160  0ED6  00D0               	movwf	___fttol@f1
  4161  0ED7  0824               	movf	?___ftmul+1,w
  4162  0ED8  00D1               	movwf	___fttol@f1+1
  4163  0ED9  0825               	movf	?___ftmul+2,w
  4164  0EDA  00D2               	movwf	___fttol@f1+2
  4165  0EDB  3189  216B         	fcall	___fttol
  4166  0EDD  0140               	movlb	0	; select bank0
  4167  0EDE  086B               	movf	_velocidad,w
  4168  0EDF  0750               	addwf	?___fttol,w
  4169  0EE0  00DE               	movwf	??_formula
  4170  0EE1  086C               	movf	_velocidad+1,w
  4171  0EE2  3D51               	addwfc	?___fttol+1,w
  4172  0EE3  00DF               	movwf	??_formula+1
  4173  0EE4  085E               	movf	??_formula,w
  4174  0EE5  0146               	movlb	6	; select bank6
  4175  0EE6  0094               	movwf	20	;volatile
  4176  0EE7  0140               	movlb	0	; select bank0
  4177  0EE8  085F               	movf	??_formula+1,w
  4178  0EE9  0146               	movlb	6	; select bank6
  4179  0EEA  0095               	movwf	21	;volatile
  4180                           
  4181                           ;main.c: 154: CCPR4=0;
  4182  0EEB  0198               	clrf	24	;volatile
  4183  0EEC  0199               	clrf	25	;volatile
  4184                           
  4185                           ;main.c: 155: }else{
  4186  0EED  0008               	return
  4187  0EEE                     l1518:	
  4188                           
  4189                           ;main.c: 156: CCPR1=velocidad+(int)((kp*(double)error)+kd*((double)error-(double)erroran
      +                          t));
  4190  0EEE  0141               	movlb	1	; select bank1
  4191  0EEF  0860               	movf	(_error+1)^(0+128),w
  4192  0EF0  00F9               	movwf	___awtoft@c+1
  4193  0EF1  085F               	movf	_error^(0+128),w
  4194  0EF2  00F8               	movwf	___awtoft@c
  4195  0EF3  3180  200C  318B   	fcall	___awtoft
  4196  0EF6  0878               	movf	?___awtoft,w
  4197  0EF7  0140               	movlb	0	; select bank0
  4198  0EF8  00B6               	movwf	___ftadd@f2
  4199  0EF9  0879               	movf	?___awtoft+1,w
  4200  0EFA  00B7               	movwf	___ftadd@f2+1
  4201  0EFB  087A               	movf	?___awtoft+2,w
  4202  0EFC  00B8               	movwf	___ftadd@f2+2
  4203  0EFD  086E               	movf	_errorant+1,w
  4204  0EFE  00F9               	movwf	___awtoft@c+1
  4205  0EFF  086D               	movf	_errorant,w
  4206  0F00  00F8               	movwf	___awtoft@c
  4207  0F01  3180  200C  318B   	fcall	___awtoft
  4208  0F04  0878               	movf	?___awtoft,w
  4209  0F05  0140               	movlb	0	; select bank0
  4210  0F06  00A0               	movwf	___ftneg@f1
  4211  0F07  0879               	movf	?___awtoft+1,w
  4212  0F08  00A1               	movwf	___ftneg@f1+1
  4213  0F09  087A               	movf	?___awtoft+2,w
  4214  0F0A  00A2               	movwf	___ftneg@f1+2
  4215  0F0B  3188  20FE  318B   	fcall	___ftneg
  4216  0F0E  0140               	movlb	0	; select bank0
  4217  0F0F  0820               	movf	?___ftneg,w
  4218  0F10  00B3               	movwf	___ftadd@f1
  4219  0F11  0821               	movf	?___ftneg+1,w
  4220  0F12  00B4               	movwf	___ftadd@f1+1
  4221  0F13  0822               	movf	?___ftneg+2,w
  4222  0F14  00B5               	movwf	___ftadd@f1+2
  4223  0F15  3180  20E0  318B   	fcall	___ftadd
  4224  0F18  0140               	movlb	0	; select bank0
  4225  0F19  0833               	movf	?___ftadd,w
  4226  0F1A  00A6               	movwf	___ftmul@f2
  4227  0F1B  0834               	movf	?___ftadd+1,w
  4228  0F1C  00A7               	movwf	___ftmul@f2+1
  4229  0F1D  0835               	movf	?___ftadd+2,w
  4230  0F1E  00A8               	movwf	___ftmul@f2+2
  4231  0F1F  0141               	movlb	1	; select bank1
  4232  0F20  0867               	movf	_kd^(0+128),w
  4233  0F21  0140               	movlb	0	; select bank0
  4234  0F22  00A3               	movwf	___ftmul@f1
  4235  0F23  0141               	movlb	1	; select bank1
  4236  0F24  0868               	movf	(_kd+1)^(0+128),w
  4237  0F25  0140               	movlb	0	; select bank0
  4238  0F26  00A4               	movwf	___ftmul@f1+1
  4239  0F27  0141               	movlb	1	; select bank1
  4240  0F28  0869               	movf	(_kd+2)^(0+128),w
  4241  0F29  0140               	movlb	0	; select bank0
  4242  0F2A  00A5               	movwf	___ftmul@f1+2
  4243  0F2B  3180  202C  318B   	fcall	___ftmul
  4244  0F2E  0140               	movlb	0	; select bank0
  4245  0F2F  0823               	movf	?___ftmul,w
  4246  0F30  00E3               	movwf	_formula$1042
  4247  0F31  0824               	movf	?___ftmul+1,w
  4248  0F32  00E4               	movwf	_formula$1042+1
  4249  0F33  0825               	movf	?___ftmul+2,w
  4250  0F34  00E5               	movwf	_formula$1042+2
  4251                           
  4252                           ;main.c: 156: CCPR1=velocidad+(int)((kp*(double)error)+kd*((double)error-(double)erroran
      +                          t));
  4253  0F35  0141               	movlb	1	; select bank1
  4254  0F36  0860               	movf	(_error+1)^(0+128),w
  4255  0F37  00F9               	movwf	___awtoft@c+1
  4256  0F38  085F               	movf	_error^(0+128),w
  4257  0F39  00F8               	movwf	___awtoft@c
  4258  0F3A  3180  200C  318B   	fcall	___awtoft
  4259  0F3D  0878               	movf	?___awtoft,w
  4260  0F3E  0140               	movlb	0	; select bank0
  4261  0F3F  00A6               	movwf	___ftmul@f2
  4262  0F40  0879               	movf	?___awtoft+1,w
  4263  0F41  00A7               	movwf	___ftmul@f2+1
  4264  0F42  087A               	movf	?___awtoft+2,w
  4265  0F43  00A8               	movwf	___ftmul@f2+2
  4266  0F44  0868               	movf	_kp,w
  4267  0F45  00A3               	movwf	___ftmul@f1
  4268  0F46  0869               	movf	_kp+1,w
  4269  0F47  00A4               	movwf	___ftmul@f1+1
  4270  0F48  086A               	movf	_kp+2,w
  4271  0F49  00A5               	movwf	___ftmul@f1+2
  4272  0F4A  3180  202C  318B   	fcall	___ftmul
  4273  0F4D  0140               	movlb	0	; select bank0
  4274  0F4E  0823               	movf	?___ftmul,w
  4275  0F4F  00B6               	movwf	___ftadd@f2
  4276  0F50  0824               	movf	?___ftmul+1,w
  4277  0F51  00B7               	movwf	___ftadd@f2+1
  4278  0F52  0825               	movf	?___ftmul+2,w
  4279  0F53  00B8               	movwf	___ftadd@f2+2
  4280  0F54  0863               	movf	_formula$1042,w
  4281  0F55  00B3               	movwf	___ftadd@f1
  4282  0F56  0864               	movf	_formula$1042+1,w
  4283  0F57  00B4               	movwf	___ftadd@f1+1
  4284  0F58  0865               	movf	_formula$1042+2,w
  4285  0F59  00B5               	movwf	___ftadd@f1+2
  4286  0F5A  3180  20E0  318B   	fcall	___ftadd
  4287  0F5D  0140               	movlb	0	; select bank0
  4288  0F5E  0833               	movf	?___ftadd,w
  4289  0F5F  00D0               	movwf	___fttol@f1
  4290  0F60  0834               	movf	?___ftadd+1,w
  4291  0F61  00D1               	movwf	___fttol@f1+1
  4292  0F62  0835               	movf	?___ftadd+2,w
  4293  0F63  00D2               	movwf	___fttol@f1+2
  4294  0F64  3189  216B  318B   	fcall	___fttol
  4295  0F67  0140               	movlb	0	; select bank0
  4296  0F68  086B               	movf	_velocidad,w
  4297  0F69  0750               	addwf	?___fttol,w
  4298  0F6A  00DE               	movwf	??_formula
  4299  0F6B  086C               	movf	_velocidad+1,w
  4300  0F6C  3D51               	addwfc	?___fttol+1,w
  4301  0F6D  00DF               	movwf	??_formula+1
  4302  0F6E  085E               	movf	??_formula,w
  4303  0F6F  0146               	movlb	6	; select bank6
  4304  0F70  008C               	movwf	12	;volatile
  4305  0F71  0140               	movlb	0	; select bank0
  4306  0F72  085F               	movf	??_formula+1,w
  4307  0F73  0146               	movlb	6	; select bank6
  4308  0F74  008D               	movwf	13	;volatile
  4309                           
  4310                           ;main.c: 157: CCPR2=0;
  4311  0F75  0190               	clrf	16	;volatile
  4312  0F76  0191               	clrf	17	;volatile
  4313                           
  4314                           ;main.c: 158: CCPR3=velocidad+(int)((kp*(double)error)+kd*((double)error-(double)erroran
      +                          t));
  4315  0F77  0141               	movlb	1	; select bank1
  4316  0F78  0860               	movf	(_error+1)^(0+128),w
  4317  0F79  00F9               	movwf	___awtoft@c+1
  4318  0F7A  085F               	movf	_error^(0+128),w
  4319  0F7B  00F8               	movwf	___awtoft@c
  4320  0F7C  3180  200C  318B   	fcall	___awtoft
  4321  0F7F  0878               	movf	?___awtoft,w
  4322  0F80  0140               	movlb	0	; select bank0
  4323  0F81  00B6               	movwf	___ftadd@f2
  4324  0F82  0879               	movf	?___awtoft+1,w
  4325  0F83  00B7               	movwf	___ftadd@f2+1
  4326  0F84  087A               	movf	?___awtoft+2,w
  4327  0F85  00B8               	movwf	___ftadd@f2+2
  4328  0F86  086E               	movf	_errorant+1,w
  4329  0F87  00F9               	movwf	___awtoft@c+1
  4330  0F88  086D               	movf	_errorant,w
  4331  0F89  00F8               	movwf	___awtoft@c
  4332  0F8A  3180  200C  318B   	fcall	___awtoft
  4333  0F8D  0878               	movf	?___awtoft,w
  4334  0F8E  0140               	movlb	0	; select bank0
  4335  0F8F  00A0               	movwf	___ftneg@f1
  4336  0F90  0879               	movf	?___awtoft+1,w
  4337  0F91  00A1               	movwf	___ftneg@f1+1
  4338  0F92  087A               	movf	?___awtoft+2,w
  4339  0F93  00A2               	movwf	___ftneg@f1+2
  4340  0F94  3188  20FE  318B   	fcall	___ftneg
  4341  0F97  0140               	movlb	0	; select bank0
  4342  0F98  0820               	movf	?___ftneg,w
  4343  0F99  00B3               	movwf	___ftadd@f1
  4344  0F9A  0821               	movf	?___ftneg+1,w
  4345  0F9B  00B4               	movwf	___ftadd@f1+1
  4346  0F9C  0822               	movf	?___ftneg+2,w
  4347  0F9D  00B5               	movwf	___ftadd@f1+2
  4348  0F9E  3180  20E0  318B   	fcall	___ftadd
  4349  0FA1  0140               	movlb	0	; select bank0
  4350  0FA2  0833               	movf	?___ftadd,w
  4351  0FA3  00A6               	movwf	___ftmul@f2
  4352  0FA4  0834               	movf	?___ftadd+1,w
  4353  0FA5  00A7               	movwf	___ftmul@f2+1
  4354  0FA6  0835               	movf	?___ftadd+2,w
  4355  0FA7  00A8               	movwf	___ftmul@f2+2
  4356  0FA8  0141               	movlb	1	; select bank1
  4357  0FA9  0867               	movf	_kd^(0+128),w
  4358  0FAA  0140               	movlb	0	; select bank0
  4359  0FAB  00A3               	movwf	___ftmul@f1
  4360  0FAC  0141               	movlb	1	; select bank1
  4361  0FAD  0868               	movf	(_kd+1)^(0+128),w
  4362  0FAE  0140               	movlb	0	; select bank0
  4363  0FAF  00A4               	movwf	___ftmul@f1+1
  4364  0FB0  0141               	movlb	1	; select bank1
  4365  0FB1  0869               	movf	(_kd+2)^(0+128),w
  4366  0FB2  0140               	movlb	0	; select bank0
  4367  0FB3  00A5               	movwf	___ftmul@f1+2
  4368  0FB4  3180  202C  318B   	fcall	___ftmul
  4369  0FB7  0140               	movlb	0	; select bank0
  4370  0FB8  0823               	movf	?___ftmul,w
  4371  0FB9  00E3               	movwf	_formula$1042
  4372  0FBA  0824               	movf	?___ftmul+1,w
  4373  0FBB  00E4               	movwf	_formula$1042+1
  4374  0FBC  0825               	movf	?___ftmul+2,w
  4375  0FBD  00E5               	movwf	_formula$1042+2
  4376                           
  4377                           ;main.c: 158: CCPR3=velocidad+(int)((kp*(double)error)+kd*((double)error-(double)erroran
      +                          t));
  4378  0FBE  0141               	movlb	1	; select bank1
  4379  0FBF  0860               	movf	(_error+1)^(0+128),w
  4380  0FC0  00F9               	movwf	___awtoft@c+1
  4381  0FC1  085F               	movf	_error^(0+128),w
  4382  0FC2  00F8               	movwf	___awtoft@c
  4383  0FC3  3180  200C  318B   	fcall	___awtoft
  4384  0FC6  0878               	movf	?___awtoft,w
  4385  0FC7  0140               	movlb	0	; select bank0
  4386  0FC8  00A6               	movwf	___ftmul@f2
  4387  0FC9  0879               	movf	?___awtoft+1,w
  4388  0FCA  00A7               	movwf	___ftmul@f2+1
  4389  0FCB  087A               	movf	?___awtoft+2,w
  4390  0FCC  00A8               	movwf	___ftmul@f2+2
  4391  0FCD  0868               	movf	_kp,w
  4392  0FCE  00A3               	movwf	___ftmul@f1
  4393  0FCF  0869               	movf	_kp+1,w
  4394  0FD0  00A4               	movwf	___ftmul@f1+1
  4395  0FD1  086A               	movf	_kp+2,w
  4396  0FD2  00A5               	movwf	___ftmul@f1+2
  4397  0FD3  3180  202C  318B   	fcall	___ftmul
  4398  0FD6  0140               	movlb	0	; select bank0
  4399  0FD7  0823               	movf	?___ftmul,w
  4400  0FD8  00B6               	movwf	___ftadd@f2
  4401  0FD9  0824               	movf	?___ftmul+1,w
  4402  0FDA  00B7               	movwf	___ftadd@f2+1
  4403  0FDB  0825               	movf	?___ftmul+2,w
  4404  0FDC  00B8               	movwf	___ftadd@f2+2
  4405  0FDD  0863               	movf	_formula$1042,w
  4406  0FDE  00B3               	movwf	___ftadd@f1
  4407  0FDF  0864               	movf	_formula$1042+1,w
  4408  0FE0  00B4               	movwf	___ftadd@f1+1
  4409  0FE1  0865               	movf	_formula$1042+2,w
  4410  0FE2  00B5               	movwf	___ftadd@f1+2
  4411  0FE3  3180  20E0  318B   	fcall	___ftadd
  4412  0FE6  0140               	movlb	0	; select bank0
  4413  0FE7  0833               	movf	?___ftadd,w
  4414  0FE8  00D0               	movwf	___fttol@f1
  4415  0FE9  0834               	movf	?___ftadd+1,w
  4416  0FEA  00D1               	movwf	___fttol@f1+1
  4417  0FEB  0835               	movf	?___ftadd+2,w
  4418  0FEC  00D2               	movwf	___fttol@f1+2
  4419  0FED  3189  216B         	fcall	___fttol
  4420  0FEF  0140               	movlb	0	; select bank0
  4421  0FF0  086B               	movf	_velocidad,w
  4422  0FF1  0750               	addwf	?___fttol,w
  4423  0FF2  00DE               	movwf	??_formula
  4424  0FF3  086C               	movf	_velocidad+1,w
  4425  0FF4  3D51               	addwfc	?___fttol+1,w
  4426  0FF5  00DF               	movwf	??_formula+1
  4427  0FF6  085E               	movf	??_formula,w
  4428  0FF7  0146               	movlb	6	; select bank6
  4429  0FF8  0094               	movwf	20	;volatile
  4430  0FF9  0140               	movlb	0	; select bank0
  4431  0FFA  085F               	movf	??_formula+1,w
  4432  0FFB  0146               	movlb	6	; select bank6
  4433  0FFC  0095               	movwf	21	;volatile
  4434                           
  4435                           ;main.c: 159: CCPR4=0;
  4436  0FFD  0198               	clrf	24	;volatile
  4437  0FFE  0199               	clrf	25	;volatile
  4438  0FFF  0008               	return
  4439  1000                     __end_of_formula:	
  4440                           
  4441                           	psect	text4
  4442  096B                     __ptext4:	
  4443 ;; *************** function ___fttol *****************
  4444 ;; Defined at:
  4445 ;;		line 44 in file "C:\Program Files (x86)\Microchip\xc8\v1.45\sources\common\fttol.c"
  4446 ;; Parameters:    Size  Location     Type
  4447 ;;  f1              3   48[BANK0 ] float 
  4448 ;; Auto vars:     Size  Location     Type
  4449 ;;  lval            4   57[BANK0 ] unsigned long 
  4450 ;;  exp1            1   61[BANK0 ] unsigned char 
  4451 ;;  sign1           1   56[BANK0 ] unsigned char 
  4452 ;; Return value:  Size  Location     Type
  4453 ;;                  4   48[BANK0 ] long 
  4454 ;; Registers used:
  4455 ;;		wreg, status,2, status,0
  4456 ;; Tracked objects:
  4457 ;;		On entry : 0/0
  4458 ;;		On exit  : 0/0
  4459 ;;		Unchanged: 0/0
  4460 ;; Data sizes:     COMMON   BANK0   BANK1   BANK2   BANK3   BANK4   BANK5   BANK6   BANK7   BANK8   BANK9  BANK10  BANK1
      +1  BANK12  BANK13  BANK14  BANK15  BANK16  BANK17  BANK18  BANK19  BANK20  BANK21  BANK22  BANK23  BANK24  BANK25  BANK2
      +6  BANK27  BANK28  BANK29  BANK30  BANK31  BANK32  BANK33  BANK34  BANK35  BANK36  BANK37  BANK38  BANK39  BANK40  BANK4
      +1  BANK42  BANK43  BANK44  BANK45  BANK46  BANK47  BANK48  BANK49  BANK50
  4461 ;;      Params:         0       4       0       0       0       0       0       0       0       0       0       0       
      +0       0       0       0       0       0       0       0       0       0       0       0       0       0       0       
      +0       0       0       0       0       0       0       0       0       0       0       0       0       0       0       
      +0       0       0       0       0       0       0       0       0       0
  4462 ;;      Locals:         0       6       0       0       0       0       0       0       0       0       0       0       
      +0       0       0       0       0       0       0       0       0       0       0       0       0       0       0       
      +0       0       0       0       0       0       0       0       0       0       0       0       0       0       0       
      +0       0       0       0       0       0       0       0       0       0
  4463 ;;      Temps:          0       4       0       0       0       0       0       0       0       0       0       0       
      +0       0       0       0       0       0       0       0       0       0       0       0       0       0       0       
      +0       0       0       0       0       0       0       0       0       0       0       0       0       0       0       
      +0       0       0       0       0       0       0       0       0       0
  4464 ;;      Totals:         0      14       0       0       0       0       0       0       0       0       0       0       
      +0       0       0       0       0       0       0       0       0       0       0       0       0       0       0       
      +0       0       0       0       0       0       0       0       0       0       0       0       0       0       0       
      +0       0       0       0       0       0       0       0       0       0
  4465 ;;Total ram usage:       14 bytes
  4466 ;; Hardware stack levels used:    1
  4467 ;; This function calls:
  4468 ;;		Nothing
  4469 ;; This function is called by:
  4470 ;;		_geterror
  4471 ;;		_formula
  4472 ;; This function uses a non-reentrant model
  4473 ;;
  4474                           
  4475                           
  4476                           ;psect for function ___fttol
  4477  096B                     ___fttol:	
  4478                           
  4479                           ;incstack = 0
  4480                           ; Regs used in ___fttol: [wreg+status,2+status,0]
  4481  096B  0140               	movlb	0	; select bank0
  4482  096C  0850               	movf	___fttol@f1,w
  4483  096D  00D4               	movwf	??___fttol
  4484  096E  0851               	movf	___fttol@f1+1,w
  4485  096F  00D5               	movwf	??___fttol+1
  4486  0970  0852               	movf	___fttol@f1+2,w
  4487  0971  00D6               	movwf	??___fttol+2
  4488  0972  1003               	clrc
  4489  0973  0D55               	rlf	??___fttol+1,w
  4490  0974  0D56               	rlf	??___fttol+2,w
  4491  0975  00D7               	movwf	??___fttol+3
  4492  0976  0857               	movf	??___fttol+3,w
  4493  0977  00DD               	movwf	___fttol@exp1
  4494  0978  085D               	movf	___fttol@exp1,w
  4495  0979  1D03               	btfss	3,2
  4496  097A  2984               	goto	l1336
  4497  097B  3000               	movlw	0
  4498  097C  00D3               	movwf	?___fttol+3
  4499  097D  3000               	movlw	0
  4500  097E  00D2               	movwf	?___fttol+2
  4501  097F  3000               	movlw	0
  4502  0980  00D1               	movwf	?___fttol+1
  4503  0981  3000               	movlw	0
  4504  0982  00D0               	movwf	?___fttol
  4505  0983  0008               	return
  4506  0984                     l1336:	
  4507  0984  0850               	movf	___fttol@f1,w
  4508  0985  00D4               	movwf	??___fttol
  4509  0986  0851               	movf	___fttol@f1+1,w
  4510  0987  00D5               	movwf	??___fttol+1
  4511  0988  0852               	movf	___fttol@f1+2,w
  4512  0989  00D6               	movwf	??___fttol+2
  4513  098A  3017               	movlw	23
  4514  098B                     u1375:	
  4515  098B  36D6               	lsrf	??___fttol+2,f
  4516  098C  0CD5               	rrf	??___fttol+1,f
  4517  098D  0CD4               	rrf	??___fttol,f
  4518  098E  0B89               	decfsz	9,f
  4519  098F  298B               	goto	u1375
  4520  0990  0854               	movf	??___fttol,w
  4521  0991  00D7               	movwf	??___fttol+3
  4522  0992  0857               	movf	??___fttol+3,w
  4523  0993  00D8               	movwf	___fttol@sign1
  4524  0994  17D1               	bsf	___fttol@f1+1,7
  4525  0995  30FF               	movlw	255
  4526  0996  05D0               	andwf	___fttol@f1,f
  4527  0997  30FF               	movlw	255
  4528  0998  05D1               	andwf	___fttol@f1+1,f
  4529  0999  3000               	movlw	0
  4530  099A  05D2               	andwf	___fttol@f1+2,f
  4531  099B  0850               	movf	___fttol@f1,w
  4532  099C  00D9               	movwf	___fttol@lval
  4533  099D  0851               	movf	___fttol@f1+1,w
  4534  099E  00DA               	movwf	___fttol@lval+1
  4535  099F  0852               	movf	___fttol@f1+2,w
  4536  09A0  00DB               	movwf	___fttol@lval+2
  4537  09A1  01DC               	clrf	___fttol@lval+3
  4538  09A2  308E               	movlw	142
  4539  09A3  02DD               	subwf	___fttol@exp1,f
  4540  09A4  1FDD               	btfss	___fttol@exp1,7
  4541  09A5  29C2               	goto	l1356
  4542  09A6  085D               	movf	___fttol@exp1,w
  4543  09A7  3A80               	xorlw	128
  4544  09A8  3E8F               	addlw	143
  4545  09A9  1803               	skipnc
  4546  09AA  29B4               	goto	l1354
  4547  09AB  3000               	movlw	0
  4548  09AC  00D3               	movwf	?___fttol+3
  4549  09AD  3000               	movlw	0
  4550  09AE  00D2               	movwf	?___fttol+2
  4551  09AF  3000               	movlw	0
  4552  09B0  00D1               	movwf	?___fttol+1
  4553  09B1  3000               	movlw	0
  4554  09B2  00D0               	movwf	?___fttol
  4555  09B3  0008               	return
  4556  09B4                     l1354:	
  4557  09B4  3001               	movlw	1
  4558  09B5                     u1405:	
  4559  09B5  36DC               	lsrf	___fttol@lval+3,f
  4560  09B6  0CDB               	rrf	___fttol@lval+2,f
  4561  09B7  0CDA               	rrf	___fttol@lval+1,f
  4562  09B8  0CD9               	rrf	___fttol@lval,f
  4563  09B9  0B89               	decfsz	9,f
  4564  09BA  29B5               	goto	u1405
  4565  09BB  3001               	movlw	1
  4566  09BC  00D4               	movwf	??___fttol
  4567  09BD  0854               	movf	??___fttol,w
  4568  09BE  07DD               	addwf	___fttol@exp1,f
  4569  09BF  1903               	btfsc	3,2
  4570  09C0  29DB               	goto	l1364
  4571  09C1  29B4               	goto	l1354
  4572  09C2                     l1356:	
  4573  09C2  3018               	movlw	24
  4574  09C3  025D               	subwf	___fttol@exp1,w
  4575  09C4  1C03               	skipc
  4576  09C5  29D8               	goto	l474
  4577  09C6  3000               	movlw	0
  4578  09C7  00D3               	movwf	?___fttol+3
  4579  09C8  3000               	movlw	0
  4580  09C9  00D2               	movwf	?___fttol+2
  4581  09CA  3000               	movlw	0
  4582  09CB  00D1               	movwf	?___fttol+1
  4583  09CC  3000               	movlw	0
  4584  09CD  00D0               	movwf	?___fttol
  4585  09CE  0008               	return
  4586  09CF                     l1362:	
  4587  09CF  3001               	movlw	1
  4588  09D0                     u1435:	
  4589  09D0  35D9               	lslf	___fttol@lval,f
  4590  09D1  0DDA               	rlf	___fttol@lval+1,f
  4591  09D2  0DDB               	rlf	___fttol@lval+2,f
  4592  09D3  0DDC               	rlf	___fttol@lval+3,f
  4593  09D4  0B89               	decfsz	9,f
  4594  09D5  29D0               	goto	u1435
  4595  09D6  3001               	movlw	1
  4596  09D7  02DD               	subwf	___fttol@exp1,f
  4597  09D8                     l474:	
  4598  09D8  085D               	movf	___fttol@exp1,w
  4599  09D9  1D03               	btfss	3,2
  4600  09DA  29CF               	goto	l1362
  4601  09DB                     l1364:	
  4602  09DB  0858               	movf	___fttol@sign1,w
  4603  09DC  1903               	btfsc	3,2
  4604  09DD  29E9               	goto	l1368
  4605  09DE  09D9               	comf	___fttol@lval,f
  4606  09DF  09DA               	comf	___fttol@lval+1,f
  4607  09E0  09DB               	comf	___fttol@lval+2,f
  4608  09E1  09DC               	comf	___fttol@lval+3,f
  4609  09E2  0AD9               	incf	___fttol@lval,f
  4610  09E3  1903               	skipnz
  4611  09E4  0ADA               	incf	___fttol@lval+1,f
  4612  09E5  1903               	skipnz
  4613  09E6  0ADB               	incf	___fttol@lval+2,f
  4614  09E7  1903               	skipnz
  4615  09E8  0ADC               	incf	___fttol@lval+3,f
  4616  09E9                     l1368:	
  4617  09E9  085C               	movf	___fttol@lval+3,w
  4618  09EA  00D3               	movwf	?___fttol+3
  4619  09EB  085B               	movf	___fttol@lval+2,w
  4620  09EC  00D2               	movwf	?___fttol+2
  4621  09ED  085A               	movf	___fttol@lval+1,w
  4622  09EE  00D1               	movwf	?___fttol+1
  4623  09EF  0859               	movf	___fttol@lval,w
  4624  09F0  00D0               	movwf	?___fttol
  4625  09F1  0008               	return
  4626  09F2                     __end_of___fttol:	
  4627                           
  4628                           	psect	text5
  4629  08FE                     __ptext5:	
  4630 ;; *************** function ___ftneg *****************
  4631 ;; Defined at:
  4632 ;;		line 15 in file "C:\Program Files (x86)\Microchip\xc8\v1.45\sources\common\ftneg.c"
  4633 ;; Parameters:    Size  Location     Type
  4634 ;;  f1              3    0[BANK0 ] float 
  4635 ;; Auto vars:     Size  Location     Type
  4636 ;;		None
  4637 ;; Return value:  Size  Location     Type
  4638 ;;                  3    0[BANK0 ] float 
  4639 ;; Registers used:
  4640 ;;		wreg
  4641 ;; Tracked objects:
  4642 ;;		On entry : 0/0
  4643 ;;		On exit  : 0/0
  4644 ;;		Unchanged: 0/0
  4645 ;; Data sizes:     COMMON   BANK0   BANK1   BANK2   BANK3   BANK4   BANK5   BANK6   BANK7   BANK8   BANK9  BANK10  BANK1
      +1  BANK12  BANK13  BANK14  BANK15  BANK16  BANK17  BANK18  BANK19  BANK20  BANK21  BANK22  BANK23  BANK24  BANK25  BANK2
      +6  BANK27  BANK28  BANK29  BANK30  BANK31  BANK32  BANK33  BANK34  BANK35  BANK36  BANK37  BANK38  BANK39  BANK40  BANK4
      +1  BANK42  BANK43  BANK44  BANK45  BANK46  BANK47  BANK48  BANK49  BANK50
  4646 ;;      Params:         0       3       0       0       0       0       0       0       0       0       0       0       
      +0       0       0       0       0       0       0       0       0       0       0       0       0       0       0       
      +0       0       0       0       0       0       0       0       0       0       0       0       0       0       0       
      +0       0       0       0       0       0       0       0       0       0
  4647 ;;      Locals:         0       0       0       0       0       0       0       0       0       0       0       0       
      +0       0       0       0       0       0       0       0       0       0       0       0       0       0       0       
      +0       0       0       0       0       0       0       0       0       0       0       0       0       0       0       
      +0       0       0       0       0       0       0       0       0       0
  4648 ;;      Temps:          0       0       0       0       0       0       0       0       0       0       0       0       
      +0       0       0       0       0       0       0       0       0       0       0       0       0       0       0       
      +0       0       0       0       0       0       0       0       0       0       0       0       0       0       0       
      +0       0       0       0       0       0       0       0       0       0
  4649 ;;      Totals:         0       3       0       0       0       0       0       0       0       0       0       0       
      +0       0       0       0       0       0       0       0       0       0       0       0       0       0       0       
      +0       0       0       0       0       0       0       0       0       0       0       0       0       0       0       
      +0       0       0       0       0       0       0       0       0       0
  4650 ;;Total ram usage:        3 bytes
  4651 ;; Hardware stack levels used:    1
  4652 ;; This function calls:
  4653 ;;		Nothing
  4654 ;; This function is called by:
  4655 ;;		_formula
  4656 ;; This function uses a non-reentrant model
  4657 ;;
  4658                           
  4659                           
  4660                           ;psect for function ___ftneg
  4661  08FE                     ___ftneg:	
  4662                           
  4663                           ;incstack = 0
  4664                           ; Regs used in ___ftneg: [wreg]
  4665  08FE  0140               	movlb	0	; select bank0
  4666  08FF  0822               	movf	___ftneg@f1+2,w
  4667  0900  0421               	iorwf	___ftneg@f1+1,w
  4668  0901  0420               	iorwf	___ftneg@f1,w
  4669  0902  1903               	skipnz
  4670  0903  0008               	return
  4671  0904  3080               	movlw	128
  4672  0905  06A2               	xorwf	___ftneg@f1+2,f
  4673  0906  0008               	return
  4674  0907                     __end_of___ftneg:	
  4675                           
  4676                           	psect	text6
  4677  002C                     __ptext6:	
  4678 ;; *************** function ___ftmul *****************
  4679 ;; Defined at:
  4680 ;;		line 62 in file "C:\Program Files (x86)\Microchip\xc8\v1.45\sources\common\ftmul.c"
  4681 ;; Parameters:    Size  Location     Type
  4682 ;;  f1              3    3[BANK0 ] float 
  4683 ;;  f2              3    6[BANK0 ] float 
  4684 ;; Auto vars:     Size  Location     Type
  4685 ;;  f3_as_produc    3   14[BANK0 ] unsigned um
  4686 ;;  sign            1   18[BANK0 ] unsigned char 
  4687 ;;  cntr            1   17[BANK0 ] unsigned char 
  4688 ;;  exp             1   13[BANK0 ] unsigned char 
  4689 ;; Return value:  Size  Location     Type
  4690 ;;                  3    3[BANK0 ] float 
  4691 ;; Registers used:
  4692 ;;		wreg, status,2, status,0, pclath, cstack
  4693 ;; Tracked objects:
  4694 ;;		On entry : 0/0
  4695 ;;		On exit  : 0/0
  4696 ;;		Unchanged: 0/0
  4697 ;; Data sizes:     COMMON   BANK0   BANK1   BANK2   BANK3   BANK4   BANK5   BANK6   BANK7   BANK8   BANK9  BANK10  BANK1
      +1  BANK12  BANK13  BANK14  BANK15  BANK16  BANK17  BANK18  BANK19  BANK20  BANK21  BANK22  BANK23  BANK24  BANK25  BANK2
      +6  BANK27  BANK28  BANK29  BANK30  BANK31  BANK32  BANK33  BANK34  BANK35  BANK36  BANK37  BANK38  BANK39  BANK40  BANK4
      +1  BANK42  BANK43  BANK44  BANK45  BANK46  BANK47  BANK48  BANK49  BANK50
  4698 ;;      Params:         0       6       0       0       0       0       0       0       0       0       0       0       
      +0       0       0       0       0       0       0       0       0       0       0       0       0       0       0       
      +0       0       0       0       0       0       0       0       0       0       0       0       0       0       0       
      +0       0       0       0       0       0       0       0       0       0
  4699 ;;      Locals:         0       6       0       0       0       0       0       0       0       0       0       0       
      +0       0       0       0       0       0       0       0       0       0       0       0       0       0       0       
      +0       0       0       0       0       0       0       0       0       0       0       0       0       0       0       
      +0       0       0       0       0       0       0       0       0       0
  4700 ;;      Temps:          0       4       0       0       0       0       0       0       0       0       0       0       
      +0       0       0       0       0       0       0       0       0       0       0       0       0       0       0       
      +0       0       0       0       0       0       0       0       0       0       0       0       0       0       0       
      +0       0       0       0       0       0       0       0       0       0
  4701 ;;      Totals:         0      16       0       0       0       0       0       0       0       0       0       0       
      +0       0       0       0       0       0       0       0       0       0       0       0       0       0       0       
      +0       0       0       0       0       0       0       0       0       0       0       0       0       0       0       
      +0       0       0       0       0       0       0       0       0       0
  4702 ;;Total ram usage:       16 bytes
  4703 ;; Hardware stack levels used:    1
  4704 ;; Hardware stack levels required when called:    1
  4705 ;; This function calls:
  4706 ;;		___ftpack
  4707 ;; This function is called by:
  4708 ;;		_geterror
  4709 ;;		_formula
  4710 ;; This function uses a non-reentrant model
  4711 ;;
  4712                           
  4713                           
  4714                           ;psect for function ___ftmul
  4715  002C                     ___ftmul:	
  4716                           
  4717                           ;incstack = 0
  4718                           ; Regs used in ___ftmul: [wreg+status,2+status,0+pclath+cstack]
  4719  002C  0140               	movlb	0	; select bank0
  4720  002D  0823               	movf	___ftmul@f1,w
  4721  002E  00A9               	movwf	??___ftmul
  4722  002F  0824               	movf	___ftmul@f1+1,w
  4723  0030  00AA               	movwf	??___ftmul+1
  4724  0031  0825               	movf	___ftmul@f1+2,w
  4725  0032  00AB               	movwf	??___ftmul+2
  4726  0033  1003               	clrc
  4727  0034  0D2A               	rlf	??___ftmul+1,w
  4728  0035  0D2B               	rlf	??___ftmul+2,w
  4729  0036  00AC               	movwf	??___ftmul+3
  4730  0037  082C               	movf	??___ftmul+3,w
  4731  0038  00AD               	movwf	___ftmul@exp
  4732  0039  082D               	movf	___ftmul@exp,w
  4733  003A  1D03               	btfss	3,2
  4734  003B  2843               	goto	l1278
  4735  003C  3000               	movlw	0
  4736  003D  00A3               	movwf	?___ftmul
  4737  003E  3000               	movlw	0
  4738  003F  00A4               	movwf	?___ftmul+1
  4739  0040  3000               	movlw	0
  4740  0041  00A5               	movwf	?___ftmul+2
  4741  0042  0008               	return
  4742  0043                     l1278:	
  4743  0043  0826               	movf	___ftmul@f2,w
  4744  0044  00A9               	movwf	??___ftmul
  4745  0045  0827               	movf	___ftmul@f2+1,w
  4746  0046  00AA               	movwf	??___ftmul+1
  4747  0047  0828               	movf	___ftmul@f2+2,w
  4748  0048  00AB               	movwf	??___ftmul+2
  4749  0049  1003               	clrc
  4750  004A  0D2A               	rlf	??___ftmul+1,w
  4751  004B  0D2B               	rlf	??___ftmul+2,w
  4752  004C  00AC               	movwf	??___ftmul+3
  4753  004D  082C               	movf	??___ftmul+3,w
  4754  004E  00B2               	movwf	___ftmul@sign
  4755  004F  0832               	movf	___ftmul@sign,w
  4756  0050  1D03               	btfss	3,2
  4757  0051  2859               	goto	l1284
  4758  0052  3000               	movlw	0
  4759  0053  00A3               	movwf	?___ftmul
  4760  0054  3000               	movlw	0
  4761  0055  00A4               	movwf	?___ftmul+1
  4762  0056  3000               	movlw	0
  4763  0057  00A5               	movwf	?___ftmul+2
  4764  0058  0008               	return
  4765  0059                     l1284:	
  4766  0059  0832               	movf	___ftmul@sign,w
  4767  005A  3E7B               	addlw	123
  4768  005B  00A9               	movwf	??___ftmul
  4769  005C  0829               	movf	??___ftmul,w
  4770  005D  07AD               	addwf	___ftmul@exp,f
  4771  005E  0823               	movf	___ftmul@f1,w
  4772  005F  00A9               	movwf	??___ftmul
  4773  0060  0824               	movf	___ftmul@f1+1,w
  4774  0061  00AA               	movwf	??___ftmul+1
  4775  0062  0825               	movf	___ftmul@f1+2,w
  4776  0063  00AB               	movwf	??___ftmul+2
  4777  0064  3010               	movlw	16
  4778  0065                     u1255:	
  4779  0065  36AB               	lsrf	??___ftmul+2,f
  4780  0066  0CAA               	rrf	??___ftmul+1,f
  4781  0067  0CA9               	rrf	??___ftmul,f
  4782  0068  0B89               	decfsz	9,f
  4783  0069  2865               	goto	u1255
  4784  006A  0829               	movf	??___ftmul,w
  4785  006B  00AC               	movwf	??___ftmul+3
  4786  006C  082C               	movf	??___ftmul+3,w
  4787  006D  00B2               	movwf	___ftmul@sign
  4788  006E  0826               	movf	___ftmul@f2,w
  4789  006F  00A9               	movwf	??___ftmul
  4790  0070  0827               	movf	___ftmul@f2+1,w
  4791  0071  00AA               	movwf	??___ftmul+1
  4792  0072  0828               	movf	___ftmul@f2+2,w
  4793  0073  00AB               	movwf	??___ftmul+2
  4794  0074  3010               	movlw	16
  4795  0075                     u1265:	
  4796  0075  36AB               	lsrf	??___ftmul+2,f
  4797  0076  0CAA               	rrf	??___ftmul+1,f
  4798  0077  0CA9               	rrf	??___ftmul,f
  4799  0078  0B89               	decfsz	9,f
  4800  0079  2875               	goto	u1265
  4801  007A  0829               	movf	??___ftmul,w
  4802  007B  00AC               	movwf	??___ftmul+3
  4803  007C  082C               	movf	??___ftmul+3,w
  4804  007D  06B2               	xorwf	___ftmul@sign,f
  4805  007E  3080               	movlw	128
  4806  007F  00A9               	movwf	??___ftmul
  4807  0080  0829               	movf	??___ftmul,w
  4808  0081  05B2               	andwf	___ftmul@sign,f
  4809  0082  17A4               	bsf	___ftmul@f1+1,7
  4810  0083  17A7               	bsf	___ftmul@f2+1,7
  4811  0084  30FF               	movlw	255
  4812  0085  05A6               	andwf	___ftmul@f2,f
  4813  0086  30FF               	movlw	255
  4814  0087  05A7               	andwf	___ftmul@f2+1,f
  4815  0088  3000               	movlw	0
  4816  0089  05A8               	andwf	___ftmul@f2+2,f
  4817  008A  3000               	movlw	0
  4818  008B  00AE               	movwf	___ftmul@f3_as_product
  4819  008C  3000               	movlw	0
  4820  008D  00AF               	movwf	___ftmul@f3_as_product+1
  4821  008E  3000               	movlw	0
  4822  008F  00B0               	movwf	___ftmul@f3_as_product+2
  4823  0090  3007               	movlw	7
  4824  0091  00A9               	movwf	??___ftmul
  4825  0092  0829               	movf	??___ftmul,w
  4826  0093  00B1               	movwf	___ftmul@cntr
  4827  0094                     l1296:	
  4828  0094  1C23               	btfss	___ftmul@f1,0
  4829  0095  289C               	goto	l1300
  4830  0096  0826               	movf	___ftmul@f2,w
  4831  0097  07AE               	addwf	___ftmul@f3_as_product,f
  4832  0098  0827               	movf	___ftmul@f2+1,w
  4833  0099  3DAF               	addwfc	___ftmul@f3_as_product+1,f
  4834  009A  0828               	movf	___ftmul@f2+2,w
  4835  009B  3DB0               	addwfc	___ftmul@f3_as_product+2,f
  4836  009C                     l1300:	
  4837  009C  3001               	movlw	1
  4838  009D                     u1285:	
  4839  009D  36A5               	lsrf	___ftmul@f1+2,f
  4840  009E  0CA4               	rrf	___ftmul@f1+1,f
  4841  009F  0CA3               	rrf	___ftmul@f1,f
  4842  00A0  0B89               	decfsz	9,f
  4843  00A1  289D               	goto	u1285
  4844  00A2  3001               	movlw	1
  4845  00A3                     u1295:	
  4846  00A3  35A6               	lslf	___ftmul@f2,f
  4847  00A4  0DA7               	rlf	___ftmul@f2+1,f
  4848  00A5  0DA8               	rlf	___ftmul@f2+2,f
  4849  00A6  0B89               	decfsz	9,f
  4850  00A7  28A3               	goto	u1295
  4851  00A8  3001               	movlw	1
  4852  00A9  02B1               	subwf	___ftmul@cntr,f
  4853  00AA  1D03               	btfss	3,2
  4854  00AB  2894               	goto	l1296
  4855  00AC  3009               	movlw	9
  4856  00AD  00A9               	movwf	??___ftmul
  4857  00AE  0829               	movf	??___ftmul,w
  4858  00AF  00B1               	movwf	___ftmul@cntr
  4859  00B0                     l1308:	
  4860  00B0  1C23               	btfss	___ftmul@f1,0
  4861  00B1  28B8               	goto	l1312
  4862  00B2  0826               	movf	___ftmul@f2,w
  4863  00B3  07AE               	addwf	___ftmul@f3_as_product,f
  4864  00B4  0827               	movf	___ftmul@f2+1,w
  4865  00B5  3DAF               	addwfc	___ftmul@f3_as_product+1,f
  4866  00B6  0828               	movf	___ftmul@f2+2,w
  4867  00B7  3DB0               	addwfc	___ftmul@f3_as_product+2,f
  4868  00B8                     l1312:	
  4869  00B8  3001               	movlw	1
  4870  00B9                     u1325:	
  4871  00B9  36A5               	lsrf	___ftmul@f1+2,f
  4872  00BA  0CA4               	rrf	___ftmul@f1+1,f
  4873  00BB  0CA3               	rrf	___ftmul@f1,f
  4874  00BC  0B89               	decfsz	9,f
  4875  00BD  28B9               	goto	u1325
  4876  00BE  3001               	movlw	1
  4877  00BF                     u1335:	
  4878  00BF  36B0               	lsrf	___ftmul@f3_as_product+2,f
  4879  00C0  0CAF               	rrf	___ftmul@f3_as_product+1,f
  4880  00C1  0CAE               	rrf	___ftmul@f3_as_product,f
  4881  00C2  0B89               	decfsz	9,f
  4882  00C3  28BF               	goto	u1335
  4883  00C4  3001               	movlw	1
  4884  00C5  02B1               	subwf	___ftmul@cntr,f
  4885  00C6  1D03               	btfss	3,2
  4886  00C7  28B0               	goto	l1308
  4887  00C8  082E               	movf	___ftmul@f3_as_product,w
  4888  00C9  00F0               	movwf	___ftpack@arg
  4889  00CA  082F               	movf	___ftmul@f3_as_product+1,w
  4890  00CB  00F1               	movwf	___ftpack@arg+1
  4891  00CC  0830               	movf	___ftmul@f3_as_product+2,w
  4892  00CD  00F2               	movwf	___ftpack@arg+2
  4893  00CE  082D               	movf	___ftmul@exp,w
  4894  00CF  00A9               	movwf	??___ftmul
  4895  00D0  0829               	movf	??___ftmul,w
  4896  00D1  00F3               	movwf	___ftpack@exp
  4897  00D2  0832               	movf	___ftmul@sign,w
  4898  00D3  00AA               	movwf	??___ftmul+1
  4899  00D4  082A               	movf	??___ftmul+1,w
  4900  00D5  00F4               	movwf	___ftpack@sign
  4901  00D6  3189  2107         	fcall	___ftpack
  4902  00D8  0870               	movf	?___ftpack,w
  4903  00D9  0140               	movlb	0	; select bank0
  4904  00DA  00A3               	movwf	?___ftmul
  4905  00DB  0871               	movf	?___ftpack+1,w
  4906  00DC  00A4               	movwf	?___ftmul+1
  4907  00DD  0872               	movf	?___ftpack+2,w
  4908  00DE  00A5               	movwf	?___ftmul+2
  4909  00DF  0008               	return
  4910  00E0                     __end_of___ftmul:	
  4911                           
  4912                           	psect	text7
  4913  00E0                     __ptext7:	
  4914 ;; *************** function ___ftadd *****************
  4915 ;; Defined at:
  4916 ;;		line 86 in file "C:\Program Files (x86)\Microchip\xc8\v1.45\sources\common\ftadd.c"
  4917 ;; Parameters:    Size  Location     Type
  4918 ;;  f1              3   19[BANK0 ] float 
  4919 ;;  f2              3   22[BANK0 ] float 
  4920 ;; Auto vars:     Size  Location     Type
  4921 ;;  exp1            1   31[BANK0 ] unsigned char 
  4922 ;;  exp2            1   30[BANK0 ] unsigned char 
  4923 ;;  sign            1   29[BANK0 ] unsigned char 
  4924 ;; Return value:  Size  Location     Type
  4925 ;;                  3   19[BANK0 ] float 
  4926 ;; Registers used:
  4927 ;;		wreg, status,2, status,0, pclath, cstack
  4928 ;; Tracked objects:
  4929 ;;		On entry : 0/0
  4930 ;;		On exit  : 0/0
  4931 ;;		Unchanged: 0/0
  4932 ;; Data sizes:     COMMON   BANK0   BANK1   BANK2   BANK3   BANK4   BANK5   BANK6   BANK7   BANK8   BANK9  BANK10  BANK1
      +1  BANK12  BANK13  BANK14  BANK15  BANK16  BANK17  BANK18  BANK19  BANK20  BANK21  BANK22  BANK23  BANK24  BANK25  BANK2
      +6  BANK27  BANK28  BANK29  BANK30  BANK31  BANK32  BANK33  BANK34  BANK35  BANK36  BANK37  BANK38  BANK39  BANK40  BANK4
      +1  BANK42  BANK43  BANK44  BANK45  BANK46  BANK47  BANK48  BANK49  BANK50
  4933 ;;      Params:         0       6       0       0       0       0       0       0       0       0       0       0       
      +0       0       0       0       0       0       0       0       0       0       0       0       0       0       0       
      +0       0       0       0       0       0       0       0       0       0       0       0       0       0       0       
      +0       0       0       0       0       0       0       0       0       0
  4934 ;;      Locals:         0       3       0       0       0       0       0       0       0       0       0       0       
      +0       0       0       0       0       0       0       0       0       0       0       0       0       0       0       
      +0       0       0       0       0       0       0       0       0       0       0       0       0       0       0       
      +0       0       0       0       0       0       0       0       0       0
  4935 ;;      Temps:          0       4       0       0       0       0       0       0       0       0       0       0       
      +0       0       0       0       0       0       0       0       0       0       0       0       0       0       0       
      +0       0       0       0       0       0       0       0       0       0       0       0       0       0       0       
      +0       0       0       0       0       0       0       0       0       0
  4936 ;;      Totals:         0      13       0       0       0       0       0       0       0       0       0       0       
      +0       0       0       0       0       0       0       0       0       0       0       0       0       0       0       
      +0       0       0       0       0       0       0       0       0       0       0       0       0       0       0       
      +0       0       0       0       0       0       0       0       0       0
  4937 ;;Total ram usage:       13 bytes
  4938 ;; Hardware stack levels used:    1
  4939 ;; Hardware stack levels required when called:    1
  4940 ;; This function calls:
  4941 ;;		___ftpack
  4942 ;; This function is called by:
  4943 ;;		_geterror
  4944 ;;		_formula
  4945 ;; This function uses a non-reentrant model
  4946 ;;
  4947                           
  4948                           
  4949                           ;psect for function ___ftadd
  4950  00E0                     ___ftadd:	
  4951                           
  4952                           ;incstack = 0
  4953                           ; Regs used in ___ftadd: [wreg+status,2+status,0+pclath+cstack]
  4954  00E0  0140               	movlb	0	; select bank0
  4955  00E1  0833               	movf	___ftadd@f1,w
  4956  00E2  00B9               	movwf	??___ftadd
  4957  00E3  0834               	movf	___ftadd@f1+1,w
  4958  00E4  00BA               	movwf	??___ftadd+1
  4959  00E5  0835               	movf	___ftadd@f1+2,w
  4960  00E6  00BB               	movwf	??___ftadd+2
  4961  00E7  1003               	clrc
  4962  00E8  0D3A               	rlf	??___ftadd+1,w
  4963  00E9  0D3B               	rlf	??___ftadd+2,w
  4964  00EA  00BC               	movwf	??___ftadd+3
  4965  00EB  083C               	movf	??___ftadd+3,w
  4966  00EC  00BF               	movwf	___ftadd@exp1
  4967  00ED  0836               	movf	___ftadd@f2,w
  4968  00EE  00B9               	movwf	??___ftadd
  4969  00EF  0837               	movf	___ftadd@f2+1,w
  4970  00F0  00BA               	movwf	??___ftadd+1
  4971  00F1  0838               	movf	___ftadd@f2+2,w
  4972  00F2  00BB               	movwf	??___ftadd+2
  4973  00F3  1003               	clrc
  4974  00F4  0D3A               	rlf	??___ftadd+1,w
  4975  00F5  0D3B               	rlf	??___ftadd+2,w
  4976  00F6  00BC               	movwf	??___ftadd+3
  4977  00F7  083C               	movf	??___ftadd+3,w
  4978  00F8  00BE               	movwf	___ftadd@exp2
  4979  00F9  083F               	movf	___ftadd@exp1,w
  4980  00FA  1903               	btfsc	3,2
  4981  00FB  2908               	goto	l1166
  4982  00FC  083E               	movf	___ftadd@exp2,w
  4983  00FD  023F               	subwf	___ftadd@exp1,w
  4984  00FE  1803               	skipnc
  4985  00FF  290F               	goto	l1170
  4986  0100  033F               	decf	___ftadd@exp1,w
  4987  0101  3AFF               	xorlw	255
  4988  0102  073E               	addwf	___ftadd@exp2,w
  4989  0103  00B9               	movwf	??___ftadd
  4990  0104  3019               	movlw	25
  4991  0105  0239               	subwf	??___ftadd,w
  4992  0106  1C03               	skipc
  4993  0107  290F               	goto	l1170
  4994  0108                     l1166:	
  4995  0108  0836               	movf	___ftadd@f2,w
  4996  0109  00B3               	movwf	?___ftadd
  4997  010A  0837               	movf	___ftadd@f2+1,w
  4998  010B  00B4               	movwf	?___ftadd+1
  4999  010C  0838               	movf	___ftadd@f2+2,w
  5000  010D  00B5               	movwf	?___ftadd+2
  5001  010E  0008               	return
  5002  010F                     l1170:	
  5003  010F  083E               	movf	___ftadd@exp2,w
  5004  0110  1903               	btfsc	3,2
  5005  0111  0008               	return
  5006  0112  083F               	movf	___ftadd@exp1,w
  5007  0113  023E               	subwf	___ftadd@exp2,w
  5008  0114  1803               	skipnc
  5009  0115  291E               	goto	l1176
  5010  0116  033E               	decf	___ftadd@exp2,w
  5011  0117  3AFF               	xorlw	255
  5012  0118  073F               	addwf	___ftadd@exp1,w
  5013  0119  00B9               	movwf	??___ftadd
  5014  011A  3019               	movlw	25
  5015  011B  0239               	subwf	??___ftadd,w
  5016  011C  1803               	btfsc	3,0
  5017  011D  0008               	return
  5018  011E                     l1176:	
  5019  011E  3006               	movlw	6
  5020  011F  00B9               	movwf	??___ftadd
  5021  0120  0839               	movf	??___ftadd,w
  5022  0121  00BD               	movwf	___ftadd@sign
  5023  0122  1BB5               	btfsc	___ftadd@f1+2,7
  5024  0123  17BD               	bsf	___ftadd@sign,7
  5025  0124  1BB8               	btfsc	___ftadd@f2+2,7
  5026  0125  173D               	bsf	___ftadd@sign,6
  5027  0126  17B4               	bsf	___ftadd@f1+1,7
  5028  0127  30FF               	movlw	255
  5029  0128  05B3               	andwf	___ftadd@f1,f
  5030  0129  30FF               	movlw	255
  5031  012A  05B4               	andwf	___ftadd@f1+1,f
  5032  012B  3000               	movlw	0
  5033  012C  05B5               	andwf	___ftadd@f1+2,f
  5034  012D  17B7               	bsf	___ftadd@f2+1,7
  5035  012E  30FF               	movlw	255
  5036  012F  05B6               	andwf	___ftadd@f2,f
  5037  0130  30FF               	movlw	255
  5038  0131  05B7               	andwf	___ftadd@f2+1,f
  5039  0132  3000               	movlw	0
  5040  0133  05B8               	andwf	___ftadd@f2+2,f
  5041  0134  083E               	movf	___ftadd@exp2,w
  5042  0135  023F               	subwf	___ftadd@exp1,w
  5043  0136  1803               	skipnc
  5044  0137  295A               	goto	l1198
  5045  0138                     l1188:	
  5046  0138  3001               	movlw	1
  5047  0139                     u1015:	
  5048  0139  35B6               	lslf	___ftadd@f2,f
  5049  013A  0DB7               	rlf	___ftadd@f2+1,f
  5050  013B  0DB8               	rlf	___ftadd@f2+2,f
  5051  013C  0B89               	decfsz	9,f
  5052  013D  2939               	goto	u1015
  5053  013E  3001               	movlw	1
  5054  013F  02BE               	subwf	___ftadd@exp2,f
  5055  0140  083E               	movf	___ftadd@exp2,w
  5056  0141  063F               	xorwf	___ftadd@exp1,w
  5057  0142  1903               	skipnz
  5058  0143  2955               	goto	l1196
  5059  0144  3001               	movlw	1
  5060  0145  02BD               	subwf	___ftadd@sign,f
  5061  0146  083D               	movf	___ftadd@sign,w
  5062  0147  3907               	andlw	7
  5063  0148  1903               	btfsc	3,2
  5064  0149  2955               	goto	l1196
  5065  014A  2938               	goto	l1188
  5066  014B                     l1194:	
  5067  014B  3001               	movlw	1
  5068  014C                     u1045:	
  5069  014C  36B5               	lsrf	___ftadd@f1+2,f
  5070  014D  0CB4               	rrf	___ftadd@f1+1,f
  5071  014E  0CB3               	rrf	___ftadd@f1,f
  5072  014F  0B89               	decfsz	9,f
  5073  0150  294C               	goto	u1045
  5074  0151  3001               	movlw	1
  5075  0152  00B9               	movwf	??___ftadd
  5076  0153  0839               	movf	??___ftadd,w
  5077  0154  07BF               	addwf	___ftadd@exp1,f
  5078  0155                     l1196:	
  5079  0155  083F               	movf	___ftadd@exp1,w
  5080  0156  063E               	xorwf	___ftadd@exp2,w
  5081  0157  1903               	btfsc	3,2
  5082  0158  297F               	goto	l414
  5083  0159  294B               	goto	l1194
  5084  015A                     l1198:	
  5085  015A  083F               	movf	___ftadd@exp1,w
  5086  015B  023E               	subwf	___ftadd@exp2,w
  5087  015C  1803               	skipnc
  5088  015D  297F               	goto	l414
  5089  015E                     l1200:	
  5090  015E  3001               	movlw	1
  5091  015F                     u1075:	
  5092  015F  35B3               	lslf	___ftadd@f1,f
  5093  0160  0DB4               	rlf	___ftadd@f1+1,f
  5094  0161  0DB5               	rlf	___ftadd@f1+2,f
  5095  0162  0B89               	decfsz	9,f
  5096  0163  295F               	goto	u1075
  5097  0164  3001               	movlw	1
  5098  0165  02BF               	subwf	___ftadd@exp1,f
  5099  0166  083E               	movf	___ftadd@exp2,w
  5100  0167  063F               	xorwf	___ftadd@exp1,w
  5101  0168  1903               	skipnz
  5102  0169  297B               	goto	l1208
  5103  016A  3001               	movlw	1
  5104  016B  02BD               	subwf	___ftadd@sign,f
  5105  016C  083D               	movf	___ftadd@sign,w
  5106  016D  3907               	andlw	7
  5107  016E  1903               	btfsc	3,2
  5108  016F  297B               	goto	l1208
  5109  0170  295E               	goto	l1200
  5110  0171                     l1206:	
  5111  0171  3001               	movlw	1
  5112  0172                     u1105:	
  5113  0172  36B8               	lsrf	___ftadd@f2+2,f
  5114  0173  0CB7               	rrf	___ftadd@f2+1,f
  5115  0174  0CB6               	rrf	___ftadd@f2,f
  5116  0175  0B89               	decfsz	9,f
  5117  0176  2972               	goto	u1105
  5118  0177  3001               	movlw	1
  5119  0178  00B9               	movwf	??___ftadd
  5120  0179  0839               	movf	??___ftadd,w
  5121  017A  07BE               	addwf	___ftadd@exp2,f
  5122  017B                     l1208:	
  5123  017B  083F               	movf	___ftadd@exp1,w
  5124  017C  063E               	xorwf	___ftadd@exp2,w
  5125  017D  1D03               	skipz
  5126  017E  2971               	goto	l1206
  5127  017F                     l414:	
  5128  017F  1FBD               	btfss	___ftadd@sign,7
  5129  0180  2991               	goto	l1212
  5130  0181  30FF               	movlw	255
  5131  0182  06B3               	xorwf	___ftadd@f1,f
  5132  0183  30FF               	movlw	255
  5133  0184  06B4               	xorwf	___ftadd@f1+1,f
  5134  0185  30FF               	movlw	255
  5135  0186  06B5               	xorwf	___ftadd@f1+2,f
  5136  0187  3001               	movlw	1
  5137  0188  07B3               	addwf	___ftadd@f1,f
  5138  0189  3000               	movlw	0
  5139  018A  1803               	skipnc
  5140  018B  3001               	movlw	1
  5141  018C  07B4               	addwf	___ftadd@f1+1,f
  5142  018D  3000               	movlw	0
  5143  018E  1803               	skipnc
  5144  018F  3001               	movlw	1
  5145  0190  07B5               	addwf	___ftadd@f1+2,f
  5146  0191                     l1212:	
  5147  0191  1F3D               	btfss	___ftadd@sign,6
  5148  0192  29A3               	goto	l1216
  5149  0193  30FF               	movlw	255
  5150  0194  06B6               	xorwf	___ftadd@f2,f
  5151  0195  30FF               	movlw	255
  5152  0196  06B7               	xorwf	___ftadd@f2+1,f
  5153  0197  30FF               	movlw	255
  5154  0198  06B8               	xorwf	___ftadd@f2+2,f
  5155  0199  3001               	movlw	1
  5156  019A  07B6               	addwf	___ftadd@f2,f
  5157  019B  3000               	movlw	0
  5158  019C  1803               	skipnc
  5159  019D  3001               	movlw	1
  5160  019E  07B7               	addwf	___ftadd@f2+1,f
  5161  019F  3000               	movlw	0
  5162  01A0  1803               	skipnc
  5163  01A1  3001               	movlw	1
  5164  01A2  07B8               	addwf	___ftadd@f2+2,f
  5165  01A3                     l1216:	
  5166  01A3  01BD               	clrf	___ftadd@sign
  5167  01A4  0833               	movf	___ftadd@f1,w
  5168  01A5  07B6               	addwf	___ftadd@f2,f
  5169  01A6  0834               	movf	___ftadd@f1+1,w
  5170  01A7  3DB7               	addwfc	___ftadd@f2+1,f
  5171  01A8  0835               	movf	___ftadd@f1+2,w
  5172  01A9  3DB8               	addwfc	___ftadd@f2+2,f
  5173  01AA  1FB8               	btfss	___ftadd@f2+2,7
  5174  01AB  29BE               	goto	l1226
  5175  01AC  30FF               	movlw	255
  5176  01AD  06B6               	xorwf	___ftadd@f2,f
  5177  01AE  30FF               	movlw	255
  5178  01AF  06B7               	xorwf	___ftadd@f2+1,f
  5179  01B0  30FF               	movlw	255
  5180  01B1  06B8               	xorwf	___ftadd@f2+2,f
  5181  01B2  3001               	movlw	1
  5182  01B3  07B6               	addwf	___ftadd@f2,f
  5183  01B4  3000               	movlw	0
  5184  01B5  1803               	skipnc
  5185  01B6  3001               	movlw	1
  5186  01B7  07B7               	addwf	___ftadd@f2+1,f
  5187  01B8  3000               	movlw	0
  5188  01B9  1803               	skipnc
  5189  01BA  3001               	movlw	1
  5190  01BB  07B8               	addwf	___ftadd@f2+2,f
  5191  01BC  01BD               	clrf	___ftadd@sign
  5192  01BD  0ABD               	incf	___ftadd@sign,f
  5193  01BE                     l1226:	
  5194  01BE  0836               	movf	___ftadd@f2,w
  5195  01BF  00F0               	movwf	___ftpack@arg
  5196  01C0  0837               	movf	___ftadd@f2+1,w
  5197  01C1  00F1               	movwf	___ftpack@arg+1
  5198  01C2  0838               	movf	___ftadd@f2+2,w
  5199  01C3  00F2               	movwf	___ftpack@arg+2
  5200  01C4  083F               	movf	___ftadd@exp1,w
  5201  01C5  00B9               	movwf	??___ftadd
  5202  01C6  0839               	movf	??___ftadd,w
  5203  01C7  00F3               	movwf	___ftpack@exp
  5204  01C8  083D               	movf	___ftadd@sign,w
  5205  01C9  00BA               	movwf	??___ftadd+1
  5206  01CA  083A               	movf	??___ftadd+1,w
  5207  01CB  00F4               	movwf	___ftpack@sign
  5208  01CC  3189  2107         	fcall	___ftpack
  5209  01CE  0870               	movf	?___ftpack,w
  5210  01CF  0140               	movlb	0	; select bank0
  5211  01D0  00B3               	movwf	?___ftadd
  5212  01D1  0871               	movf	?___ftpack+1,w
  5213  01D2  00B4               	movwf	?___ftadd+1
  5214  01D3  0872               	movf	?___ftpack+2,w
  5215  01D4  00B5               	movwf	?___ftadd+2
  5216  01D5  0008               	return
  5217  01D6                     __end_of___ftadd:	
  5218                           
  5219                           	psect	text8
  5220  000C                     __ptext8:	
  5221 ;; *************** function ___awtoft *****************
  5222 ;; Defined at:
  5223 ;;		line 32 in file "C:\Program Files (x86)\Microchip\xc8\v1.45\sources\common\awtoft.c"
  5224 ;; Parameters:    Size  Location     Type
  5225 ;;  c               2    8[COMMON] int 
  5226 ;; Auto vars:     Size  Location     Type
  5227 ;;  sign            1   13[COMMON] unsigned char 
  5228 ;; Return value:  Size  Location     Type
  5229 ;;                  3    8[COMMON] float 
  5230 ;; Registers used:
  5231 ;;		wreg, status,2, status,0, pclath, cstack
  5232 ;; Tracked objects:
  5233 ;;		On entry : 0/0
  5234 ;;		On exit  : 0/0
  5235 ;;		Unchanged: 0/0
  5236 ;; Data sizes:     COMMON   BANK0   BANK1   BANK2   BANK3   BANK4   BANK5   BANK6   BANK7   BANK8   BANK9  BANK10  BANK1
      +1  BANK12  BANK13  BANK14  BANK15  BANK16  BANK17  BANK18  BANK19  BANK20  BANK21  BANK22  BANK23  BANK24  BANK25  BANK2
      +6  BANK27  BANK28  BANK29  BANK30  BANK31  BANK32  BANK33  BANK34  BANK35  BANK36  BANK37  BANK38  BANK39  BANK40  BANK4
      +1  BANK42  BANK43  BANK44  BANK45  BANK46  BANK47  BANK48  BANK49  BANK50
  5237 ;;      Params:         3       0       0       0       0       0       0       0       0       0       0       0       
      +0       0       0       0       0       0       0       0       0       0       0       0       0       0       0       
      +0       0       0       0       0       0       0       0       0       0       0       0       0       0       0       
      +0       0       0       0       0       0       0       0       0       0
  5238 ;;      Locals:         1       0       0       0       0       0       0       0       0       0       0       0       
      +0       0       0       0       0       0       0       0       0       0       0       0       0       0       0       
      +0       0       0       0       0       0       0       0       0       0       0       0       0       0       0       
      +0       0       0       0       0       0       0       0       0       0
  5239 ;;      Temps:          2       0       0       0       0       0       0       0       0       0       0       0       
      +0       0       0       0       0       0       0       0       0       0       0       0       0       0       0       
      +0       0       0       0       0       0       0       0       0       0       0       0       0       0       0       
      +0       0       0       0       0       0       0       0       0       0
  5240 ;;      Totals:         6       0       0       0       0       0       0       0       0       0       0       0       
      +0       0       0       0       0       0       0       0       0       0       0       0       0       0       0       
      +0       0       0       0       0       0       0       0       0       0       0       0       0       0       0       
      +0       0       0       0       0       0       0       0       0       0
  5241 ;;Total ram usage:        6 bytes
  5242 ;; Hardware stack levels used:    1
  5243 ;; Hardware stack levels required when called:    1
  5244 ;; This function calls:
  5245 ;;		___ftpack
  5246 ;; This function is called by:
  5247 ;;		_geterror
  5248 ;;		_formula
  5249 ;; This function uses a non-reentrant model
  5250 ;;
  5251                           
  5252                           
  5253                           ;psect for function ___awtoft
  5254  000C                     ___awtoft:	
  5255                           
  5256                           ;incstack = 0
  5257                           ; Regs used in ___awtoft: [wreg+status,2+status,0+pclath+cstack]
  5258  000C  01FD               	clrf	___awtoft@sign
  5259  000D  1FF9               	btfss	___awtoft@c+1,7
  5260  000E  2816               	goto	l1156
  5261  000F  09F8               	comf	___awtoft@c,f
  5262  0010  09F9               	comf	___awtoft@c+1,f
  5263  0011  0AF8               	incf	___awtoft@c,f
  5264  0012  1903               	skipnz
  5265  0013  0AF9               	incf	___awtoft@c+1,f
  5266  0014  01FD               	clrf	___awtoft@sign
  5267  0015  0AFD               	incf	___awtoft@sign,f
  5268  0016                     l1156:	
  5269  0016  0878               	movf	___awtoft@c,w
  5270  0017  00F0               	movwf	___ftpack@arg
  5271  0018  0879               	movf	___awtoft@c+1,w
  5272  0019  00F1               	movwf	___ftpack@arg+1
  5273  001A  01F2               	clrf	___ftpack@arg+2
  5274  001B  308E               	movlw	142
  5275  001C  00FB               	movwf	??___awtoft
  5276  001D  087B               	movf	??___awtoft,w
  5277  001E  00F3               	movwf	___ftpack@exp
  5278  001F  087D               	movf	___awtoft@sign,w
  5279  0020  00FC               	movwf	??___awtoft+1
  5280  0021  087C               	movf	??___awtoft+1,w
  5281  0022  00F4               	movwf	___ftpack@sign
  5282  0023  3189  2107         	fcall	___ftpack
  5283  0025  0870               	movf	?___ftpack,w
  5284  0026  00F8               	movwf	?___awtoft
  5285  0027  0871               	movf	?___ftpack+1,w
  5286  0028  00F9               	movwf	?___awtoft+1
  5287  0029  0872               	movf	?___ftpack+2,w
  5288  002A  00FA               	movwf	?___awtoft+2
  5289  002B  0008               	return
  5290  002C                     __end_of___awtoft:	
  5291                           
  5292                           	psect	text9
  5293  0907                     __ptext9:	
  5294 ;; *************** function ___ftpack *****************
  5295 ;; Defined at:
  5296 ;;		line 62 in file "C:\Program Files (x86)\Microchip\xc8\v1.45\sources\common\float.c"
  5297 ;; Parameters:    Size  Location     Type
  5298 ;;  arg             3    0[COMMON] unsigned um
  5299 ;;  exp             1    3[COMMON] unsigned char 
  5300 ;;  sign            1    4[COMMON] unsigned char 
  5301 ;; Auto vars:     Size  Location     Type
  5302 ;;		None
  5303 ;; Return value:  Size  Location     Type
  5304 ;;                  3    0[COMMON] float 
  5305 ;; Registers used:
  5306 ;;		wreg, status,2, status,0
  5307 ;; Tracked objects:
  5308 ;;		On entry : 0/0
  5309 ;;		On exit  : 0/0
  5310 ;;		Unchanged: 0/0
  5311 ;; Data sizes:     COMMON   BANK0   BANK1   BANK2   BANK3   BANK4   BANK5   BANK6   BANK7   BANK8   BANK9  BANK10  BANK1
      +1  BANK12  BANK13  BANK14  BANK15  BANK16  BANK17  BANK18  BANK19  BANK20  BANK21  BANK22  BANK23  BANK24  BANK25  BANK2
      +6  BANK27  BANK28  BANK29  BANK30  BANK31  BANK32  BANK33  BANK34  BANK35  BANK36  BANK37  BANK38  BANK39  BANK40  BANK4
      +1  BANK42  BANK43  BANK44  BANK45  BANK46  BANK47  BANK48  BANK49  BANK50
  5312 ;;      Params:         5       0       0       0       0       0       0       0       0       0       0       0       
      +0       0       0       0       0       0       0       0       0       0       0       0       0       0       0       
      +0       0       0       0       0       0       0       0       0       0       0       0       0       0       0       
      +0       0       0       0       0       0       0       0       0       0
  5313 ;;      Locals:         0       0       0       0       0       0       0       0       0       0       0       0       
      +0       0       0       0       0       0       0       0       0       0       0       0       0       0       0       
      +0       0       0       0       0       0       0       0       0       0       0       0       0       0       0       
      +0       0       0       0       0       0       0       0       0       0
  5314 ;;      Temps:          3       0       0       0       0       0       0       0       0       0       0       0       
      +0       0       0       0       0       0       0       0       0       0       0       0       0       0       0       
      +0       0       0       0       0       0       0       0       0       0       0       0       0       0       0       
      +0       0       0       0       0       0       0       0       0       0
  5315 ;;      Totals:         8       0       0       0       0       0       0       0       0       0       0       0       
      +0       0       0       0       0       0       0       0       0       0       0       0       0       0       0       
      +0       0       0       0       0       0       0       0       0       0       0       0       0       0       0       
      +0       0       0       0       0       0       0       0       0       0
  5316 ;;Total ram usage:        8 bytes
  5317 ;; Hardware stack levels used:    1
  5318 ;; This function calls:
  5319 ;;		Nothing
  5320 ;; This function is called by:
  5321 ;;		___awtoft
  5322 ;;		___ftadd
  5323 ;;		___ftdiv
  5324 ;;		___ftmul
  5325 ;; This function uses a non-reentrant model
  5326 ;;
  5327                           
  5328                           
  5329                           ;psect for function ___ftpack
  5330  0907                     ___ftpack:	
  5331                           
  5332                           ;incstack = 0
  5333                           ; Regs used in ___ftpack: [wreg+status,2+status,0]
  5334  0907  0873               	movf	___ftpack@exp,w
  5335  0908  1903               	btfsc	3,2
  5336  0909  290F               	goto	l1120
  5337  090A  0872               	movf	___ftpack@arg+2,w
  5338  090B  0471               	iorwf	___ftpack@arg+1,w
  5339  090C  0470               	iorwf	___ftpack@arg,w
  5340  090D  1D03               	skipz
  5341  090E  2920               	goto	l1126
  5342  090F                     l1120:	
  5343  090F  3000               	movlw	0
  5344  0910  00F0               	movwf	?___ftpack
  5345  0911  3000               	movlw	0
  5346  0912  00F1               	movwf	?___ftpack+1
  5347  0913  3000               	movlw	0
  5348  0914  00F2               	movwf	?___ftpack+2
  5349  0915  0008               	return
  5350  0916                     l1124:	
  5351  0916  3001               	movlw	1
  5352  0917  00F5               	movwf	??___ftpack
  5353  0918  0875               	movf	??___ftpack,w
  5354  0919  07F3               	addwf	___ftpack@exp,f
  5355  091A  3001               	movlw	1
  5356  091B                     u815:	
  5357  091B  36F2               	lsrf	___ftpack@arg+2,f
  5358  091C  0CF1               	rrf	___ftpack@arg+1,f
  5359  091D  0CF0               	rrf	___ftpack@arg,f
  5360  091E  0B89               	decfsz	9,f
  5361  091F  291B               	goto	u815
  5362  0920                     l1126:	
  5363  0920  30FE               	movlw	254
  5364  0921  0572               	andwf	___ftpack@arg+2,w
  5365  0922  1903               	btfsc	3,2
  5366  0923  2939               	goto	l383
  5367  0924  2916               	goto	l1124
  5368  0925                     l1128:	
  5369  0925  3001               	movlw	1
  5370  0926  00F5               	movwf	??___ftpack
  5371  0927  0875               	movf	??___ftpack,w
  5372  0928  07F3               	addwf	___ftpack@exp,f
  5373  0929  3001               	movlw	1
  5374  092A  07F0               	addwf	___ftpack@arg,f
  5375  092B  3000               	movlw	0
  5376  092C  1803               	skipnc
  5377  092D  3001               	movlw	1
  5378  092E  07F1               	addwf	___ftpack@arg+1,f
  5379  092F  3000               	movlw	0
  5380  0930  1803               	skipnc
  5381  0931  3001               	movlw	1
  5382  0932  07F2               	addwf	___ftpack@arg+2,f
  5383  0933  3001               	movlw	1
  5384  0934                     u835:	
  5385  0934  36F2               	lsrf	___ftpack@arg+2,f
  5386  0935  0CF1               	rrf	___ftpack@arg+1,f
  5387  0936  0CF0               	rrf	___ftpack@arg,f
  5388  0937  0B89               	decfsz	9,f
  5389  0938  2934               	goto	u835
  5390  0939                     l383:	
  5391  0939  30FF               	movlw	255
  5392  093A  0572               	andwf	___ftpack@arg+2,w
  5393  093B  1903               	btfsc	3,2
  5394  093C  2946               	goto	l1136
  5395  093D  2925               	goto	l1128
  5396  093E                     l1134:	
  5397  093E  3001               	movlw	1
  5398  093F  02F3               	subwf	___ftpack@exp,f
  5399  0940  3001               	movlw	1
  5400  0941                     u855:	
  5401  0941  35F0               	lslf	___ftpack@arg,f
  5402  0942  0DF1               	rlf	___ftpack@arg+1,f
  5403  0943  0DF2               	rlf	___ftpack@arg+2,f
  5404  0944  0B89               	decfsz	9,f
  5405  0945  2941               	goto	u855
  5406  0946                     l1136:	
  5407  0946  1BF1               	btfsc	___ftpack@arg+1,7
  5408  0947  294C               	goto	l390
  5409  0948  3002               	movlw	2
  5410  0949  0273               	subwf	___ftpack@exp,w
  5411  094A  1803               	skipnc
  5412  094B  293E               	goto	l1134
  5413  094C                     l390:	
  5414  094C  1873               	btfsc	___ftpack@exp,0
  5415  094D  2954               	goto	l391
  5416  094E  30FF               	movlw	255
  5417  094F  05F0               	andwf	___ftpack@arg,f
  5418  0950  307F               	movlw	127
  5419  0951  05F1               	andwf	___ftpack@arg+1,f
  5420  0952  30FF               	movlw	255
  5421  0953  05F2               	andwf	___ftpack@arg+2,f
  5422  0954                     l391:	
  5423  0954  1003               	clrc
  5424  0955  0CF3               	rrf	___ftpack@exp,f
  5425  0956  0873               	movf	___ftpack@exp,w
  5426  0957  00F5               	movwf	??___ftpack
  5427  0958  01F6               	clrf	??___ftpack+1
  5428  0959  01F7               	clrf	??___ftpack+2
  5429  095A  3010               	movlw	16
  5430  095B                     u895:	
  5431  095B  35F5               	lslf	??___ftpack,f
  5432  095C  0DF6               	rlf	??___ftpack+1,f
  5433  095D  0DF7               	rlf	??___ftpack+2,f
  5434  095E  0B89               	decfsz	9,f
  5435  095F  295B               	goto	u895
  5436  0960  0875               	movf	??___ftpack,w
  5437  0961  04F0               	iorwf	___ftpack@arg,f
  5438  0962  0876               	movf	??___ftpack+1,w
  5439  0963  04F1               	iorwf	___ftpack@arg+1,f
  5440  0964  0877               	movf	??___ftpack+2,w
  5441  0965  04F2               	iorwf	___ftpack@arg+2,f
  5442  0966  0874               	movf	___ftpack@sign,w
  5443  0967  1903               	btfsc	3,2
  5444  0968  0008               	return
  5445  0969  17F2               	bsf	___ftpack@arg+2,7
  5446  096A  0008               	return
  5447  096B                     __end_of___ftpack:	
  5448  007E                     btemp	set	126	;btemp
  5449  007E                     wtemp0	set	126


Data Sizes:
    Strings     0
    Constant    0
    Data        11
    BSS         30
    Persistent  0
    Stack       0

Auto Spaces:
    Space          Size  Autos    Used
    COMMON           14     14      14
    BANK0            80     72      79
    BANK1            80     40      74
    BANK2            80      0       0
    BANK3            80      0       0
    BANK4            80      0       0
    BANK5            80      0       0
    BANK6            80      0       0
    BANK7            80      0       0
    BANK8            80      0       0
    BANK9            80      0       0
    BANK10           80      0       0
    BANK11           80      0       0
    BANK12           80      0       0
    BANK13           80      0       0
    BANK14           80      0       0
    BANK15           80      0       0
    BANK16           80      0       0
    BANK17           80      0       0
    BANK18           80      0       0
    BANK19           80      0       0
    BANK20           80      0       0
    BANK21           80      0       0
    BANK22           80      0       0
    BANK23           80      0       0
    BANK24           80      0       0
    BANK25           80      0       0
    BANK26           80      0       0
    BANK27           80      0       0
    BANK28           80      0       0
    BANK29           80      0       0
    BANK30           80      0       0
    BANK31           80      0       0
    BANK32           80      0       0
    BANK33           80      0       0
    BANK34           80      0       0
    BANK35           80      0       0
    BANK36           80      0       0
    BANK37           80      0       0
    BANK38           80      0       0
    BANK39           80      0       0
    BANK40           80      0       0
    BANK41           80      0       0
    BANK42           80      0       0
    BANK43           80      0       0
    BANK44           80      0       0
    BANK45           80      0       0
    BANK46           80      0       0
    BANK47           80      0       0
    BANK48           80      0       0
    BANK49           80      0       0
    BANK50           80      0       0

Pointer List with Targets:

    None.

Critical Paths under _main in COMMON

    _geterror->___awtoft
    ___ftdiv->___awtoft
    _formula->___awtoft
    ___fttol->___awtoft
    ___ftneg->___awtoft
    ___ftmul->___awtoft
    ___ftadd->___awtoft
    ___awtoft->___ftpack

Critical Paths under _main in BANK0

    _main->_formula
    _geterror->___fttol
    ___ftdiv->___ftadd
    _formula->___fttol
    ___fttol->___ftdiv
    ___ftmul->___ftneg
    ___ftadd->___ftmul

Critical Paths under _main in BANK1

    _main->_geterror

Critical Paths under _main in BANK2

    None.

Critical Paths under _main in BANK3

    None.

Critical Paths under _main in BANK4

    None.

Critical Paths under _main in BANK5

    None.

Critical Paths under _main in BANK6

    None.

Critical Paths under _main in BANK7

    None.

Critical Paths under _main in BANK8

    None.

Critical Paths under _main in BANK9

    None.

Critical Paths under _main in BANK10

    None.

Critical Paths under _main in BANK11

    None.

Critical Paths under _main in BANK12

    None.

Critical Paths under _main in BANK13

    None.

Critical Paths under _main in BANK14

    None.

Critical Paths under _main in BANK15

    None.

Critical Paths under _main in BANK16

    None.

Critical Paths under _main in BANK17

    None.

Critical Paths under _main in BANK18

    None.

Critical Paths under _main in BANK19

    None.

Critical Paths under _main in BANK20

    None.

Critical Paths under _main in BANK21

    None.

Critical Paths under _main in BANK22

    None.

Critical Paths under _main in BANK23

    None.

Critical Paths under _main in BANK24

    None.

Critical Paths under _main in BANK25

    None.

Critical Paths under _main in BANK26

    None.

Critical Paths under _main in BANK27

    None.

Critical Paths under _main in BANK28

    None.

Critical Paths under _main in BANK29

    None.

Critical Paths under _main in BANK30

    None.

Critical Paths under _main in BANK31

    None.

Critical Paths under _main in BANK32

    None.

Critical Paths under _main in BANK33

    None.

Critical Paths under _main in BANK34

    None.

Critical Paths under _main in BANK35

    None.

Critical Paths under _main in BANK36

    None.

Critical Paths under _main in BANK37

    None.

Critical Paths under _main in BANK38

    None.

Critical Paths under _main in BANK39

    None.

Critical Paths under _main in BANK40

    None.

Critical Paths under _main in BANK41

    None.

Critical Paths under _main in BANK42

    None.

Critical Paths under _main in BANK43

    None.

Critical Paths under _main in BANK44

    None.

Critical Paths under _main in BANK45

    None.

Critical Paths under _main in BANK46

    None.

Critical Paths under _main in BANK47

    None.

Critical Paths under _main in BANK48

    None.

Critical Paths under _main in BANK49

    None.

Critical Paths under _main in BANK50

    None.

Call Graph Tables:

 ---------------------------------------------------------------------------------
 (Depth) Function   	        Calls       Base Space   Used Autos Params    Refs
 ---------------------------------------------------------------------------------
 (0) _main                                                 6     2      4   35720
                                             70 BANK0      2     2      0
                                             36 BANK1      4     0      4
                            _formula
                           _geterror
 ---------------------------------------------------------------------------------
 (1) _geterror                                            39    39      0   19096
                                             62 BANK0      3     3      0
                                              0 BANK1     36    36      0
                           ___awtoft
                            ___ftadd
                            ___ftdiv
                            ___ftmul
                            ___fttol
 ---------------------------------------------------------------------------------
 (2) ___ftdiv                                             16    10      6    2941
                                             32 BANK0     16    10      6
                           ___awtoft (ARG)
                            ___ftadd (ARG)
                            ___ftmul (ARG)
                           ___ftpack
 ---------------------------------------------------------------------------------
 (1) _formula                                              8     8      0   16624
                                             62 BANK0      8     8      0
                           ___awtoft
                            ___ftadd
                            ___ftmul
                            ___ftneg
                            ___fttol
 ---------------------------------------------------------------------------------
 (2) ___fttol                                             14    10      4     729
                                             48 BANK0     14    10      4
                           ___awtoft (ARG)
                            ___ftadd (ARG)
                            ___ftdiv (ARG)
                            ___ftmul (ARG)
                            ___ftneg (ARG)
 ---------------------------------------------------------------------------------
 (2) ___ftneg                                              3     0      3     469
                                              0 BANK0      3     0      3
                           ___awtoft (ARG)
 ---------------------------------------------------------------------------------
 (2) ___ftmul                                             16    10      6    5849
                                              3 BANK0     16    10      6
                           ___awtoft (ARG)
                            ___ftneg (ARG)
                           ___ftpack
                           ___ftpack (ARG)
 ---------------------------------------------------------------------------------
 (2) ___ftadd                                             13     7      6    5807
                                             19 BANK0     13     7      6
                           ___awtoft (ARG)
                            ___ftmul (ARG)
                            ___ftneg (ARG)
                           ___ftpack
 ---------------------------------------------------------------------------------
 (2) ___awtoft                                             6     3      3    3494
                                              8 COMMON     6     3      3
                           ___ftpack
 ---------------------------------------------------------------------------------
 (3) ___ftpack                                             8     3      5    1707
                                              0 COMMON     8     3      5
 ---------------------------------------------------------------------------------
 Estimated maximum stack depth 3
 ---------------------------------------------------------------------------------

 Call Graph Graphs:

 _main (ROOT)
   _formula
     ___awtoft
       ___ftpack
     ___ftadd
       ___awtoft (ARG)
         ___ftpack
       ___ftmul (ARG)
         ___awtoft (ARG)
           ___ftpack
         ___ftneg (ARG)
           ___awtoft (ARG)
             ___ftpack
         ___ftpack (ARG)
         ___ftpack (ARG)
       ___ftneg (ARG)
         ___awtoft (ARG)
           ___ftpack
       ___ftpack (ARG)
     ___ftmul
       ___awtoft (ARG)
         ___ftpack
       ___ftneg (ARG)
         ___awtoft (ARG)
           ___ftpack
       ___ftpack (ARG)
       ___ftpack (ARG)
     ___ftneg
       ___awtoft (ARG)
         ___ftpack
     ___fttol
       ___awtoft (ARG)
         ___ftpack
       ___ftadd (ARG)
         ___awtoft (ARG)
           ___ftpack
         ___ftmul (ARG)
           ___awtoft (ARG)
             ___ftpack
           ___ftneg (ARG)
             ___awtoft (ARG)
               ___ftpack
           ___ftpack (ARG)
           ___ftpack (ARG)
         ___ftneg (ARG)
           ___awtoft (ARG)
             ___ftpack
         ___ftpack (ARG)
       ___ftdiv (ARG)
         ___awtoft (ARG)
           ___ftpack
         ___ftadd (ARG)
           ___awtoft (ARG)
             ___ftpack
           ___ftmul (ARG)
             ___awtoft (ARG)
               ___ftpack
             ___ftneg (ARG)
               ___awtoft (ARG)
                 ___ftpack
             ___ftpack (ARG)
             ___ftpack (ARG)
           ___ftneg (ARG)
             ___awtoft (ARG)
               ___ftpack
           ___ftpack (ARG)
         ___ftmul (ARG)
           ___awtoft (ARG)
             ___ftpack
           ___ftneg (ARG)
             ___awtoft (ARG)
               ___ftpack
           ___ftpack (ARG)
           ___ftpack (ARG)
         ___ftpack (ARG)
       ___ftmul (ARG)
         ___awtoft (ARG)
           ___ftpack
         ___ftneg (ARG)
           ___awtoft (ARG)
             ___ftpack
         ___ftpack (ARG)
         ___ftpack (ARG)
       ___ftneg (ARG)
         ___awtoft (ARG)
           ___ftpack
   _geterror
     ___awtoft
       ___ftpack
     ___ftadd
       ___awtoft (ARG)
         ___ftpack
       ___ftmul (ARG)
         ___awtoft (ARG)
           ___ftpack
         ___ftneg (ARG)
           ___awtoft (ARG)
             ___ftpack
         ___ftpack (ARG)
         ___ftpack (ARG)
       ___ftneg (ARG)
         ___awtoft (ARG)
           ___ftpack
       ___ftpack (ARG)
     ___ftdiv
       ___awtoft (ARG)
         ___ftpack
       ___ftadd (ARG)
         ___awtoft (ARG)
           ___ftpack
         ___ftmul (ARG)
           ___awtoft (ARG)
             ___ftpack
           ___ftneg (ARG)
             ___awtoft (ARG)
               ___ftpack
           ___ftpack (ARG)
           ___ftpack (ARG)
         ___ftneg (ARG)
           ___awtoft (ARG)
             ___ftpack
         ___ftpack (ARG)
       ___ftmul (ARG)
         ___awtoft (ARG)
           ___ftpack
         ___ftneg (ARG)
           ___awtoft (ARG)
             ___ftpack
         ___ftpack (ARG)
         ___ftpack (ARG)
       ___ftpack (ARG)
     ___ftmul
       ___awtoft (ARG)
         ___ftpack
       ___ftneg (ARG)
         ___awtoft (ARG)
           ___ftpack
       ___ftpack (ARG)
       ___ftpack (ARG)
     ___fttol
       ___awtoft (ARG)
         ___ftpack
       ___ftadd (ARG)
         ___awtoft (ARG)
           ___ftpack
         ___ftmul (ARG)
           ___awtoft (ARG)
             ___ftpack
           ___ftneg (ARG)
             ___awtoft (ARG)
               ___ftpack
           ___ftpack (ARG)
           ___ftpack (ARG)
         ___ftneg (ARG)
           ___awtoft (ARG)
             ___ftpack
         ___ftpack (ARG)
       ___ftdiv (ARG)
         ___awtoft (ARG)
           ___ftpack
         ___ftadd (ARG)
           ___awtoft (ARG)
             ___ftpack
           ___ftmul (ARG)
             ___awtoft (ARG)
               ___ftpack
             ___ftneg (ARG)
               ___awtoft (ARG)
                 ___ftpack
             ___ftpack (ARG)
             ___ftpack (ARG)
           ___ftneg (ARG)
             ___awtoft (ARG)
               ___ftpack
           ___ftpack (ARG)
         ___ftmul (ARG)
           ___awtoft (ARG)
             ___ftpack
           ___ftneg (ARG)
             ___awtoft (ARG)
               ___ftpack
           ___ftpack (ARG)
           ___ftpack (ARG)
         ___ftpack (ARG)
       ___ftmul (ARG)
         ___awtoft (ARG)
           ___ftpack
         ___ftneg (ARG)
           ___awtoft (ARG)
             ___ftpack
         ___ftpack (ARG)
         ___ftpack (ARG)
       ___ftneg (ARG)
         ___awtoft (ARG)
           ___ftpack

 Address spaces:
Name               Size   Autos  Total    Cost      Usage
BIGRAM             FF0      0       0       0        0.0%
EEDATA             100      0       0       0        0.0%
NULL                 0      0       0       0        0.0%
CODE                 0      0       0       0        0.0%
BITCOMMON            E      0       0       1        0.0%
BITSFR0              0      0       0       1        0.0%
SFR0                 0      0       0       1        0.0%
COMMON               E      E       E       2      100.0%
BITSFR1              0      0       0       2        0.0%
SFR1                 0      0       0       2        0.0%
BITSFR2              0      0       0       3        0.0%
SFR2                 0      0       0       3        0.0%
STACK                0      0       0       3        0.0%
BITBANK0            50      0       0       4        0.0%
BITSFR3              0      0       0       4        0.0%
SFR3                 0      0       0       4        0.0%
BANK0               50     48      4F       5       98.8%
BITSFR4              0      0       0       5        0.0%
SFR4                 0      0       0       5        0.0%
BITBANK1            50      0       0       6        0.0%
BITSFR5              0      0       0       6        0.0%
SFR5                 0      0       0       6        0.0%
BANK1               50     28      4A       7       92.5%
BITSFR6              0      0       0       7        0.0%
SFR6                 0      0       0       7        0.0%
BITBANK2            50      0       0       8        0.0%
BITSFR7              0      0       0       8        0.0%
SFR7                 0      0       0       8        0.0%
BANK2               50      0       0       9        0.0%
BITSFR8              0      0       0       9        0.0%
SFR8                 0      0       0       9        0.0%
BITBANK3            50      0       0      10        0.0%
BITSFR9              0      0       0      10        0.0%
SFR9                 0      0       0      10        0.0%
BANK3               50      0       0      11        0.0%
BITSFR10             0      0       0      11        0.0%
SFR10                0      0       0      11        0.0%
BITBANK4            50      0       0      12        0.0%
BITSFR11             0      0       0      12        0.0%
SFR11                0      0       0      12        0.0%
BANK4               50      0       0      13        0.0%
BITSFR12             0      0       0      13        0.0%
SFR12                0      0       0      13        0.0%
BITBANK5            50      0       0      14        0.0%
BITSFR13             0      0       0      14        0.0%
SFR13                0      0       0      14        0.0%
BANK5               50      0       0      15        0.0%
BITSFR14             0      0       0      15        0.0%
SFR14                0      0       0      15        0.0%
BITBANK6            50      0       0      16        0.0%
BITSFR15             0      0       0      16        0.0%
SFR15                0      0       0      16        0.0%
BANK6               50      0       0      17        0.0%
BITSFR16             0      0       0      17        0.0%
SFR16                0      0       0      17        0.0%
BITBANK7            50      0       0      18        0.0%
BITSFR17             0      0       0      18        0.0%
SFR17                0      0       0      18        0.0%
BANK7               50      0       0      19        0.0%
BITSFR18             0      0       0      19        0.0%
SFR18                0      0       0      19        0.0%
BITBANK8            50      0       0      20        0.0%
BITSFR19             0      0       0      20        0.0%
SFR19                0      0       0      20        0.0%
BANK8               50      0       0      21        0.0%
BITSFR20             0      0       0      21        0.0%
SFR20                0      0       0      21        0.0%
BITBANK9            50      0       0      22        0.0%
BITSFR21             0      0       0      22        0.0%
SFR21                0      0       0      22        0.0%
BANK9               50      0       0      23        0.0%
BITSFR22             0      0       0      23        0.0%
SFR22                0      0       0      23        0.0%
BITBANK10           50      0       0      24        0.0%
BITSFR23             0      0       0      24        0.0%
SFR23                0      0       0      24        0.0%
BANK10              50      0       0      25        0.0%
BITSFR24             0      0       0      25        0.0%
SFR24                0      0       0      25        0.0%
BITBANK11           50      0       0      26        0.0%
BITSFR25             0      0       0      26        0.0%
SFR25                0      0       0      26        0.0%
BANK11              50      0       0      27        0.0%
BITSFR26             0      0       0      27        0.0%
SFR26                0      0       0      27        0.0%
BITSFR27             0      0       0      28        0.0%
SFR27                0      0       0      28        0.0%
ABS                  0      0      A7      28        0.0%
BITBANK12           50      0       0      29        0.0%
BITSFR28             0      0       0      29        0.0%
SFR28                0      0       0      29        0.0%
BANK12              50      0       0      30        0.0%
BITSFR29             0      0       0      30        0.0%
SFR29                0      0       0      30        0.0%
BITBANK13           50      0       0      31        0.0%
BITSFR30             0      0       0      31        0.0%
SFR30                0      0       0      31        0.0%
BANK13              50      0       0      32        0.0%
BITSFR31             0      0       0      32        0.0%
SFR31                0      0       0      32        0.0%
BITBANK14           50      0       0      33        0.0%
BITSFR32             0      0       0      33        0.0%
SFR32                0      0       0      33        0.0%
BANK14              50      0       0      34        0.0%
BITSFR33             0      0       0      34        0.0%
SFR33                0      0       0      34        0.0%
BITBANK15           50      0       0      35        0.0%
BITSFR34             0      0       0      35        0.0%
SFR34                0      0       0      35        0.0%
BANK15              50      0       0      36        0.0%
BITSFR35             0      0       0      36        0.0%
SFR35                0      0       0      36        0.0%
BITBANK16           50      0       0      37        0.0%
BITSFR36             0      0       0      37        0.0%
SFR36                0      0       0      37        0.0%
BANK16              50      0       0      38        0.0%
BITSFR37             0      0       0      38        0.0%
SFR37                0      0       0      38        0.0%
BITBANK17           50      0       0      39        0.0%
BITSFR38             0      0       0      39        0.0%
SFR38                0      0       0      39        0.0%
BANK17              50      0       0      40        0.0%
BITSFR39             0      0       0      40        0.0%
SFR39                0      0       0      40        0.0%
BITBANK18           50      0       0      41        0.0%
BITSFR40             0      0       0      41        0.0%
SFR40                0      0       0      41        0.0%
BANK18              50      0       0      42        0.0%
BITSFR41             0      0       0      42        0.0%
SFR41                0      0       0      42        0.0%
BITBANK19           50      0       0      43        0.0%
BITSFR42             0      0       0      43        0.0%
SFR42                0      0       0      43        0.0%
BANK19              50      0       0      44        0.0%
BITSFR43             0      0       0      44        0.0%
SFR43                0      0       0      44        0.0%
BITBANK20           50      0       0      45        0.0%
BITSFR44             0      0       0      45        0.0%
SFR44                0      0       0      45        0.0%
BANK20              50      0       0      46        0.0%
BITSFR45             0      0       0      46        0.0%
SFR45                0      0       0      46        0.0%
BITBANK21           50      0       0      47        0.0%
BITSFR46             0      0       0      47        0.0%
SFR46                0      0       0      47        0.0%
BANK21              50      0       0      48        0.0%
BITSFR47             0      0       0      48        0.0%
SFR47                0      0       0      48        0.0%
BITBANK22           50      0       0      49        0.0%
BITSFR48             0      0       0      49        0.0%
SFR48                0      0       0      49        0.0%
BANK22              50      0       0      50        0.0%
BITSFR49             0      0       0      50        0.0%
SFR49                0      0       0      50        0.0%
BITBANK23           50      0       0      51        0.0%
BITSFR50             0      0       0      51        0.0%
SFR50                0      0       0      51        0.0%
BANK23              50      0       0      52        0.0%
BITSFR51             0      0       0      52        0.0%
SFR51                0      0       0      52        0.0%
BITBANK24           50      0       0      53        0.0%
BITSFR52             0      0       0      53        0.0%
SFR52                0      0       0      53        0.0%
BANK24              50      0       0      54        0.0%
BITSFR53             0      0       0      54        0.0%
SFR53                0      0       0      54        0.0%
BITBANK25           50      0       0      55        0.0%
BITSFR54             0      0       0      55        0.0%
SFR54                0      0       0      55        0.0%
BANK25              50      0       0      56        0.0%
BITSFR55             0      0       0      56        0.0%
SFR55                0      0       0      56        0.0%
BITBANK26           50      0       0      57        0.0%
BITSFR56             0      0       0      57        0.0%
SFR56                0      0       0      57        0.0%
BANK26              50      0       0      58        0.0%
BITSFR57             0      0       0      58        0.0%
SFR57                0      0       0      58        0.0%
BITSFR58             0      0       0      59        0.0%
SFR58                0      0       0      59        0.0%
DATA                 0      0      A7      59        0.0%
BITBANK27           50      0       0      60        0.0%
BITSFR59             0      0       0      60        0.0%
SFR59                0      0       0      60        0.0%
BANK27              50      0       0      61        0.0%
BITSFR60             0      0       0      61        0.0%
SFR60                0      0       0      61        0.0%
BITBANK28           50      0       0      62        0.0%
BITSFR61             0      0       0      62        0.0%
SFR61                0      0       0      62        0.0%
BANK28              50      0       0      63        0.0%
BITSFR62             0      0       0      63        0.0%
SFR62                0      0       0      63        0.0%
BITBANK29           50      0       0      64        0.0%
BITSFR63             0      0       0      64        0.0%
SFR63                0      0       0      64        0.0%
BANK29              50      0       0      65        0.0%
BITBANK30           50      0       0      66        0.0%
BANK30              50      0       0      67        0.0%
BITBANK31           50      0       0      68        0.0%
BANK31              50      0       0      69        0.0%
BITBANK32           50      0       0      70        0.0%
BANK32              50      0       0      71        0.0%
BITBANK33           50      0       0      72        0.0%
BANK33              50      0       0      73        0.0%
BITBANK34           50      0       0      74        0.0%
BANK34              50      0       0      75        0.0%
BITBANK35           50      0       0      76        0.0%
BANK35              50      0       0      77        0.0%
BITBANK36           50      0       0      78        0.0%
BANK36              50      0       0      79        0.0%
BITBANK37           50      0       0      80        0.0%
BANK37              50      0       0      81        0.0%
BITBANK38           50      0       0      82        0.0%
BANK38              50      0       0      83        0.0%
BITBANK39           50      0       0      84        0.0%
BANK39              50      0       0      85        0.0%
BITBANK40           50      0       0      86        0.0%
BANK40              50      0       0      87        0.0%
BITBANK41           50      0       0      88        0.0%
BANK41              50      0       0      89        0.0%
BITBANK42           50      0       0      90        0.0%
BANK42              50      0       0      91        0.0%
BITBANK43           50      0       0      92        0.0%
BANK43              50      0       0      93        0.0%
BITBANK44           50      0       0      94        0.0%
BANK44              50      0       0      95        0.0%
BITBANK45           50      0       0      96        0.0%
BANK45              50      0       0      97        0.0%
BITBANK46           50      0       0      98        0.0%
BANK46              50      0       0      99        0.0%
BITBANK47           50      0       0     100        0.0%
BANK47              50      0       0     101        0.0%
BITBANK48           50      0       0     102        0.0%
BANK48              50      0       0     103        0.0%
BITBANK49           50      0       0     104        0.0%
BANK49              50      0       0     105        0.0%
BITBANK50           50      0       0     106        0.0%
BANK50              50      0       0     107        0.0%


Microchip Technology PIC Macro Assembler V1.45 build -152302408 
Symbol Table                                                                                   Wed Oct 31 16:34:08 2018

          _geterror$1031 00A3            _geterror$1040 00BE            _geterror$1032 00A6  
          _geterror$1041 00C1            _geterror$1033 00A9            _geterror$1034 00AC  
          _geterror$1035 00AF            _geterror$1036 00B2            _geterror$1037 00B5  
          _geterror$1038 00B8            _geterror$1039 00BB              __CFG_CP$OFF 0000  
                     l99 01DE                       _v0 00E1                       _v1 00DA  
                     _v2 00D7                       _v3 00D4                       _v4 00D1  
                     _v5 00CE                       _v6 00CB                       _v7 00C8  
                     _kd 00E7                       _ki 00E4                       _kp 0068  
           ___ftadd@exp1 003F             ___ftadd@exp2 003E              __CFG_LVP$ON 0000  
           ___ftadd@sign 003D                      l102 024A                      l111 038E  
                    l120 04D2                      l105 02B6                      l114 03FA  
                    l108 0322                      l117 0466                      l128 0DA9  
                    l414 017F                      l390 094C                      l391 0954  
                    l383 0939                      l474 09D8                      _PR2 028D  
           __CFG_CPD$OFF 0000                      u815 091B                      u835 0934  
                    u855 0941                      u895 095B                      _adc 00DD  
           __CFG_BORV$LO 0000                      wreg 0009             __CFG_ZCD$OFF 0000  
           ___ftdiv@cntr 004A             ___ftdiv@sign 004F                     l1120 090F  
                   l1200 015E                     l1124 0916                     l1212 0191  
                   l1300 009C                     l1134 093E                     l1126 0920  
                   l1206 0171                     l1136 0946                     l1128 0925  
                   l1216 01A3                     l1208 017B                     l1312 00B8  
                   l1226 01BE                     l1170 010F                     l1242 0AB2  
                   l1156 0016                     l1308 00B0                     l1236 0A9C  
                   l1166 0108                     l1176 011E                     l1336 0984  
                   l1264 0B0C                     l1256 0AF3                     l1194 014B  
                   l1362 09CF                     l1354 09B4                     l1196 0155  
                   l1188 0138                     l1284 0059                     l1364 09DB  
                   l1356 09C2                     l1198 015A                     l1278 0043  
                   l1518 0EEE                     l1296 0094                     l1368 09E9  
                   l1628 0A76                     l1494 0C83                     u1015 0139  
                   u1105 0172                     u1045 014C                     u1205 0B03  
                   u1215 0B0D                     u1075 015F                     u1325 00B9  
                   u1405 09B5                     u1335 00BF                     u1255 0065  
                   u1175 0AC4                     u1265 0075                     u1185 0AD4  
                   u1435 09D0                     u1195 0AF4                     u1285 009D  
                   u1295 00A3                     u1375 098B                     u1607 02B1  
                   u1545 0B3E                     u1617 031D                     u1555 0C8F  
                   u1627 0389                     u1637 03F5                     u1647 0461  
                   u1657 04CD                     u1577 0A70                     u1587 01D9  
                   u1597 0245             __CFG_WRT$OFF 0000            __CFG_FCMEN$ON 0000  
                   _main 09F2             ___ftpack@arg 0070             ___ftpack@exp 0073  
                   fsr0h 0005                     fsr1h 0007                     indf0 0000  
                   fsr0l 0004                     fsr1l 0006                     btemp 007E  
          __CFG_BOREN$ON 0000                     start 0002            __CFG_CSWEN$ON 0000  
          __CFG_MCLRE$ON 0000             ___ftmul@cntr 0031             ___ftmul@sign 0032  
           ___fttol@exp1 005D             ___fttol@lval 0059                    ?_main 00C4  
                  _ADPCH 009E          __end_of___ftadd 01D6                    _CCPR1 030C  
                  _CCPR2 0310                    _CCPR3 0314                    _CCPR4 0318  
          __CFG_WDTE$OFF 0000          __end_of___ftdiv 0B2E          __end_of___ftneg 0907  
        __end_of___ftmul 00E0          __end_of___fttol 09F2                    _PORTA 000C  
                  _PORTB 000D                    _PORTC 000E                    _TRISA 0011  
                  _TRISB 0012            __CFG_PWRTE$ON 0000            ___awtoft@sign 007D  
                  _error 00DF          __end_of_formula 1000            ___ftpack@sign 0074  
                  status 0003                    wtemp0 007E          __initialization 07DC  
           __end_of_main 0A85                   ??_main 0066            ___fttol@sign1 0058  
                 _ADRESH 008D                   _ADRESL 008C         __end_of___awtoft 002C  
                 _ANSELA 1F38                   _ANSELB 1F43                   _ANSELC 1F4E  
       __end_of___ftpack 096B                   _RB0PPS 1F18                   _RB1PPS 1F19  
                 _RB2PPS 1F1A                   _RB3PPS 1F1B           __CFG_WDTCCS$SC 0000  
           _CCPTMRS0bits 021E         __end_of_geterror 07DC                ??___ftadd 0039  
         __CFG_STVREN$ON 0000                ??___ftdiv 0046                ??___ftneg 007E  
              ??___ftmul 0029                ??___fttol 0054    ___ftmul@f3_as_product 002E  
              ??_formula 005E  __end_of__initialization 07FD               ___ftadd@f1 0033  
             ___ftadd@f2 0036               ___ftdiv@f1 0043               ___ftdiv@f2 0040  
             ___ftdiv@f3 004B               ___ftneg@f1 0020               ___awtoft@c 0078  
             ___ftmul@f1 0023               ___ftmul@f2 0026               ___fttol@f1 0050  
         __pcstackCOMMON 0070             __pidataBANK0 08ED             __pidataBANK1 0006  
             __pbssBANK0 006D               __pbssBANK1 00C8               __pmaintext 09F2  
        __CFG_PPS1WAY$ON 0000                ?___awtoft 0078                ?___ftpack 0070  
    __CFG_RSTOSC$HFINT32 0000                ?_geterror 0070                _ADREFbits 009A  
   __CFG_SCANE$available 0000                  ___ftadd 00E0                  ___ftdiv 0A85  
                ___ftneg 08FE                  ___ftmul 002C                  ___fttol 096B  
             ??___awtoft 007B               ??___ftpack 0075                  __ptext1 01D6  
                __ptext2 0A85                  __ptext3 0B2E                  __ptext4 096B  
                __ptext5 08FE                  __ptext6 002C                  __ptext7 00E0  
                __ptext8 000C                  __ptext9 0907                _T2CONbits 028E  
                _formula 0B2E                  clrloop0 08F3     end_of_initialization 07FD  
             ??_geterror 005E                  init_ram 08F8                  initloop 08F9  
  __CFG_WDTCPS$WDTCPS_31 0000                _TRISBbits 0012                _TRISCbits 0013  
       __CFG_FEXTOSC$OFF 0000              _CCP1CONbits 030E              ___ftdiv@exp 004E  
            _CCP2CONbits 0312              _CCP3CONbits 0316              _CCP4CONbits 031A  
            ___ftmul@exp 002D      start_initialization 07DC         __CFG_LPBOREN$OFF 0000  
            __pdataBANK0 0068              __pdataBANK1 00E4        __size_of___awtoft 0020  
      __size_of___ftpack 0064             _formula$1042 0063             _formula$1043 0060  
              ___latbits 0004            __pcstackBANK0 0020            __pcstackBANK1 00A0  
      __size_of_geterror 0606                 ?___ftadd 0033                 ?___ftdiv 0040  
               ?___ftneg 0020                 ?___ftmul 0023                 ?___fttol 0050  
               ?_formula 0070                 _T2CLKCON 0290                clear_ram0 08F2  
              _velocidad 006B               _ADCON0bits 0093         __size_of___ftadd 00F6  
       __size_of___ftdiv 00A9         __size_of___ftneg 0009         __size_of___ftmul 00B4  
       __size_of___fttol 0087                 ___awtoft 000C                 ___ftpack 0907  
       __size_of_formula 04D2                 _geterror 01D6            __size_of_main 0093  
               _errorant 006D     __CFG_WDTCWS$WDTCWS_7 0000                 main@argc 00C4  
               main@argv 00C6        __CFG_CLKOUTEN$OFF 0000               _OSCFRQbits 0893  
          _geterror$1030 00A0  
